 DelawareWin32Debug

 Timestamp is 51070f67 (Mon Jan 28 15:53:11 2013)

 Preferred load address is 00400000

 Start         Length     Name                   Class
 0001:00000000 0011251aH .textbss                DATA
 0002:00000000 0021f297H .text                   CODE
 0002:0021f2a0 00017635H .text$x                 CODE
 0002:002368e0 000029dcH .text$yc                CODE
 0002:002392c0 00001a9eH .text$yd                CODE
 0003:00000000 00000104H .CRT$XCA                DATA
 0003:00000104 0000011fH .CRT$XCC                DATA
 0003:00000224 000001c2H .CRT$XCL                DATA
 0003:000003e8 0000032cH .CRT$XCU                DATA
 0003:00000714 00000104H .CRT$XCZ                DATA
 0003:00000818 00000104H .CRT$XIA                DATA
 0003:0000091c 00000118H .CRT$XIC                DATA
 0003:00000a34 00000104H .CRT$XID                DATA
 0003:00000b38 00000104H .CRT$XIY                DATA
 0003:00000c3c 00000104H .CRT$XIZ                DATA
 0003:00000d40 00000104H .CRT$XPA                DATA
 0003:00000e44 00000109H .CRT$XPX                DATA
 0003:00000f50 00000104H .CRT$XPXA               DATA
 0003:00001054 00000104H .CRT$XPZ                DATA
 0003:00001158 00000104H .CRT$XTA                DATA
 0003:0000125c 00000104H .CRT$XTZ                DATA
 0003:00001360 0004a2c3H .rdata                  DATA
 0003:0004b624 00000185H .rdata$debug            DATA
 0003:0004b7ac 00002ffbH .rdata$r                DATA
 0003:0004e7a8 00000104H .rtc$IAA                DATA
 0003:0004e8ac 000002e0H .rtc$IMZ                DATA
 0003:0004eb8c 00000104H .rtc$IZZ                DATA
 0003:0004ec90 00000104H .rtc$TAA                DATA
 0003:0004ed94 000002e0H .rtc$TMZ                DATA
 0003:0004f074 00000104H .rtc$TZZ                DATA
 0003:0004f178 00017467H .xdata$x                DATA
 0003:000665e0 00000104H ATL$__a                 DATA
 0003:000666e4 00000104H ATL$__z                 DATA
 0003:000667e8 00000000H .edata                  DATA
 0004:00000000 0006ec94H .data                   DATA
 0004:0006eca0 0002b158H .bss                    DATA
 0005:00000000 0000012cH .idata$2                DATA
 0005:0000012c 00000014H .idata$3                DATA
 0005:00000140 0000085cH .idata$4                DATA
 0005:0000099c 0000085cH .idata$5                DATA
 0005:000011f8 0000182fH .idata$6                DATA
 0006:00000000 00000216H .rsrc$01                DATA
 0006:00000220 00005089H .rsrc$02                DATA

  Address         Publics by Value              Rva+Base       Lib:Object

 0000:00000000       __except_list              00000000     <absolute>
 0000:00000000       ___safe_se_handler_count   00000000     <absolute>
 0000:00000000       ___safe_se_handler_table   00000000     <absolute>
 0000:00000000       ___ImageBase               00400000     <linker-defined>
 0001:00000000       __enc$textbss$begin        00401000     <linker-defined>
 0001:0011251a       __enc$textbss$end          0051351a     <linker-defined>
 0002:00012d60       ??0AnimatedSprite@@QAE@XZ  00526d60 f   AnimatedSprite.obj
 0002:00012db0       ??0AnimatedSprite@@QAE@GGGG@Z 00526db0 f   AnimatedSprite.obj
 0002:00012e80       ??1AnimatedSprite@@QAE@XZ  00526e80 f   AnimatedSprite.obj
 0002:00012eb0       ?setAnimatedData@AnimatedSprite@@QAEXGGGQBDQAG@Z 00526eb0 f   AnimatedSprite.obj
 0002:00012f40       ?setAnimatedData@AnimatedSprite@@QAEXGGGQBD@Z 00526f40 f   AnimatedSprite.obj
 0002:00012fd0       ?getSpriteFrame@AnimatedSprite@@QAEGXZ 00526fd0 f   AnimatedSprite.obj
 0002:00012ff0       ?incrementSpriteFrame@AnimatedSprite@@QAEXXZ 00526ff0 f   AnimatedSprite.obj
 0002:00013050       ?playAnimation@AnimatedSprite@@QAEXM@Z 00527050 f   AnimatedSprite.obj
 0002:00013090       ?playAnimationLooped@AnimatedSprite@@QAEXM_N@Z 00527090 f   AnimatedSprite.obj
 0002:000130f0       ?playAnimationOnce@AnimatedSprite@@QAEXM@Z 005270f0 f   AnimatedSprite.obj
 0002:00013130       ?playAnimationFrames@AnimatedSprite@@QAEXM_NGG@Z 00527130 f   AnimatedSprite.obj
 0002:000131b0       ?setAnimatedFrameTo@AnimatedSprite@@QAEXG@Z 005271b0 f   AnimatedSprite.obj
 0002:00013250       ?pauseAnimation@AnimatedSprite@@QAEXXZ 00527250 f   AnimatedSprite.obj
 0002:00013290       ?displayTrump@AnimatedSprite@@QAEXXZ 00527290 f   AnimatedSprite.obj
 0002:000132d0       ?hide@AnimatedSprite@@QAEXXZ 005272d0 f   AnimatedSprite.obj
 0002:00013360       ?show@AnimatedSprite@@QAEXXZ 00527360 f   AnimatedSprite.obj
 0002:00013410       ?isPlaying@AnimatedSprite@@QAE_NXZ 00527410 f   AnimatedSprite.obj
 0002:00013450       ?isVisible@AnimatedSprite@@QAE_NXZ 00527450 f   AnimatedSprite.obj
 0002:00013520       ??0BidControl@@QAE@XZ      00527520 f   BidControl.obj
 0002:00013610       ??1BidControl@@QAE@XZ      00527610 f   BidControl.obj
 0002:00013700       ?setup@BidControl@@QAEXPAVAnimatedSprite@@QBD1@Z 00527700 f   BidControl.obj
 0002:00013890       ?show@BidControl@@QAEXXZ   00527890 f   BidControl.obj
 0002:00013910       ?hide@BidControl@@QAEXXZ   00527910 f   BidControl.obj
 0002:00013990       ?setSize@BidControl@@QAEXMM@Z 00527990 f   BidControl.obj
 0002:00013a50       ?setPriority@BidControl@@QAEXG@Z 00527a50 f   BidControl.obj
 0002:00013af0       ?display@BidControl@@QAEXMM@Z 00527af0 f   BidControl.obj
 0002:00013bb0       ?isVisible@BidControl@@QAE_NXZ 00527bb0 f   BidControl.obj
 0002:00013bf0       ?animation@BidControl@@QAE_NFF@Z 00527bf0 f   BidControl.obj
 0002:00013cc0       ??0BidGame@@QAE@XZ         00527cc0 f   BidGame.obj
 0002:00013d80       ??1BidGame@@QAE@XZ         00527d80 f   BidGame.obj
 0002:00013da0       ?reset@BidGame@@QAEXXZ     00527da0 f   BidGame.obj
 0002:00013e60       ?getBid@BidGame@@QAEGXZ    00527e60 f   BidGame.obj
 0002:00013e80       ?playerBid@BidGame@@QAE_NG@Z 00527e80 f   BidGame.obj
 0002:00013f00       ?setPlayerBid@BidGame@@QAEXG@Z 00527f00 f   BidGame.obj
 0002:00013f80       ?playerMeldBid@BidGame@@QAEXPAVPlayer@@0G@Z 00527f80 f   BidGame.obj
 0002:00014170       ?meldBid@BidGame@@QAEXPAVPlayer@@0@Z 00528170 f   BidGame.obj
 0002:00014bc0       ?findTopValue@BidGame@@QAEGGGFF@Z 00528bc0 f   BidGame.obj
 0002:00014c20       ?setBid@BidGame@@QAEXG@Z   00528c20 f   BidGame.obj
 0002:00014c50       ?setPass@BidGame@@QAEXFF@Z 00528c50 f   BidGame.obj
 0002:00014e00       ?getPassRound@BidGame@@QAEFF@Z 00528e00 f   BidGame.obj
 0002:00014e80       ?setBidder@BidGame@@QAEXG@Z 00528e80 f   BidGame.obj
 0002:00014ec0       ?incrementBid@BidGame@@QAEXXZ 00528ec0 f   BidGame.obj
 0002:00014f20       ?getDealer@BidGame@@QAEFXZ 00528f20 f   BidGame.obj
 0002:00014f40       ?setDealer@BidGame@@QAEXG@Z 00528f40 f   BidGame.obj
 0002:00014f70       ?getBidDecided@BidGame@@QAE_NXZ 00528f70 f   BidGame.obj
 0002:00014f90       ?toggleBidDecided@BidGame@@QAEXXZ 00528f90 f   BidGame.obj
 0002:00014fc0       ?getPass@BidGame@@QAE_NG@Z 00528fc0 f   BidGame.obj
 0002:00015020       ?getBidWinner@BidGame@@QAEFXZ 00529020 f   BidGame.obj
 0002:00015040       ?playerTakeBid@BidGame@@QAEXPAVPlayer@@0FG@Z 00529040 f   BidGame.obj
 0002:000150f0       ?takeBid@BidGame@@QAEXPAVPlayer@@0F@Z 005290f0 f   BidGame.obj
 0002:00015fa0       ?getBidder@BidGame@@QAEFXZ 00529fa0 f   BidGame.obj
 0002:00015fc0       ?incrementBid@BidGame@@QAEXG@Z 00529fc0 f   BidGame.obj
 0002:00015ff0       ?getBestSuit@BidGame@@QAEFFF@Z 00529ff0 f   BidGame.obj
 0002:00016030       ?getBestSuit@BidGame@@QAEFFFFF@Z 0052a030 f   BidGame.obj
 0002:00016110       ?togglePass@BidGame@@QAEXF@Z 0052a110 f   BidGame.obj
 0002:00016140       ??0Bubbles@@QAE@XZ         0052a140 f   Bubbles.obj
 0002:000162a0       ??1Bubbles@@QAE@XZ         0052a2a0 f   Bubbles.obj
 0002:000163f0       ?setup@Bubbles@@QAEXPAVAnimatedSprite@@QBD1@Z 0052a3f0 f   Bubbles.obj
 0002:00016b30       ?getFirstCardPos@Bubbles@@QAEMHH_N@Z 0052ab30 f   Bubbles.obj
 0002:00016ba0       ?setBidSize@Bubbles@@QAEXMM@Z 0052aba0 f   Bubbles.obj
 0002:00016cd0       ?hide@Bubbles@@QAEXXZ      0052acd0 f   Bubbles.obj
 0002:00016dc0       ?setPriority@Bubbles@@QAEXG@Z 0052adc0 f   Bubbles.obj
 0002:00016f00       ?show@Bubbles@@QAEXF@Z     0052af00 f   Bubbles.obj
 0002:00016fa0       ?updateBid@Bubbles@@QAE_NFFVBidGame@@F@Z 0052afa0 f   Bubbles.obj
 0002:000178a0       ??0Buttons@@QAE@XZ         0052b8a0 f   Buttons.obj
 0002:00017970       ??1Buttons@@QAE@XZ         0052b970 f   Buttons.obj
 0002:00017a30       ?setSound@Buttons@@QAEX_N@Z 0052ba30 f   Buttons.obj
 0002:00017a80       ?animation@Buttons@@QAE_NF@Z 0052ba80 f   Buttons.obj
 0002:00017b40       ?display@Buttons@@QAEXMM@Z 0052bb40 f   Buttons.obj
 0002:00017c60       ?hide@Buttons@@QAEXXZ      0052bc60 f   Buttons.obj
 0002:00017d30       ?show@Buttons@@QAEXXZ      0052bd30 f   Buttons.obj
 0002:00017d70       ?setSize@Buttons@@QAEXMM@Z 0052bd70 f   Buttons.obj
 0002:00017e90       ?setPriority@Buttons@@QAEXG@Z 0052be90 f   Buttons.obj
 0002:00017f80       ?addFileExtension@Buttons@@QAEXQADF@Z 0052bf80 f   Buttons.obj
 0002:00018040       ?setData@Buttons@@QAEXQBD0@Z 0052c040 f   Buttons.obj
 0002:00018190       ?setup@Buttons@@QAEXPAVAnimatedSprite@@QBD@Z 0052c190 f   Buttons.obj
 0002:00018360       ?setup@Buttons@@QAEXPAVAnimatedSprite@@QBDVParentImage@@@Z 0052c360 f   Buttons.obj
 0002:00018400       ??0Card@@QAE@XZ            0052c400 f   Card.obj
 0002:000184d0       ??0Card@@QAE@GG@Z          0052c4d0 f   Card.obj
 0002:00018580       ??1Card@@QAE@XZ            0052c580 f   Card.obj
 0002:00018610       ?getFrontImage@Card@@QAEIXZ 0052c610 f   Card.obj
 0002:00018640       ?getBackImage@Card@@QAEIXZ 0052c640 f   Card.obj
 0002:00018670       ?getOutlineImage@Card@@QAEIXZ 0052c670 f   Card.obj
 0002:000186a0       ?setFrontImage@Card@@QAEXI@Z 0052c6a0 f   Card.obj
 0002:000186d0       ?setBackImage@Card@@QAEXI@Z 0052c6d0 f   Card.obj
 0002:00018700       ?setBackImage@Card@@QAEXIF@Z 0052c700 f   Card.obj
 0002:00018740       ?setOutlineImage@Card@@QAEXI@Z 0052c740 f   Card.obj
 0002:00018770       ?compareBackImageTo@Card@@QAE_NI@Z 0052c770 f   Card.obj
 0002:000187d0       ?setData@Card@@QAEXQADFF@Z 0052c7d0 f   Card.obj
 0002:00018af0       ?getOutline@Card@@QAE_NXZ  0052caf0 f   Card.obj
 0002:00018b10       ?getFaceDirection@Card@@QAE_NXZ 0052cb10 f   Card.obj
 0002:00018b30       ?getSuit@Card@@QAEXQADF@Z  0052cb30 f   Card.obj
 0002:00018be0       ?getRank@Card@@QAEXQADF@Z  0052cbe0 f   Card.obj
 0002:00018cb0       ?turnFaceDown@Card@@QAEXXZ 0052ccb0 f   Card.obj
 0002:00018d00       ?turnFaceUp@Card@@QAEXXZ   0052cd00 f   Card.obj
 0002:00018d60       ?rotateLeft@Card@@QAEXXZ   0052cd60 f   Card.obj
 0002:00018e20       ?rotateRight@Card@@QAEXXZ  0052ce20 f   Card.obj
 0002:00018ee0       ?getRotationAmount@Card@@QAEMXZ 0052cee0 f   Card.obj
 0002:00018f10       ?unRotate@Card@@QAEXXZ     0052cf10 f   Card.obj
 0002:00018fb0       ?getIsRotated@Card@@QAE_NXZ 0052cfb0 f   Card.obj
 0002:00018fd0       ?getX@Card@@QAEMXZ         0052cfd0 f   Card.obj
 0002:00019000       ?getY@Card@@QAEMXZ         0052d000 f   Card.obj
 0002:00019030       ?updateShrinkCloseTrick@Card@@QAE_NFPAV1@00@Z 0052d030 f   Card.obj
 0002:00019800       ?isRotatedLeft@Card@@QAE_NXZ 0052d800 f   Card.obj
 0002:00019820       ?isRotatedRight@Card@@QAE_NXZ 0052d820 f   Card.obj
 0002:00019840       ?rotate@Card@@QAEXM@Z      0052d840 f   Card.obj
 0002:00019900       ?raiseHeight@Card@@QAEXXZ  0052d900 f   Card.obj
 0002:00019990       ?resetHeight@Card@@QAEXXZ  0052d990 f   Card.obj
 0002:00019a20       ?unOutlineCard@Card@@QAEXXZ 0052da20 f   Card.obj
 0002:00019a80       ?outlineCard@Card@@QAEXXZ  0052da80 f   Card.obj
 0002:00019ae0       ?revealCard@Card@@QAEXVPlayer@@@Z 0052dae0 f   Card.obj
 0002:00019bb0       ?sortVisualCards@Card@@QAEXVPlayer@@000PAV1@FF@Z 0052dbb0 f   Card.obj
 0002:0001a320       ?sortVisualCards@Card@@QAEXVPlayer@@PAV1@F@Z 0052e320 f   Card.obj
 0002:0001a6a0       ?updateCardLoc@Card@@QAE_NFVPinochleGame@@VBidGame@@VTrickGame@@F_N@Z 0052e6a0 f   Card.obj
 0002:0001aba0       _fabsf                     0052eba0 f i Card.obj
 0002:0001abd0       ?updateCardThrowIn@Card@@QAE_NVPlayer@@PAV1@@Z 0052ebd0 f   Card.obj
 0002:0001b9f0       ?updateCardLocs@Card@@QAE_NFPAV1@FFFFF_N@Z 0052f9f0 f   Card.obj
 0002:0001c5d0       ?abs@@YAMM@Z               005305d0 f i Card.obj
 0002:0001c600       ?updateCardPos@Card@@QAEFPAV1@VPlayer@@FFFFF@Z 00530600 f   Card.obj
 0002:0001cbb0       ?getRank@Card@@QAEFXZ      00530bb0 f   Card.obj
 0002:0001cbe0       ?getSuit@Card@@QAEFXZ      00530be0 f   Card.obj
 0002:0001cc10       ?setSize@Card@@QAEXM@Z     00530c10 f   Card.obj
 0002:0001cc80       ?offset@Card@@QAEXMM@Z     00530c80 f   Card.obj
 0002:0001cd00       ?setPriority@Card@@QAEXG@Z 00530d00 f   Card.obj
 0002:0001cd60       ?display@Card@@QAEXMM@Z    00530d60 f   Card.obj
 0002:0001ce40       ?show@Card@@QAEXXZ         00530e40 f   Card.obj
 0002:0001cea0       ?hide@Card@@QAEXXZ         00530ea0 f   Card.obj
 0002:0001cee0       ??0Checkbox@@QAE@XZ        00530ee0 f   Checkbox.obj
 0002:0001cf70       ??1Checkbox@@QAE@XZ        00530f70 f   Checkbox.obj
 0002:0001d000       ?setData@Checkbox@@QAEXQBDVParentImage@@@Z 00531000 f   Checkbox.obj
 0002:0001d1a0       ?Check@Checkbox@@QAEXXZ    005311a0 f   Checkbox.obj
 0002:0001d1e0       ?UnCheck@Checkbox@@QAEXXZ  005311e0 f   Checkbox.obj
 0002:0001d220       ?hide@Checkbox@@QAEXXZ     00531220 f   Checkbox.obj
 0002:0001d250       ??_H@YGXPAXIHP6EPAX0@Z@Z   00531250 f i Core.obj
 0002:0001d290       ?AppInitCode@@YAHXZ        00531290 f   Core.obj
 0002:0001d2b0       ?AppGatherData@@YAXKPAD@Z  005312b0 f   Core.obj
 0002:0001d2d0       ?AppForceExit@@YAXXZ       005312d0 f   Core.obj
 0002:0001d2f0       ?Output@@YAXPBD@Z          005312f0 f   Core.obj
 0002:0001d3d0       ?TranslateKey@@YAII@Z      005313d0 f   Core.obj
 0002:0001d5b0       ?WndProc@@YGJPAUHWND__@@IIJ@Z 005315b0 f   Core.obj
 0002:0001d980       ?CreateWin32Window@@YAPAUHWND__@@PAUHINSTANCE__@@HHAAVuString@AGK@@HH_N@Z 00531980 f   Core.obj
 0002:0001dc60       ?GetStr@uString@AGK@@QBEPBDXZ 00531c60 f i Core.obj
 0002:0001dca0       ?CreateInternalBitmapsForLIBIMAGES@@YAXXZ 00531ca0 f   Core.obj
 0002:0001dff0       _WinMain@16                00531ff0 f   Core.obj
 0002:0001e2a0       ??0Thank_you@Define_the_symbol__ATL_MIXED@@QAE@XZ 005322a0 f i Core.obj
 0002:0001e2d0       ?one@Thank_you@Define_the_symbol__ATL_MIXED@@UAEXXZ 005322d0 f i Core.obj
 0002:0001e2f0       ??0Deck@@QAE@XZ            005322f0 f   Deck.obj
 0002:0001e380       ??1Deck@@QAE@XZ            00532380 f   Deck.obj
 0002:0001e3a0       ?reset@Deck@@QAEX_N@Z      005323a0 f   Deck.obj
 0002:0001e450       ?setDeck@Deck@@QAEXQAD@Z   00532450 f   Deck.obj
 0002:0001e4b0       ?getDeckCounter@Deck@@QAEFXZ 005324b0 f   Deck.obj
 0002:0001e4e0       ?setDeckCounter@Deck@@QAEXF@Z 005324e0 f   Deck.obj
 0002:0001e510       ?shuffleDeck@Deck@@AAEX_N@Z 00532510 f   Deck.obj
 0002:0001e5e0       ?getCard@Deck@@QAEFF@Z     005325e0 f   Deck.obj
 0002:0001e610       ?deal@Deck@@QAEXPAF@Z      00532610 f   Deck.obj
 0002:0001e6a0       ?getDeckLocation@Deck@@QAEFXZ 005326a0 f   Deck.obj
 0002:0001e6d0       ?incrementDeckLocation@Deck@@QAEXXZ 005326d0 f   Deck.obj
 0002:0001e720       ?getSuit@Deck@@QAEFF@Z     00532720 f   Deck.obj
 0002:0001e750       ?getRank@Deck@@QAEFF@Z     00532750 f   Deck.obj
 0002:0001e790       ??0GameScore@@QAE@XZ       00532790 f   GameScore.obj
 0002:0001e890       ??1GameScore@@QAE@XZ       00532890 f   GameScore.obj
 0002:0001e980       ?setup@GameScore@@QAEXPAVAnimatedSprite@@PAVParentImage@@@Z 00532980 f   GameScore.obj
 0002:0001eca0       ?setNumberData@GameScore@@QAEXXZ 00532ca0 f   GameScore.obj
 0002:0001efb0       ?hide@GameScore@@QAEXXZ    00532fb0 f   GameScore.obj
 0002:0001f090       ?setPriority@GameScore@@QAEXG@Z 00533090 f   GameScore.obj
 0002:0001f1a0       ?reset@GameScore@@QAEXXZ   005331a0 f   GameScore.obj
 0002:0001f240       ??0HandScore@@QAE@XZ       00533240 f   HandScore.obj
 0002:0001f340       ??1HandScore@@QAE@XZ       00533340 f   HandScore.obj
 0002:0001f430       ?setup@HandScore@@QAEXPAVAnimatedSprite@@@Z 00533430 f   HandScore.obj
 0002:0001f730       ?setNumberData@HandScore@@QAEXXZ 00533730 f   HandScore.obj
 0002:0001fc50       ?hide@HandScore@@QAEXXZ    00533c50 f   HandScore.obj
 0002:0001fd30       ?setPriority@HandScore@@QAEXG@Z 00533d30 f   HandScore.obj
 0002:0001fe50       ?reset@HandScore@@QAEXXZ   00533e50 f   HandScore.obj
 0002:0001fef0       ??0MyMenu@@QAE@XZ          00533ef0 f   MyMenu.obj
 0002:0001ffb0       ??1MyMenu@@QAE@XZ          00533fb0 f   MyMenu.obj
 0002:00020070       ?setup@MyMenu@@QAEXPAVAnimatedSprite@@@Z 00534070 f   MyMenu.obj
 0002:00020290       ?update@MyMenu@@QAEXXZ     00534290 f   MyMenu.obj
 0002:00020490       ?muteSound@MyMenu@@QAEXXZ  00534490 f   MyMenu.obj
 0002:000204c0       ?unMuteSound@MyMenu@@QAEXXZ 005344c0 f   MyMenu.obj
 0002:000204f0       ?ButtonAnimation@MyMenu@@QAE_NFF@Z 005344f0 f   MyMenu.obj
 0002:000205c0       ?hide@MyMenu@@QAEXXZ       005345c0 f   MyMenu.obj
 0002:00020610       ?setPriority@MyMenu@@QAEXG@Z 00534610 f   MyMenu.obj
 0002:00020680       ??0Numbers@@QAE@XZ         00534680 f   Numbers.obj
 0002:00020820       ??1Numbers@@QAE@XZ         00534820 f   Numbers.obj
 0002:00020910       ?useParentheses@Numbers@@QAEXXZ 00534910 f   Numbers.obj
 0002:00020940       ?initDefaultNumbers@Numbers@@QAEXXZ 00534940 f   Numbers.obj
 0002:00020a10       ?initThematicNumbers@Numbers@@QAEXQBD@Z 00534a10 f   Numbers.obj
 0002:00020b30       ?setData@Numbers@@QAEXQBD_N@Z 00534b30 f   Numbers.obj
 0002:00020eb0       ?setSize@Numbers@@QAEXMM@Z 00534eb0 f   Numbers.obj
 0002:00020fd0       ?setDigitData@Numbers@@QAEXFQAD@Z 00534fd0 f   Numbers.obj
 0002:00021150       ?setPriority@Numbers@@QAEXG@Z 00535150 f   Numbers.obj
 0002:00021280       ?setLocation@Numbers@@QAEXFMMMM@Z 00535280 f   Numbers.obj
 0002:00021530       ?display@Numbers@@QAEXFFMM@Z 00535530 f   Numbers.obj
 0002:00021710       ?display@Numbers@@QAEXFF@Z 00535710 f   Numbers.obj
 0002:000218d0       ?hide@Numbers@@QAEXFF@Z    005358d0 f   Numbers.obj
 0002:000219f0       ?changeImage@Numbers@@QAEXF@Z 005359f0 f   Numbers.obj
 0002:00021ac0       ?hideAll@Numbers@@QAEXXZ   00535ac0 f   Numbers.obj
 0002:00021b90       ?showAll@Numbers@@QAEX_N@Z 00535b90 f   Numbers.obj
 0002:00021de0       ?show@Numbers@@QAEXFF@Z    00535de0 f   Numbers.obj
 0002:00021ea0       ?getDigit@Numbers@@QAEFF@Z 00535ea0 f   Numbers.obj
 0002:00021f10       ?setDigit@Numbers@@QAEXFF@Z 00535f10 f   Numbers.obj
 0002:00021f90       ?getVisible@Numbers@@QAE_NXZ 00535f90 f   Numbers.obj
 0002:00021ff0       ?decrementValue@Numbers@@QAEXXZ 00535ff0 f   Numbers.obj
 0002:00022030       ?incrementValue@Numbers@@QAEXXZ 00536030 f   Numbers.obj
 0002:00022070       ?incrementTo@Numbers@@QAEXF_N@Z 00536070 f   Numbers.obj
 0002:000221c0       ?makeNegative@Numbers@@QAEXXZ 005361c0 f   Numbers.obj
 0002:00022230       ?makePositive@Numbers@@QAEXXZ 00536230 f   Numbers.obj
 0002:000222a0       ?getPositive@Numbers@@QAE_NXZ 005362a0 f   Numbers.obj
 0002:000222d0       ?setValue@Numbers@@QAEXF@Z 005362d0 f   Numbers.obj
 0002:00022410       ?getValue@Numbers@@QAEFXZ  00536410 f   Numbers.obj
 0002:00022440       ?setColor@Numbers@@QAEXGGGG@Z 00536440 f   Numbers.obj
 0002:00022560       ?isVisible@Numbers@@QAE_NXZ 00536560 f   Numbers.obj
 0002:000225d0       ?getX@Numbers@@QAEMF@Z     005365d0 f   Numbers.obj
 0002:00022680       ?getY@Numbers@@QAEMF@Z     00536680 f   Numbers.obj
 0002:00022730       ??0MyOptions@@QAE@XZ       00536730 f   MyOptions.obj
 0002:00022830       ??1MyOptions@@QAE@XZ       00536830 f   MyOptions.obj
 0002:00022930       ?setup@MyOptions@@QAEXPAVAnimatedSprite@@@Z 00536930 f   MyOptions.obj
 0002:00022f00       ?show@MyOptions@@QAEXF@Z   00536f00 f   MyOptions.obj
 0002:00022fc0       ?arrowAnimation@MyOptions@@QAE_NFF@Z 00536fc0 f   MyOptions.obj
 0002:00023040       ?mute@MyOptions@@QAEXXZ    00537040 f   MyOptions.obj
 0002:000230b0       ?unMute@MyOptions@@QAEXXZ  005370b0 f   MyOptions.obj
 0002:00023120       ?setPriority@MyOptions@@QAEXG@Z 00537120 f   MyOptions.obj
 0002:00023240       ?update@MyOptions@@QAEXXZ  00537240 f   MyOptions.obj
 0002:00023470       ??0ParentImage@@QAE@XZ     00537470 f   ParentImage.obj
 0002:000234c0       ??1ParentImage@@QAE@XZ     005374c0 f   ParentImage.obj
 0002:000234e0       ?isParentImageSet@ParentImage@@QAE_NXZ 005374e0 f   ParentImage.obj
 0002:00023520       ?isDifferent@ParentImage@@QAE_NQBD@Z 00537520 f   ParentImage.obj
 0002:00023590       ?setImage@ParentImage@@QAEXQBD@Z 00537590 f   ParentImage.obj
 0002:00023840       ?getImageNumber@ParentImage@@QAEIQBD@Z 00537840 f   ParentImage.obj
 0002:000238f0       ??0PinochleGame@@QAE@XZ    005378f0 f   PinochleGame.obj
 0002:000239e0       ?reset@PinochleGame@@QAEXXZ 005379e0 f   PinochleGame.obj
 0002:00023ac0       ?resetState@PinochleGame@@QAEXXZ 00537ac0 f   PinochleGame.obj
 0002:00023b60       ?resetGame@PinochleGame@@QAEXXZ 00537b60 f   PinochleGame.obj
 0002:00023c40       ?resetHand@PinochleGame@@QAEXXZ 00537c40 f   PinochleGame.obj
 0002:00023c90       ??1PinochleGame@@QAE@XZ    00537c90 f   PinochleGame.obj
 0002:00023cb0       ?getState@PinochleGame@@QAEFXZ 00537cb0 f   PinochleGame.obj
 0002:00023e40       ?isStateActive@PinochleGame@@QAE_NF@Z 00537e40 f   PinochleGame.obj
 0002:00024020       ?getSpecificAnimState@PinochleGame@@QAE_NXZ 00538020 f   PinochleGame.obj
 0002:00024050       ?toggleXState@PinochleGame@@QAEXF@Z 00538050 f   PinochleGame.obj
 0002:000242e0       ?getPrevState@PinochleGame@@QAEFXZ 005382e0 f   PinochleGame.obj
 0002:00024330       ?getAmountToSave@PinochleGame@@QAEGF@Z 00538330 f   PinochleGame.obj
 0002:00024370       ?determineAmountToGet@PinochleGame@@QAEXPAVPlayer@@000FFG@Z 00538370 f   PinochleGame.obj
 0002:00024550       ?checkForSaves@PinochleGame@@QAEXFFFG@Z 00538550 f   PinochleGame.obj
 0002:00024650       ?addToScore@PinochleGame@@QAEXFF@Z 00538650 f   PinochleGame.obj
 0002:000246c0       ?getScore@PinochleGame@@QAEFF@Z 005386c0 f   PinochleGame.obj
 0002:00024710       ?determineNewMeld@PinochleGame@@QAEFPAVPlayer@@F@Z 00538710 f   PinochleGame.obj
 0002:00024830       ?meldRun@PinochleGame@@QAEXPAVPlayer@@FF@Z 00538830 f   PinochleGame.obj
 0002:00024a50       ??0Player@@QAE@XZ          00538a50 f   Player.obj
 0002:00024c30       ?reset@Player@@QAEXXZ      00538c30 f   Player.obj
 0002:00024e10       ?getNumOfBids@Player@@QAEFXZ 00538e10 f   Player.obj
 0002:00024e30       ?resetKnown@Player@@QAEXXZ 00538e30 f   Player.obj
 0002:00024eb0       ?getSuitState@Player@@QAE_NF@Z 00538eb0 f   Player.obj
 0002:00024ee0       ?getRoundRobin@Player@@QAE_NXZ 00538ee0 f   Player.obj
 0002:00024f00       ?toggleSaveBid@Player@@QAEXXZ 00538f00 f   Player.obj
 0002:00024f30       ?getSaveBid@Player@@QAE_NXZ 00538f30 f   Player.obj
 0002:00024f50       ?incrementNumOfBids@Player@@QAEXXZ 00538f50 f   Player.obj
 0002:00024f80       ??1Player@@QAE@XZ          00538f80 f   Player.obj
 0002:00024fa0       ?setMeldBid@Player@@QAEXG@Z 00538fa0 f   Player.obj
 0002:00024fd0       ?getMeldBid@Player@@QAEFXZ 00538fd0 f   Player.obj
 0002:00025010       ?addToMeld@Player@@QAEXF@Z 00539010 f   Player.obj
 0002:00025050       ?clearHand@Player@@QAEXXZ  00539050 f   Player.obj
 0002:000250b0       ?clearMeld@Player@@QAEXXZ  005390b0 f   Player.obj
 0002:000250e0       ?dealToHand@Player@@QAEXPAF@Z 005390e0 f   Player.obj
 0002:00025150       ?incrementHandPlaceholder@Player@@QAEXXZ 00539150 f   Player.obj
 0002:00025180       ?getHandPlaceholder@Player@@QAEFXZ 00539180 f   Player.obj
 0002:000251a0       ?findCard@Player@@QAE_NF@Z 005391a0 f   Player.obj
 0002:00025210       ?getPMeld@Player@@QAEFXZ   00539210 f   Player.obj
 0002:00025230       ?removeCardFromHand@Player@@QAEXF@Z 00539230 f   Player.obj
 0002:00025280       ?getCard@Player@@QAEFF@Z   00539280 f   Player.obj
 0002:000252e0       ?getCardFromPlayerHand@Player@@QAEFFF@Z 005392e0 f   Player.obj
 0002:000253a0       ?getCardFromPlayerHand@Player@@QAEFF@Z 005393a0 f   Player.obj
 0002:00025410       ?sortHand@Player@@QAEXXZ   00539410 f   Player.obj
 0002:000254e0       ?getCardsInHand@Player@@QAEFXZ 005394e0 f   Player.obj
 0002:00025500       ?tabulateMeld@Player@@QAEXXZ 00539500 f   Player.obj
 0002:00025cb0       ?getDoubleRun@Player@@QAE_NXZ 00539cb0 f   Player.obj
 0002:00025cd0       ?setStrongestRun@Player@@QAEXF@Z 00539cd0 f   Player.obj
 0002:00025d00       ?getStrongestRun@Player@@QAEFXZ 00539d00 f   Player.obj
 0002:00025d20       ?getNumOfRuns@Player@@QAEFXZ 00539d20 f   Player.obj
 0002:00025dc0       ?getDoubleRunSuit@Player@@QAEFXZ 00539dc0 f   Player.obj
 0002:00025ee0       ?checkForRuns@Player@@QAEFF@Z 00539ee0 f   Player.obj
 0002:00025fd0       ?getRunInSuit@Player@@QAEFXZ 00539fd0 f   Player.obj
 0002:00025ff0       ?getRunSize@Player@@QAEFF@Z 00539ff0 f   Player.obj
 0002:000260a0       ?setStrongSuit@Player@@QAEXF@Z 0053a0a0 f   Player.obj
 0002:000260d0       ?getStrongSuit@Player@@QAEFXZ 0053a0d0 f   Player.obj
 0002:000260f0       ?checkForMarriage@Player@@QAE_NF@Z 0053a0f0 f   Player.obj
 0002:00026190       ?getSuitValue@Player@@QAEFF@Z 0053a190 f   Player.obj
 0002:00026240       ?getXAround@Player@@QAEFF@Z 0053a240 f   Player.obj
 0002:00026310       ?getNumOfPinochles@Player@@QAEFXZ 0053a310 f   Player.obj
 0002:00026370       ?getNumOfMarriages@Player@@QAEFF@Z 0053a370 f   Player.obj
 0002:00026470       ?minNumber@Player@@QAEFFF@Z 0053a470 f   Player.obj
 0002:000264b0       ?minNumber@Player@@QAEFFFFF@Z 0053a4b0 f   Player.obj
 0002:00026580       ?getNumOfCardsInRange@Player@@QAEFFF@Z 0053a580 f   Player.obj
 0002:00026710       ?getKnownOfSuit@Player@@QAEFF@Z 0053a710 f   Player.obj
 0002:00026820       ?getID@Player@@QAEFXZ      0053a820 f   Player.obj
 0002:00026840       ?setPlayerID@Player@@QAEXF@Z 0053a840 f   Player.obj
 0002:00026870       ?getNumOfAces@Player@@QAEFXZ 0053a870 f   Player.obj
 0002:00026890       ?setlastbid@Player@@QAEXG@Z 0053a890 f   Player.obj
 0002:000268c0       ?getlastbid@Player@@QAEGXZ 0053a8c0 f   Player.obj
 0002:000268e0       ??0Sound@@QAE@XZ           0053a8e0 f   Sound.obj
 0002:00026910       ??1Sound@@QAE@XZ           0053a910 f   Sound.obj
 0002:00026940       ?setFileName@Sound@@QAEXQBD@Z 0053a940 f   Sound.obj
 0002:00026970       ?playOnce@Sound@@QAEXXZ    0053a970 f   Sound.obj
 0002:000269c0       ?playLoop@Sound@@QAEXXZ    0053a9c0 f   Sound.obj
 0002:00026a00       ?stop@Sound@@QAEXXZ        0053aa00 f   Sound.obj
 0002:00026a30       ?exists@Sound@@QAE_NXZ     0053aa30 f   Sound.obj
 0002:00026a70       ?setMasterVolume@Sound@@QAEXG@Z 0053aa70 f   Sound.obj
 0002:00026ab0       ?isPlaying@Sound@@QAE_NXZ  0053aab0 f   Sound.obj
 0002:00026af0       ??0Sprite@@QAE@XZ          0053aaf0 f   Sprite.obj
 0002:00026b70       ??4Sprite@@QAEAAV0@ABV0@@Z 0053ab70 f   Sprite.obj
 0002:00026c00       ?setData@Sprite@@QAEXQBD0@Z 0053ac00 f   Sprite.obj
 0002:00026e20       ?setData@Sprite@@QAEXGQBD@Z 0053ae20 f   Sprite.obj
 0002:00026ee0       ?setImageNumber@Sprite@@QAEXI@Z 0053aee0 f   Sprite.obj
 0002:00026f20       ?setData@Sprite@@QAEXQAGQBD@Z 0053af20 f   Sprite.obj
 0002:00026fe0       ?moveSprite@Sprite@@QAEXMM@Z 0053afe0 f   Sprite.obj
 0002:00027020       ??1Sprite@@QAE@XZ          0053b020 f   Sprite.obj
 0002:00027040       ?setPriority@Sprite@@QAEXG@Z 0053b040 f   Sprite.obj
 0002:00027090       ?display@Sprite@@QAEXMM@Z  0053b090 f   Sprite.obj
 0002:000270f0       ?setImprint@Sprite@@QAEXMM@Z 0053b0f0 f   Sprite.obj
 0002:00027120       ?getImprintX@Sprite@@QAEMXZ 0053b120 f   Sprite.obj
 0002:00027140       ?getImprintY@Sprite@@QAEMXZ 0053b140 f   Sprite.obj
 0002:00027160       ?display@Sprite@@QAEXXZ    0053b160 f   Sprite.obj
 0002:000271d0       ?hasShrunk@Sprite@@QAE_NXZ 0053b1d0 f   Sprite.obj
 0002:000271f0       ?isShrinking@Sprite@@QAE_NXZ 0053b1f0 f   Sprite.obj
 0002:00027210       ?isMoving@Sprite@@QAE_NXZ  0053b210 f   Sprite.obj
 0002:00027230       ?moveOnScreen@Sprite@@QAEXF@Z 0053b230 f   Sprite.obj
 0002:00027550       ?moveOffScreen@Sprite@@QAEXF@Z 0053b550 f   Sprite.obj
 0002:00027870       ?updateShrinkClose@Sprite@@QAEXF@Z 0053b870 f   Sprite.obj
 0002:00027b00       ?updateGrowOpen@Sprite@@QAEXMM@Z 0053bb00 f   Sprite.obj
 0002:00027f70       ?getScaleSize@Sprite@@QAEMXZ 0053bf70 f   Sprite.obj
 0002:00027f90       ?getScaleSizeY@Sprite@@QAEMXZ 0053bf90 f   Sprite.obj
 0002:00027fb0       ?hasGrown@Sprite@@QAE_NXZ  0053bfb0 f   Sprite.obj
 0002:00027fd0       ?isGrowing@Sprite@@QAE_NXZ 0053bfd0 f   Sprite.obj
 0002:00027ff0       ?changeImage@Sprite@@QAEXG@Z 0053bff0 f   Sprite.obj
 0002:00028090       ?changeImage@Sprite@@QAEXQAD0@Z 0053c090 f   Sprite.obj
 0002:000280c0       ?offset@Sprite@@QAEXMM@Z   0053c0c0 f   Sprite.obj
 0002:00028120       ?show@Sprite@@QAEXXZ       0053c120 f   Sprite.obj
 0002:000281d0       ?isValid@Sprite@@QAE_NXZ   0053c1d0 f   Sprite.obj
 0002:00028210       ?isVisible@Sprite@@QAE_NXZ 0053c210 f   Sprite.obj
 0002:000282e0       ?hide@Sprite@@QAEXXZ       0053c2e0 f   Sprite.obj
 0002:00028360       ?getImageNumber@Sprite@@QAEGXZ 0053c360 f   Sprite.obj
 0002:00028380       ?getSpriteNumber@Sprite@@QAEGXZ 0053c380 f   Sprite.obj
 0002:000283a0       ?getX@Sprite@@QAEMXZ       0053c3a0 f   Sprite.obj
 0002:000283d0       ?getY@Sprite@@QAEMXZ       0053c3d0 f   Sprite.obj
 0002:00028400       ?setSize@Sprite@@QAEXM_N@Z 0053c400 f   Sprite.obj
 0002:00028490       ?setSize@Sprite@@QAEXMM_N@Z 0053c490 f   Sprite.obj
 0002:00028510       ?setTransparency@Sprite@@QAEXGH@Z 0053c510 f   Sprite.obj
 0002:00028540       ?setAlpha@Sprite@@QAEXG@Z  0053c540 f   Sprite.obj
 0002:00028580       ?getSizeY@Sprite@@QAEMXZ   0053c580 f   Sprite.obj
 0002:000285b0       ?changeColor@Sprite@@QAEXGGGG@Z 0053c5b0 f   Sprite.obj
 0002:00028600       ?flipSprite@Sprite@@QAEXXZ 0053c600 f   Sprite.obj
 0002:00028640       ?Begin@app@@QAEXXZ         0053c640 f   template.obj
 0002:00028730       ?Loop@app@@QAEXXZ          0053c730 f   template.obj
 0002:00029250       ?End@app@@QAEXXZ           0053d250 f   template.obj
 0002:00029310       ?resetGame@app@@AAEX_N@Z   0053d310 f   template.obj
 0002:00029490       ?setSoundData@app@@AAEXXZ  0053d490 f   template.obj
 0002:00029670       ?loadSteeleLogo@app@@AAEXXZ 0053d670 f   template.obj
 0002:000296f0       ?initSteeleLogo@app@@AAEXXZ 0053d6f0 f   template.obj
 0002:000297d0       ?fadeSteeleLogo@app@@AAEXXZ 0053d7d0 f   template.obj
 0002:00029850       ?loadLoadScreen@app@@AAEXXZ 0053d850 f   template.obj
 0002:00029910       ??_GSprite@@QAEPAXI@Z      0053d910 f i template.obj
 0002:00029960       ?handleMenu@app@@AAEXXZ    0053d960 f   template.obj
 0002:00029d40       ?handleInGameMenu@app@@AAEXXZ 0053dd40 f   template.obj
 0002:0002a0a0       ?setThemeOptionImage@app@@AAEXQAD@Z 0053e0a0 f   template.obj
 0002:0002a1c0       ?handleOptions@app@@AAEX_N@Z 0053e1c0 f   template.obj
 0002:0002abd0       ?handleInGameOptions@app@@AAEXXZ 0053ebd0 f   template.obj
 0002:0002b410       ?getThemeDir@app@@AAEXFQAD@Z 0053f410 f   template.obj
 0002:0002b510       ?changeTheme@app@@AAE_NF_N@Z 0053f510 f   template.obj
 0002:0002b730       ?handleStart@app@@AAEXXZ   0053f730 f   template.obj
 0002:0002bb80       ?handleDealing@app@@AAEXXZ 0053fb80 f   template.obj
 0002:0002bd50       ?handleAnimation@app@@AAEXXZ 0053fd50 f   template.obj
 0002:0002c770       ?handleSorting@app@@AAEXXZ 00540770 f   template.obj
 0002:0002ca00       ?handleBidding@app@@AAEXXZ 00540a00 f   template.obj
 0002:0002e870       ?handleMelding@app@@AAEXXZ 00542870 f   template.obj
 0002:00030090       ?handlePlaying@app@@AAEXXZ 00544090 f   template.obj
 0002:00031280       ?handleScoreboard@app@@AAEXXZ 00545280 f   template.obj
 0002:00032b00       ?handleLoading@app@@AAEXXZ 00546b00 f   template.obj
 0002:00032cf0       ?testScale@app@@AAEXXZ     00546cf0 f   template.obj
 0002:00032d10       ?writePlayerData@app@@AAEXGVPlayer@@@Z 00546d10 f   template.obj
 0002:00033040       ?formatPlayerData@app@@AAEXG@Z 00547040 f   template.obj
 0002:00033180       ?formatDeckData@app@@AAEXG@Z 00547180 f   template.obj
 0002:00033240       ?formatScores@app@@AAEXG@Z 00547240 f   template.obj
 0002:00033310       ?formatBids@app@@AAEXG@Z   00547310 f   template.obj
 0002:00033490       ?formatMelds@app@@AAEXG@Z  00547490 f   template.obj
 0002:000334b0       ?formatGame@app@@AAEXG@Z   005474b0 f   template.obj
 0002:00033730       ?parseFile@app@@AAEXXZ     00547730 f   template.obj
 0002:00034260       ?reDeal@app@@AAEXXZ        00548260 f   template.obj
 0002:000346e0       ?parsePlayerData@app@@AAE?AV?$basic_string@DU?$char_traits@D@std@@V?$allocator@D@2@@std@@GPAVPlayer@@@Z 005486e0 f   template.obj
 0002:000347a0       ?doEndGameSwitch@app@@AAEXGF@Z 005487a0 f   template.obj
 0002:000347f0       ?initLoadScreen@app@@AAEXXZ 005487f0 f   template.obj
 0002:00034a30       ?initSprites@app@@AAEXXZ   00548a30 f   template.obj
 0002:00034a70       ?initNumbers@app@@AAEXXZ   00548a70 f   template.obj
 0002:00034a90       ?finalSetup@app@@AAEXXZ    00548a90 f   template.obj
 0002:00035520       ??_GText@@QAEPAXI@Z        00549520 f i template.obj
 0002:00035570       ?setAnimatedSpriteData@app@@AAEXXZ 00549570 f   template.obj
 0002:00035810       ?setSpriteData@app@@AAEXXZ 00549810 f   template.obj
 0002:00035bb0       ?setNumberData@app@@AAEXXZ 00549bb0 f   template.obj
 0002:00035bd0       ?fileLoc@app@@AAEPADQBDQAD@Z 00549bd0 f   template.obj
 0002:00035c70       ?myLoadImage@app@@AAEGQBDG@Z 00549c70 f   template.obj
 0002:00035d50       ?initDisplay@app@@AAEXXZ   00549d50 f   template.obj
 0002:00035d70       ?initVars@app@@AAEXXZ      00549d70 f   template.obj
 0002:00035f70       ?toggleLayout@@YAXPAVSprite@@@Z 00549f70 f   template.obj
 0002:00036040       ?toggleDebug@@YAXXZ        0054a040 f   template.obj
 0002:00036070       ?displayKnown@app@@AAEFH@Z 0054a070 f   template.obj
 0002:00036640       ?updateTopLeft@app@@AAEXXZ 0054a640 f   template.obj
 0002:00036a20       ?updateTopRight@app@@AAEXXZ 0054aa20 f   template.obj
 0002:00036bc0       ?updateBottomLeft@app@@AAEXXZ 0054abc0 f   template.obj
 0002:00036df0       ?findTargetX@@YA?BMF@Z     0054adf0 f   template.obj
 0002:00036e70       ?findTargetY@@YA?BMF@Z     0054ae70 f   template.obj
 0002:00036ef0       ?displayAllKnown@app@@AAEXXZ 0054aef0 f   template.obj
 0002:00036f10       ?displayPlayerControlBubble@app@@AAEXXZ 0054af10 f   template.obj
 0002:00037390       ?southBid@app@@AAE_NXZ     0054b390 f   template.obj
 0002:00037dd0       ?southTrumpSelection@app@@AAEXXZ 0054bdd0 f   template.obj
 0002:00038220       ?resetHand@app@@AAEXXZ     0054c220 f   template.obj
 0002:00038430       ?inGameMenuButton@app@@AAEXXZ 0054c430 f   template.obj
 0002:00038650       ?hideAllText@app@@AAEXXZ   0054c650 f   template.obj
 0002:00038740       ?growBackground@app@@AAEXXZ 0054c740 f   template.obj
 0002:000388a0       ?showAllCards@app@@AAEXXZ  0054c8a0 f   template.obj
 0002:00038900       ?findValueForDebugging@app@@AAEXM@Z 0054c900 f   template.obj
 0002:00038930       ?addToQueue@@YAXIF@Z       0054c930 f   template.obj
 0002:00038980       ?clearQueue@app@@AAEXPAVAnimatedSprite@@F@Z 0054c980 f   template.obj
 0002:00038a20       ?initQueue@@YAXXZ          0054ca20 f   template.obj
 0002:00038a50       ??0?$basic_string@DU?$char_traits@D@std@@V?$allocator@D@2@@std@@QAE@XZ 0054ca50 f i template.obj
 0002:00038ae0       ??0?$basic_string@DU?$char_traits@D@std@@V?$allocator@D@2@@std@@QAE@PBD@Z 0054cae0 f i template.obj
 0002:00038b80       ??0?$basic_string@DU?$char_traits@D@std@@V?$allocator@D@2@@std@@QAE@$$QAV01@@Z 0054cb80 f i template.obj
 0002:00038c40       ??4?$basic_string@DU?$char_traits@D@std@@V?$allocator@D@2@@std@@QAEAAV01@$$QAV01@@Z 0054cc40 f i template.obj
 0002:00038c80       ??1?$basic_string@DU?$char_traits@D@std@@V?$allocator@D@2@@std@@QAE@XZ 0054cc80 f i template.obj
 0002:00038d00       ??4?$basic_string@DU?$char_traits@D@std@@V?$allocator@D@2@@std@@QAEAAV01@PBD@Z 0054cd00 f i template.obj
 0002:00038d30       ?assign@?$basic_string@DU?$char_traits@D@std@@V?$allocator@D@2@@std@@QAEAAV12@$$QAV12@@Z 0054cd30 f i template.obj
 0002:00038e50       ?move@?$char_traits@D@std@@SAPADPADPBDI@Z 0054ce50 f i template.obj
 0002:00038e80       ?assign@?$basic_string@DU?$char_traits@D@std@@V?$allocator@D@2@@std@@QAEAAV12@PBD@Z 0054ce80 f i template.obj
 0002:00038ee0       ?length@?$char_traits@D@std@@SAIPBD@Z 0054cee0 f i template.obj
 0002:00038f10       ?_Tidy@?$basic_string@DU?$char_traits@D@std@@V?$allocator@D@2@@std@@QAEX_NI@Z 0054cf10 f i template.obj
 0002:00038fb0       ?copy@?$char_traits@D@std@@SAPADPADPBDI@Z 0054cfb0 f i template.obj
 0002:00038fe0       ??0?$_String_val@DV?$allocator@D@std@@@std@@QAE@V?$allocator@D@1@@Z 0054cfe0 f i template.obj
 0002:000390c0       ??0_Container_proxy@std@@QAE@XZ 0054d0c0 f i template.obj
 0002:00039100       ??0_Container_base12@std@@QAE@XZ 0054d100 f i template.obj
 0002:00039130       ??1_Container_base12@std@@QAE@XZ 0054d130 f i template.obj
 0002:00039160       ?_Orphan_all@_Container_base12@std@@QAEXXZ 0054d160 f i template.obj
 0002:000391f0       ??1?$_String_val@DV?$allocator@D@std@@@std@@QAE@XZ 0054d1f0 f i template.obj
 0002:000392b0       ??0?$allocator@D@std@@QAE@XZ 0054d2b0 f i template.obj
 0002:000392d0       ??0?$allocator@D@std@@QAE@ABV01@@Z 0054d2d0 f i template.obj
 0002:000392f0       ??4?$basic_string@DU?$char_traits@D@std@@V?$allocator@D@2@@std@@QAEAAV01@ABV01@@Z 0054d2f0 f i template.obj
 0002:00039320       ?assign@?$basic_string@DU?$char_traits@D@std@@V?$allocator@D@2@@std@@QAEAAV12@PBDI@Z 0054d320 f i template.obj
 0002:000393f0       ?get_allocator@?$basic_string@DU?$char_traits@D@std@@V?$allocator@D@2@@std@@QBE?AV?$allocator@D@2@XZ 0054d3f0 f i template.obj
 0002:00039420       ?_Eos@?$basic_string@DU?$char_traits@D@std@@V?$allocator@D@2@@std@@QAEXI@Z 0054d420 f i template.obj
 0002:00039470       ?assign@?$char_traits@D@std@@SAXAADABD@Z 0054d470 f i template.obj
 0002:00039490       ?_Myptr@?$basic_string@DU?$char_traits@D@std@@V?$allocator@D@2@@std@@QAEPADXZ 0054d490 f i template.obj
 0002:000394d0       ?deallocate@?$allocator@D@std@@QAEXPADI@Z 0054d4d0 f i template.obj
 0002:00039500       ?deallocate@?$allocator@U_Container_proxy@std@@@std@@QAEXPAU_Container_proxy@2@I@Z 0054d500 f i template.obj
 0002:00039530       ?allocate@?$allocator@U_Container_proxy@std@@@std@@QAEPAU_Container_proxy@2@I@Z 0054d530 f i template.obj
 0002:00039560       ?assign@?$basic_string@DU?$char_traits@D@std@@V?$allocator@D@2@@std@@QAEAAV12@ABV12@@Z 0054d560 f i template.obj
 0002:000395a0       ?assign@?$basic_string@DU?$char_traits@D@std@@V?$allocator@D@2@@std@@QAEAAV12@ABV12@II@Z 0054d5a0 f i template.obj
 0002:00039690       ?size@?$basic_string@DU?$char_traits@D@std@@V?$allocator@D@2@@std@@QBEIXZ 0054d690 f i template.obj
 0002:000396b0       ?_Myptr@?$basic_string@DU?$char_traits@D@std@@V?$allocator@D@2@@std@@QBEPBDXZ 0054d6b0 f i template.obj
 0002:000396f0       ?_Xran@?$basic_string@DU?$char_traits@D@std@@V?$allocator@D@2@@std@@QBEXXZ 0054d6f0 f i template.obj
 0002:00039720       ?_Grow@?$basic_string@DU?$char_traits@D@std@@V?$allocator@D@2@@std@@QAE_NI_N@Z 0054d720 f i template.obj
 0002:000397f0       ?_Inside@?$basic_string@DU?$char_traits@D@std@@V?$allocator@D@2@@std@@QAE_NPBD@Z 0054d7f0 f i template.obj
 0002:00039850       ?_Xlen@?$basic_string@DU?$char_traits@D@std@@V?$allocator@D@2@@std@@QBEXXZ 0054d850 f i template.obj
 0002:00039880       ?erase@?$basic_string@DU?$char_traits@D@std@@V?$allocator@D@2@@std@@QAEAAV12@II@Z 0054d880 f i template.obj
 0002:00039940       ?max_size@?$basic_string@DU?$char_traits@D@std@@V?$allocator@D@2@@std@@QBEIXZ 0054d940 f i template.obj
 0002:00039990       ?_Copy@?$basic_string@DU?$char_traits@D@std@@V?$allocator@D@2@@std@@QAEXII@Z 0054d990 f i template.obj
 0002:00039b80       ?allocate@?$allocator@D@std@@QAEPADI@Z 0054db80 f i template.obj
 0002:00039bb0       ?max_size@?$allocator@D@std@@QBEIXZ 0054dbb0 f i template.obj
 0002:00039bf0       ??$?8DU?$char_traits@D@std@@V?$allocator@D@1@@std@@YA_NABV?$basic_string@DU?$char_traits@D@std@@V?$allocator@D@2@@0@PBD@Z 0054dbf0 f i template.obj
 0002:00039c20       ?compare@?$basic_string@DU?$char_traits@D@std@@V?$allocator@D@2@@std@@QBEHPBD@Z 0054dc20 f i template.obj
 0002:00039c80       ?compare@?$basic_string@DU?$char_traits@D@std@@V?$allocator@D@2@@std@@QBEHIIPBDI@Z 0054dc80 f i template.obj
 0002:00039d80       ?compare@?$char_traits@D@std@@SAHPBD0I@Z 0054dd80 f i template.obj
 0002:00039db0       ??$forward@V?$allocator@D@std@@@std@@YA$$QAV?$allocator@D@0@AAV10@@Z 0054ddb0 f i template.obj
 0002:00039dd0       ??$forward@V?$basic_string@DU?$char_traits@D@std@@V?$allocator@D@2@@std@@@std@@YA$$QAV?$basic_string@DU?$char_traits@D@std@@V?$allocator@D@2@@0@AAV10@@Z 0054ddd0 f i template.obj
 0002:00039df0       ??$_Debug_pointer@D@std@@YAXPBDPB_WI@Z 0054ddf0 f i template.obj
 0002:00039e30       ??$?9DD@std@@YA_NABV?$allocator@D@0@0@Z 0054de30 f i template.obj
 0002:00039e70       ??$?0D@?$allocator@U_Container_proxy@std@@@std@@QAE@ABV?$allocator@D@1@@Z 0054de70 f i template.obj
 0002:00039e90       ??$_Cons_val@V?$allocator@U_Container_proxy@std@@@std@@U_Container_proxy@2@U32@@std@@YAXAAV?$allocator@U_Container_proxy@std@@@0@PAU_Container_proxy@0@$$QAU20@@Z 0054de90 f i template.obj
 0002:00039ed0       ??$_Dest_val@V?$allocator@U_Container_proxy@std@@@std@@U_Container_proxy@2@@std@@YAXAAV?$allocator@U_Container_proxy@std@@@0@PAU_Container_proxy@0@@Z 0054ded0 f i template.obj
 0002:00039f00       ??$_Allocate@U_Container_proxy@std@@@std@@YAPAU_Container_proxy@0@IPAU10@@Z 0054df00 f i template.obj
 0002:00039f80       ??0bad_alloc@std@@QAE@PBD@Z 0054df80 f i template.obj
 0002:00039fc0       ??1bad_alloc@std@@UAE@XZ   0054dfc0 f i template.obj
 0002:00039ff0       ??_Ebad_alloc@std@@UAEPAXI@Z 0054dff0 f i template.obj
 0002:00039ff0       ??_Gbad_alloc@std@@UAEPAXI@Z 0054dff0 f i template.obj
 0002:0003a040       ??$_Allocate@D@std@@YAPADIPAD@Z 0054e040 f i template.obj
 0002:0003a0c0       ??0bad_alloc@std@@QAE@ABV01@@Z 0054e0c0 f i template.obj
 0002:0003a100       ?construct@?$allocator@U_Container_proxy@std@@@std@@QAEXPAU_Container_proxy@2@$$QAU32@@Z 0054e100 f i template.obj
 0002:0003a1c0       ??2@YAPAXIPAX@Z            0054e1c0 f i template.obj
 0002:0003a1e0       ??3@YAXPAX0@Z              0054e1e0 f i template.obj
 0002:0003a200       ?destroy@?$allocator@U_Container_proxy@std@@@std@@QAEXPAU_Container_proxy@2@@Z 0054e200 f i template.obj
 0002:0003a230       ??$?8DD@std@@YA_NABV?$allocator@D@0@0@Z 0054e230 f i template.obj
 0002:0003a250       ??$forward@U_Container_proxy@std@@@std@@YA$$QAU_Container_proxy@0@AAU10@@Z 0054e250 f i template.obj
 0002:0003a270       ??$_Destroy@U_Container_proxy@std@@@std@@YAXPAU_Container_proxy@0@@Z 0054e270 f i template.obj
 0002:0003a290       ??0app@@QAE@XZ             0054e290 f i template.obj
 0002:0003a750       ??1app@@QAE@XZ             0054e750 f i template.obj
 0002:0003abf0       ??0Text@@QAE@XZ            0054ebf0 f   Text.obj
 0002:0003ac70       ??1Text@@QAE@XZ            0054ec70 f   Text.obj
 0002:0003ac90       ?setId@Text@@QAEXG@Z       0054ec90 f   Text.obj
 0002:0003ace0       ?deleteT@Text@@QAEXXZ      0054ece0 f   Text.obj
 0002:0003ad10       ?createT@Text@@QAEXQBD@Z   0054ed10 f   Text.obj
 0002:0003adb0       ?size@Text@@QAEXM@Z        0054edb0 f   Text.obj
 0002:0003adf0       ?font@Text@@QAEXG@Z        0054edf0 f   Text.obj
 0002:0003ae30       ?position@Text@@QAEXMM@Z   0054ee30 f   Text.obj
 0002:0003ae80       ?color@Text@@QAEXGGG@Z     0054ee80 f   Text.obj
 0002:0003af00       ?show@Text@@QAEXXZ         0054ef00 f   Text.obj
 0002:0003af40       ?hide@Text@@QAEXXZ         0054ef40 f   Text.obj
 0002:0003af80       ?changeText@Text@@QAEXQBD@Z 0054ef80 f   Text.obj
 0002:0003afc0       ?changeText@Text@@QAEXH@Z  0054efc0 f   Text.obj
 0002:0003b020       ?setDepth@Text@@QAEXG@Z    0054f020 f   Text.obj
 0002:0003b070       ?getID@Text@@QAEGXZ        0054f070 f   Text.obj
 0002:0003b0a0       ?centerText@Text@@QAEXXZ   0054f0a0 f   Text.obj
 0002:0003b0e0       ?leftText@Text@@QAEXXZ     0054f0e0 f   Text.obj
 0002:0003b120       ?rightText@Text@@QAEXXZ    0054f120 f   Text.obj
 0002:0003b160       ?getX@Text@@QAEMXZ         0054f160 f   Text.obj
 0002:0003b190       ?getY@Text@@QAEMXZ         0054f190 f   Text.obj
 0002:0003b1c0       ?isVisible@Text@@QAE_NXZ   0054f1c0 f   Text.obj
 0002:0003b200       ?incrementColor@Text@@QAEXXZ 0054f200 f   Text.obj
 0002:0003b350       ??0Theme@@QAE@XZ           0054f350 f   Theme.obj
 0002:0003b580       ??1Theme@@QAE@XZ           0054f580 f   Theme.obj
 0002:0003b790       ?setup@Theme@@QAEXPAVAnimatedSprite@@QADFM@Z 0054f790 f   Theme.obj
 0002:0003c1b0       ?initNumbers@Theme@@QAEXXZ 005501b0 f   Theme.obj
 0002:0003c380       ?setNumberPrio@Theme@@QAEXXZ 00550380 f   Theme.obj
 0002:0003c4a0       ?setNumberLoc@Theme@@QAEXXZ 005504a0 f   Theme.obj
 0002:0003d410       ?setSizeNumbers@Theme@@QAEXXZ 00551410 f   Theme.obj
 0002:0003d6e0       ?setNumberData@Theme@@QAEXXZ 005516e0 f   Theme.obj
 0002:0003d830       ?show@Theme@@QAEXF@Z       00551830 f   Theme.obj
 0002:0003da80       ?hide@Theme@@QAEXXZ        00551a80 f   Theme.obj
 0002:0003dc00       ?isSetup@Theme@@QAE_NXZ    00551c00 f   Theme.obj
 0002:0003dc30       ??0TrickGame@@QAE@XZ       00551c30 f   TrickGame.obj
 0002:0003dd10       ??1TrickGame@@QAE@XZ       00551d10 f   TrickGame.obj
 0002:0003dd30       ?reset@TrickGame@@QAEXXZ   00551d30 f   TrickGame.obj
 0002:0003de00       ?setLead@TrickGame@@QAEXF@Z 00551e00 f   TrickGame.obj
 0002:0003de40       ?getTrumpSuit@TrickGame@@QAEFXZ 00551e40 f   TrickGame.obj
 0002:0003de60       ?setTrumpSuit@TrickGame@@QAEXF@Z 00551e60 f   TrickGame.obj
 0002:0003de90       ?getLead@TrickGame@@QAEFXZ 00551e90 f   TrickGame.obj
 0002:0003deb0       ?getTrickCounter@TrickGame@@QAEFXZ 00551eb0 f   TrickGame.obj
 0002:0003ded0       ?setLeadSuit@TrickGame@@QAEXF@Z 00551ed0 f   TrickGame.obj
 0002:0003df00       ?getLeadSuit@TrickGame@@QAEFXZ 00551f00 f   TrickGame.obj
 0002:0003df20       ?getNumOfCardsLeft@TrickGame@@QAEFFF@Z 00551f20 f   TrickGame.obj
 0002:0003dfd0       ?updateTrump@TrickGame@@QAEXF@Z 00551fd0 f   TrickGame.obj
 0002:0003e010       ?getTopRank@TrickGame@@QAEFXZ 00552010 f   TrickGame.obj
 0002:0003e030       ?getTopSuit@TrickGame@@QAEFXZ 00552030 f   TrickGame.obj
 0002:0003e050       ?setTopRank@TrickGame@@QAEXF@Z 00552050 f   TrickGame.obj
 0002:0003e080       ?setTopSuit@TrickGame@@QAEXF@Z 00552080 f   TrickGame.obj
 0002:0003e0b0       ?getTricksPlayed@TrickGame@@QAEFXZ 005520b0 f   TrickGame.obj
 0002:0003e0d0       ?playedCard@TrickGame@@QAEXFVPlayer@@@Z 005520d0 f   TrickGame.obj
 0002:0003e320       ?tallyTrick@TrickGame@@QAEXXZ 00552320 f   TrickGame.obj
 0002:0003e3c0       ?getHTricks@TrickGame@@QAEFXZ 005523c0 f   TrickGame.obj
 0002:0003e3e0       ?getVTricks@TrickGame@@QAEFXZ 005523e0 f   TrickGame.obj
 0002:0003e400       ?lastTrick@TrickGame@@QAEXF@Z 00552400 f   TrickGame.obj
 0002:0003e460       ?followLead@TrickGame@@QAEFPAVPlayer@@FF_N1F@Z 00552460 f   TrickGame.obj
 0002:0003f5e0       ?playCard@TrickGame@@QAEFPAVPlayer@@V2@11FF@Z 005535e0 f   TrickGame.obj
 0002:0003fed0       ?findRank@TrickGame@@QAEFF_N@Z 00553ed0 f   TrickGame.obj
 0002:0003ff60       ?potentialTrickValue@TrickGame@@QAEFPAVPlayer@@V2@11FF@Z 00553f60 f   TrickGame.obj
 0002:00040520       ?potPlays@TrickGame@@QAEFVPlayer@@0PAV2@0FFPA_NPAF_NF@Z 00554520 f   TrickGame.obj
 0002:00040f10       ?startTrick@TrickGame@@QAEFPAVPlayer@@V2@11@Z 00554f10 f   TrickGame.obj
 0002:00042160       ?buildDecisionTree@TrickGame@@QAEXXZ 00556160 f   TrickGame.obj
 0002:000421f0       ?addBulkPoints@TrickGame@@QAEXFF@Z 005561f0 f   TrickGame.obj
 0002:00042250       ??0TrumpSelect@@QAE@XZ     00556250 f   TrumpSelect.obj
 0002:00042330       ??1TrumpSelect@@QAE@XZ     00556330 f   TrumpSelect.obj
 0002:00042410       ?setup@TrumpSelect@@QAEXPAVAnimatedSprite@@QBD@Z 00556410 f   TrumpSelect.obj
 0002:000425a0       ?show@TrumpSelect@@QAEXXZ  005565a0 f   TrumpSelect.obj
 0002:00042610       ?hide@TrumpSelect@@QAEXXZ  00556610 f   TrumpSelect.obj
 0002:00042680       ?setSize@TrumpSelect@@QAEXMM@Z 00556680 f   TrumpSelect.obj
 0002:00042750       ?setPriority@TrumpSelect@@QAEXG@Z 00556750 f   TrumpSelect.obj
 0002:000427f0       ?display@TrumpSelect@@QAEXMM@Z 005567f0 f   TrumpSelect.obj
 0002:000428c0       ?animation@TrumpSelect@@QAE_NFF@Z 005568c0 f   TrumpSelect.obj
 0002:00042990       ?AddNewFile@cFileEntry@AGK@@SAXPBD@Z 00556990 f   AGKWindows:Wrapper.obj
 0002:00042ab0       ?ConvertToReal@cFileEntry@AGK@@SAXAAVuString@2@@Z 00556ab0 f   AGKWindows:Wrapper.obj
 0002:00042b90       ?ClearAll@cFileEntry@AGK@@SAXXZ 00556b90 f   AGKWindows:Wrapper.obj
 0002:00042c10       ?SetAppName@agk@AGK@@SAXPBD@Z 00556c10 f   AGKWindows:Wrapper.obj
 0002:00042db0       ?SetFakeDeviceName@agk@AGK@@SAXPAD@Z 00556db0 f   AGKWindows:Wrapper.obj
 0002:00042dd0       ?RestoreWriteDir@agk@AGK@@SAXXZ 00556dd0 f   AGKWindows:Wrapper.obj
 0002:00042df0       ?MasterReset@agk@AGK@@SAXXZ 00556df0 f   AGKWindows:Wrapper.obj
 0002:00043840       ?TouchPressed@agk@AGK@@SAXIHH@Z 00557840 f   AGKWindows:Wrapper.obj
 0002:00043b60       ?TouchMoved@agk@AGK@@SAXIHH@Z 00557b60 f   AGKWindows:Wrapper.obj
 0002:00043c10       ?TouchReleased@agk@AGK@@SAXIHH@Z 00557c10 f   AGKWindows:Wrapper.obj
 0002:00043cc0       ?MouseLeftButton@agk@AGK@@SAXIH@Z 00557cc0 f   AGKWindows:Wrapper.obj
 0002:000440b0       ?MouseRightButton@agk@AGK@@SAXIH@Z 005580b0 f   AGKWindows:Wrapper.obj
 0002:00044190       ?MouseMove@agk@AGK@@SAXIHH@Z 00558190 f   AGKWindows:Wrapper.obj
 0002:000442b0       ?SetMultiTouchExist@agk@AGK@@SAX_N@Z 005582b0 f   AGKWindows:Wrapper.obj
 0002:000442c0       ?SetMouseExist@agk@AGK@@SAX_N@Z 005582c0 f   AGKWindows:Wrapper.obj
 0002:000442d0       ?SetJoystickExist@agk@AGK@@SAX_N@Z 005582d0 f   AGKWindows:Wrapper.obj
 0002:000442e0       ?SetKeyboardExist@agk@AGK@@SAX_N@Z 005582e0 f   AGKWindows:Wrapper.obj
 0002:000442f0       ?SetAccelerometerExist@agk@AGK@@SAX_N@Z 005582f0 f   AGKWindows:Wrapper.obj
 0002:00044300       ?Accelerometer@agk@AGK@@SAXMMM@Z 00558300 f   AGKWindows:Wrapper.obj
 0002:00044320       ?KeyDown@agk@AGK@@SAXI@Z   00558320 f   AGKWindows:Wrapper.obj
 0002:00044400       ?KeyUp@agk@AGK@@SAXI@Z     00558400 f   AGKWindows:Wrapper.obj
 0002:000444f0       ?CharDown@agk@AGK@@SAXI@Z  005584f0 f   AGKWindows:Wrapper.obj
 0002:00044520       ?JoystickAxis@agk@AGK@@SAXPAXHHM@Z 00558520 f   AGKWindows:Wrapper.obj
 0002:000446b0       ?JoystickButton@agk@AGK@@SAXPAXHH@Z 005586b0 f   AGKWindows:Wrapper.obj
 0002:00044730       ?ScreenToDeviceX@agk@AGK@@SAHM@Z 00558730 f   AGKWindows:Wrapper.obj
 0002:00044790       ?ScreenToDeviceY@agk@AGK@@SAHM@Z 00558790 f   AGKWindows:Wrapper.obj
 0002:000447f0       ?DeviceToScreenX@agk@AGK@@SAMH@Z 005587f0 f   AGKWindows:Wrapper.obj
 0002:00044850       ?DeviceToScreenY@agk@AGK@@SAMH@Z 00558850 f   AGKWindows:Wrapper.obj
 0002:000448b0       ?ScreenToViewportX@agk@AGK@@SAHM@Z 005588b0 f   AGKWindows:Wrapper.obj
 0002:00044900       ?ScreenToViewportY@agk@AGK@@SAHM@Z 00558900 f   AGKWindows:Wrapper.obj
 0002:00044950       ?ViewportToScreenX@agk@AGK@@SAMH@Z 00558950 f   AGKWindows:Wrapper.obj
 0002:00044990       ?ViewportToScreenY@agk@AGK@@SAMH@Z 00558990 f   AGKWindows:Wrapper.obj
 0002:000449e0       ?RotatePointX@agk@AGK@@SAMMM@Z 005589e0 f   AGKWindows:Wrapper.obj
 0002:00044ab0       ?RotatePointY@agk@AGK@@SAMMM@Z 00558ab0 f   AGKWindows:Wrapper.obj
 0002:00044b80       ?WorldToScreenX@agk@AGK@@SAMM@Z 00558b80 f   AGKWindows:Wrapper.obj
 0002:00044c20       ?WorldToScreenY@agk@AGK@@SAMM@Z 00558c20 f   AGKWindows:Wrapper.obj
 0002:00044cc0       ?ScreenToWorldX@agk@AGK@@SAMM@Z 00558cc0 f   AGKWindows:Wrapper.obj
 0002:00044d50       ?ScreenToWorldY@agk@AGK@@SAMM@Z 00558d50 f   AGKWindows:Wrapper.obj
 0002:00044de0       ?DeviceVolume@agk@AGK@@SAXH@Z 00558de0 f   AGKWindows:Wrapper.obj
 0002:00044e20       ?HandleMusicEvents@agk@AGK@@SAXI@Z 00558e20 f   AGKWindows:Wrapper.obj
 0002:00044e60       ?SetResolutionMode@agk@AGK@@SAXH@Z 00558e60 f   AGKWindows:Wrapper.obj
 0002:00044e90       ?InitGL@agk@AGK@@SAXPAX@Z  00558e90 f   AGKWindows:Wrapper.obj
 0002:000455c0       ?DestroyGL@agk@AGK@@SAXXZ  005595c0 f   AGKWindows:Wrapper.obj
 0002:000455e0       ?ResetAllStates@agk@AGK@@SAXXZ 005595e0 f   AGKWindows:Wrapper.obj
 0002:000457c0       ?SetSyncRate@agk@AGK@@SAXMH@Z 005597c0 f   AGKWindows:Wrapper.obj
 0002:00045810       ?CreateDefaultImage@agk@AGK@@KAXPBDIPAI@Z 00559810 f   AGKWindows:Wrapper.obj
 0002:00045940       ?CleanUp@agk@AGK@@SAXXZ    00559940 f   AGKWindows:Wrapper.obj
 0002:000459e0       ?OrientationChanged@agk@AGK@@SAXH@Z 005599e0 f   AGKWindows:Wrapper.obj
 0002:00045af0       ?CanOrientationChange@agk@AGK@@SAHH@Z 00559af0 f   AGKWindows:Wrapper.obj
 0002:00045b90       ?Resumed@agk@AGK@@SAXH@Z   00559b90 f   AGKWindows:Wrapper.obj
 0002:00045bb0       ?SetOrientationAllowed@agk@AGK@@SAXHHHH@Z 00559bb0 f   AGKWindows:Wrapper.obj
 0002:00045d50       ?SetTransitionMode@agk@AGK@@SAXH@Z 00559d50 f   AGKWindows:Wrapper.obj
 0002:00045d70       ?RecalculateDisplay@agk@AGK@@KAXXZ 00559d70 f   AGKWindows:Wrapper.obj
 0002:00045fb0       ?SetDisplayAspect@agk@AGK@@SAXM@Z 00559fb0 f   AGKWindows:Wrapper.obj
 0002:00046050       ?GetCL@agk@AGK@@SAPADXZ    0055a050 f   AGKWindows:Wrapper.obj
 0002:000460b0       ?SetScissor@agk@AGK@@SAXMMMM@Z 0055a0b0 f   AGKWindows:Wrapper.obj
 0002:00046210       ?GetDeviceWidth@agk@AGK@@SAHXZ 0055a210 f   AGKWindows:Wrapper.obj
 0002:00046230       ?GetRealDeviceWidth@agk@AGK@@SAHXZ 0055a230 f   AGKWindows:Wrapper.obj
 0002:00046240       ?SetFakeDeviceWidth@agk@AGK@@SAXH@Z 0055a240 f   AGKWindows:Wrapper.obj
 0002:00046250       ?GetDeviceHeight@agk@AGK@@SAHXZ 0055a250 f   AGKWindows:Wrapper.obj
 0002:00046270       ?GetRealDeviceHeight@agk@AGK@@SAHXZ 0055a270 f   AGKWindows:Wrapper.obj
 0002:00046280       ?SetFakeDeviceHeight@agk@AGK@@SAXH@Z 0055a280 f   AGKWindows:Wrapper.obj
 0002:00046290       ?UpdatePhysicsWalls@agk@AGK@@KAXXZ 0055a290 f   AGKWindows:Wrapper.obj
 0002:000467a0       ?ResetScissor@agk@AGK@@KAXXZ 0055a7a0 f   AGKWindows:Wrapper.obj
 0002:000467d0       ?SetVirtualResolution@agk@AGK@@SAXHH@Z 0055a7d0 f   AGKWindows:Wrapper.obj
 0002:00046880       ?UpdateDeviceSize@agk@AGK@@SAXII@Z 0055a880 f   AGKWindows:Wrapper.obj
 0002:00046920       ?GetVirtualWidth@agk@AGK@@SAHXZ 0055a920 f   AGKWindows:Wrapper.obj
 0002:00046930       ?GetVirtualHeight@agk@AGK@@SAHXZ 0055a930 f   AGKWindows:Wrapper.obj
 0002:00046940       ?GetScreenBoundsLeft@agk@AGK@@SAMXZ 0055a940 f   AGKWindows:Wrapper.obj
 0002:00046970       ?GetScreenBoundsRight@agk@AGK@@SAMXZ 0055a970 f   AGKWindows:Wrapper.obj
 0002:000469b0       ?GetScreenBoundsTop@agk@AGK@@SAMXZ 0055a9b0 f   AGKWindows:Wrapper.obj
 0002:000469e0       ?GetScreenBoundsBottom@agk@AGK@@SAMXZ 0055a9e0 f   AGKWindows:Wrapper.obj
 0002:00046a20       ?GetDisplayAspect@agk@AGK@@SAMXZ 0055aa20 f   AGKWindows:Wrapper.obj
 0002:00046a30       ?GetOrientation@agk@AGK@@SAHXZ 0055aa30 f   AGKWindows:Wrapper.obj
 0002:00046a40       ?GetResumed@agk@AGK@@SAHXZ 0055aa40 f   AGKWindows:Wrapper.obj
 0002:00046a70       ?BindDefaultFramebuffer@agk@AGK@@SAXXZ 0055aa70 f   AGKWindows:Wrapper.obj
 0002:00046aa0       ?SetDefaultMagFilter@agk@AGK@@SAXI@Z 0055aaa0 f   AGKWindows:Wrapper.obj
 0002:00046ac0       ?SetDefaultMinFilter@agk@AGK@@SAXI@Z 0055aac0 f   AGKWindows:Wrapper.obj
 0002:00046ae0       ?SetDefaultWrapU@agk@AGK@@SAXI@Z 0055aae0 f   AGKWindows:Wrapper.obj
 0002:00046b00       ?SetDefaultWrapV@agk@AGK@@SAXI@Z 0055ab00 f   AGKWindows:Wrapper.obj
 0002:00046b20       ?SetViewOffset@agk@AGK@@SAXMM@Z 0055ab20 f   AGKWindows:Wrapper.obj
 0002:00046b70       ?SetViewZoom@agk@AGK@@SAXM@Z 0055ab70 f   AGKWindows:Wrapper.obj
 0002:00046bd0       ?SetViewZoomMode@agk@AGK@@SAXH@Z 0055abd0 f   AGKWindows:Wrapper.obj
 0002:00046bf0       ?GetViewOffsetX@agk@AGK@@SAMXZ 0055abf0 f   AGKWindows:Wrapper.obj
 0002:00046c00       ?GetViewOffsetY@agk@AGK@@SAMXZ 0055ac00 f   AGKWindows:Wrapper.obj
 0002:00046c10       ?GetViewZoom@agk@AGK@@SAMXZ 0055ac10 f   AGKWindows:Wrapper.obj
 0002:00046c20       ?Sync@agk@AGK@@SAXXZ       0055ac20 f   AGKWindows:Wrapper.obj
 0002:00046c50       ?Break@agk@AGK@@SAXXZ      0055ac50 f   AGKWindows:Wrapper.obj
 0002:00046c60       ?StepPhysics@agk@AGK@@SAXM@Z 0055ac60 f   AGKWindows:Wrapper.obj
 0002:00046f10       ?Update@agk@AGK@@SAXM@Z    0055af10 f   AGKWindows:Wrapper.obj
 0002:00047610       ?Render@agk@AGK@@SAXXZ     0055b610 f   AGKWindows:Wrapper.obj
 0002:000479f0       ?Render3D@agk@AGK@@SAXXZ   0055b9f0 f   AGKWindows:Wrapper.obj
 0002:00047a00       ?Swap@agk@AGK@@SAXXZ       0055ba00 f   AGKWindows:Wrapper.obj
 0002:00047b90       ?ClearScreen@agk@AGK@@SAXXZ 0055bb90 f   AGKWindows:Wrapper.obj
 0002:00047bb0       ?ClearDepthBuffer@agk@AGK@@SAXXZ 0055bbb0 f   AGKWindows:Wrapper.obj
 0002:00047bd0       ?SetAlphaTestThreshold@agk@AGK@@SAXI@Z 0055bbd0 f   AGKWindows:Wrapper.obj
 0002:00047c20       ?SetGenerateMipmaps@agk@AGK@@SAXH@Z 0055bc20 f   AGKWindows:Wrapper.obj
 0002:00047c40       ?Timer@agk@AGK@@SAMXZ      0055bc40 f   AGKWindows:Wrapper.obj
 0002:00047c70       ?ResetTimer@agk@AGK@@SAXXZ 0055bc70 f   AGKWindows:Wrapper.obj
 0002:00047cb0       ?GetRunTime@agk@AGK@@SAMXZ 0055bcb0 f   AGKWindows:Wrapper.obj
 0002:00047ce0       ?GetSeconds@agk@AGK@@SAHXZ 0055bce0 f   AGKWindows:Wrapper.obj
 0002:00047d20       ?GetFrameTime@agk@AGK@@SAMXZ 0055bd20 f   AGKWindows:Wrapper.obj
 0002:00047d30       ?GetMilliseconds@agk@AGK@@SAIXZ 0055bd30 f   AGKWindows:Wrapper.obj
 0002:00047d50       ?SetRandomSeed@agk@AGK@@SAXI@Z 0055bd50 f   AGKWindows:Wrapper.obj
 0002:00047d60       ?Random@agk@AGK@@SAIXZ     0055bd60 f   AGKWindows:Wrapper.obj
 0002:00047d90       ?Random@agk@AGK@@SAIII@Z   0055bd90 f   AGKWindows:Wrapper.obj
 0002:00047dd0       ?RandomSign@agk@AGK@@SAHH@Z 0055bdd0 f   AGKWindows:Wrapper.obj
 0002:00047e10       ?ATanFull@agk@AGK@@SAMMM@Z 0055be10 f   AGKWindows:Wrapper.obj
 0002:00047f80       ?ATanFullRad@agk@AGK@@SAMMM@Z 0055bf80 f   AGKWindows:Wrapper.obj
 0002:000480f0       ?SetSortTextures@agk@AGK@@SAXH@Z 0055c0f0 f   AGKWindows:Wrapper.obj
 0002:00048120       ?SetSortDepth@agk@AGK@@SAXH@Z 0055c120 f   AGKWindows:Wrapper.obj
 0002:00048150       ?SetSortTransparentDepth@agk@AGK@@SAXH@Z 0055c150 f   AGKWindows:Wrapper.obj
 0002:00048180       ?SetSortCreated@agk@AGK@@SAXH@Z 0055c180 f   AGKWindows:Wrapper.obj
 0002:000481a0       ?ScreenFPS@agk@AGK@@SAMXZ  0055c1a0 f   AGKWindows:Wrapper.obj
 0002:000481b0       ?EnableClearDepth@agk@AGK@@SAXI@Z 0055c1b0 f   AGKWindows:Wrapper.obj
 0002:000481d0       ?EnableClearColor@agk@AGK@@SAXI@Z 0055c1d0 f   AGKWindows:Wrapper.obj
 0002:000481f0       ?SetBorderColor@agk@AGK@@SAXIII@Z 0055c1f0 f   AGKWindows:Wrapper.obj
 0002:00048240       ?SetClearColor@agk@AGK@@SAXIII@Z 0055c240 f   AGKWindows:Wrapper.obj
 0002:00048290       ?GetImagePtr@agk@AGK@@SAPAVcImage@2@I@Z 0055c290 f   AGKWindows:Wrapper.obj
 0002:000482c0       ?LoadImage@agk@AGK@@SAXIPBDH@Z 0055c2c0 f   AGKWindows:Wrapper.obj
 0002:000484f0       ?LoadImage@agk@AGK@@SAXIPBD@Z 0055c4f0 f   AGKWindows:Wrapper.obj
 0002:00048510       ?LoadImage@agk@AGK@@SAIPBDH@Z 0055c510 f   AGKWindows:Wrapper.obj
 0002:000486b0       ?LoadImage@agk@AGK@@SAIPBD@Z 0055c6b0 f   AGKWindows:Wrapper.obj
 0002:000486d0       ?LoadSubImage@agk@AGK@@SAXIIPBD@Z 0055c6d0 f   AGKWindows:Wrapper.obj
 0002:000489f0       ?LoadSubImage@agk@AGK@@SAIIPBD@Z 0055c9f0 f   AGKWindows:Wrapper.obj
 0002:00048b20       ?GetImageExists@agk@AGK@@SAII@Z 0055cb20 f   AGKWindows:Wrapper.obj
 0002:00048b50       ?DeleteImage@agk@AGK@@SAXI@Z 0055cb50 f   AGKWindows:Wrapper.obj
 0002:00048bc0       ?GetImageWidth@agk@AGK@@SAMI@Z 0055cbc0 f   AGKWindows:Wrapper.obj
 0002:00048c10       ?GetImageHeight@agk@AGK@@SAMI@Z 0055cc10 f   AGKWindows:Wrapper.obj
 0002:00048c60       ?SetImageMinFilter@agk@AGK@@SAXII@Z 0055cc60 f   AGKWindows:Wrapper.obj
 0002:00048ca0       ?SetImageMagFilter@agk@AGK@@SAXII@Z 0055cca0 f   AGKWindows:Wrapper.obj
 0002:00048ce0       ?SetImageWrapU@agk@AGK@@SAXII@Z 0055cce0 f   AGKWindows:Wrapper.obj
 0002:00048d20       ?SetImageWrapV@agk@AGK@@SAXII@Z 0055cd20 f   AGKWindows:Wrapper.obj
 0002:00048d60       ?SetImageMask@agk@AGK@@SAXIIHHHH@Z 0055cd60 f   AGKWindows:Wrapper.obj
 0002:00048fc0       ?SaveImage@agk@AGK@@SAXIPBD@Z 0055cfc0 f   AGKWindows:Wrapper.obj
 0002:00049100       ?GetImage@agk@AGK@@SAIMMMM@Z 0055d100 f   AGKWindows:Wrapper.obj
 0002:00049210       ?GetImage@agk@AGK@@SAXIMMMM@Z 0055d210 f   AGKWindows:Wrapper.obj
 0002:00049470       ?GetImageFilename@agk@AGK@@SAPADI@Z 0055d470 f   AGKWindows:Wrapper.obj
 0002:000495d0       ?CopyImage@agk@AGK@@SAIIHHHH@Z 0055d5d0 f   AGKWindows:Wrapper.obj
 0002:000496d0       ?CopyImage@agk@AGK@@SAXIIHHHH@Z 0055d6d0 f   AGKWindows:Wrapper.obj
 0002:000499c0       ?ChooseImage@agk@AGK@@SAIXZ 0055d9c0 f   AGKWindows:Wrapper.obj
 0002:000499e0       ?ShowChooseImageScreen@agk@AGK@@SAIXZ 0055d9e0 f   AGKWindows:Wrapper.obj
 0002:00049a70       ?ChooseInternal@agk@AGK@@SAXH@Z 0055da70 f   AGKWindows:Wrapper.obj
 0002:00049af0       ?IsChoosingImage@agk@AGK@@SAIXZ 0055daf0 f   AGKWindows:Wrapper.obj
 0002:00049b00       ?GetChosenImage@agk@AGK@@SAIXZ 0055db00 f   AGKWindows:Wrapper.obj
 0002:00049c30       ?ShowImageCaptureScreen@agk@AGK@@SAIXZ 0055dc30 f   AGKWindows:Wrapper.obj
 0002:00049c80       ?CaptureImage@agk@AGK@@SAXXZ 0055dc80 f   AGKWindows:Wrapper.obj
 0002:00049e20       ?CaptureInternal@agk@AGK@@SAXH@Z 0055de20 f   AGKWindows:Wrapper.obj
 0002:00049e60       ?CancelCapture@agk@AGK@@SAXXZ 0055de60 f   AGKWindows:Wrapper.obj
 0002:00049e80       ?IsCapturingImage@agk@AGK@@SAIXZ 0055de80 f   AGKWindows:Wrapper.obj
 0002:00049e90       ?GetCapturedImage@agk@AGK@@SAIXZ 0055de90 f   AGKWindows:Wrapper.obj
 0002:00049ed0       ?DecodeQRCode@agk@AGK@@SAPADI@Z 0055ded0 f   AGKWindows:Wrapper.obj
 0002:0004a070       ?EncodeQRCode@agk@AGK@@SAIPBDH@Z 0055e070 f   AGKWindows:Wrapper.obj
 0002:0004a200       ?PrintImage@agk@AGK@@SAXIM@Z 0055e200 f   AGKWindows:Wrapper.obj
 0002:0004a330       ?GetSpritePtr@agk@AGK@@SAPAVcSprite@2@I@Z 0055e330 f   AGKWindows:Wrapper.obj
 0002:0004a430       ?GetSpriteImageID@agk@AGK@@SAII@Z 0055e430 f   AGKWindows:Wrapper.obj
 0002:0004a550       ?CreateSprite@agk@AGK@@SAXII@Z 0055e550 f   AGKWindows:Wrapper.obj
 0002:0004a790       ?CreateSprite@agk@AGK@@SAII@Z 0055e790 f   AGKWindows:Wrapper.obj
 0002:0004a970       ?LoadSprite@agk@AGK@@SAIPBD@Z 0055e970 f   AGKWindows:Wrapper.obj
 0002:0004ab00       ?LoadSprite@agk@AGK@@SAXIPBD@Z 0055eb00 f   AGKWindows:Wrapper.obj
 0002:0004acf0       ?CloneSprite@agk@AGK@@SAXII@Z 0055ecf0 f   AGKWindows:Wrapper.obj
 0002:0004aec0       ?CloneSprite@agk@AGK@@SAII@Z 0055eec0 f   AGKWindows:Wrapper.obj
 0002:0004b030       ?CreateDummySprite@agk@AGK@@SAXI@Z 0055f030 f   AGKWindows:Wrapper.obj
 0002:0004b1d0       ?CreateDummySprite@agk@AGK@@SAIXZ 0055f1d0 f   AGKWindows:Wrapper.obj
 0002:0004b310       ?GetSpriteExists@agk@AGK@@SAII@Z 0055f310 f   AGKWindows:Wrapper.obj
 0002:0004b340       ?DeleteSprite@agk@AGK@@SAXI@Z 0055f340 f   AGKWindows:Wrapper.obj
 0002:0004b3c0       ?SetSpriteImage@agk@AGK@@SAXII@Z 0055f3c0 f   AGKWindows:Wrapper.obj
 0002:0004b3e0       ?SetSpriteImage@agk@AGK@@SAXIIH@Z 0055f3e0 f   AGKWindows:Wrapper.obj
 0002:0004b570       ?SetSpriteUV@agk@AGK@@SAXIMMMMMMMM@Z 0055f570 f   AGKWindows:Wrapper.obj
 0002:0004b6a0       ?ResetSpriteUV@agk@AGK@@SAXI@Z 0055f6a0 f   AGKWindows:Wrapper.obj
 0002:0004b790       ?SetSpritePosition@agk@AGK@@SAXIMM@Z 0055f790 f   AGKWindows:Wrapper.obj
 0002:0004b890       ?SetSpritePositionByOffset@agk@AGK@@SAXIMM@Z 0055f890 f   AGKWindows:Wrapper.obj
 0002:0004b990       ?SetSpriteX@agk@AGK@@SAXIM@Z 0055f990 f   AGKWindows:Wrapper.obj
 0002:0004ba90       ?SetSpriteY@agk@AGK@@SAXIM@Z 0055fa90 f   AGKWindows:Wrapper.obj
 0002:0004bb90       ?SetSpriteAngle@agk@AGK@@SAXIM@Z 0055fb90 f   AGKWindows:Wrapper.obj
 0002:0004bc90       ?SetSpriteAngleRad@agk@AGK@@SAXIM@Z 0055fc90 f   AGKWindows:Wrapper.obj
 0002:0004bd90       ?SetSpriteDepth@agk@AGK@@SAXIH@Z 0055fd90 f   AGKWindows:Wrapper.obj
 0002:0004be90       ?SetSpriteFlip@agk@AGK@@SAXIHH@Z 0055fe90 f   AGKWindows:Wrapper.obj
 0002:0004bf90       ?SetSpriteSnap@agk@AGK@@SAXIH@Z 0055ff90 f   AGKWindows:Wrapper.obj
 0002:0004c090       ?SetSpriteVisible@agk@AGK@@SAXIH@Z 00560090 f   AGKWindows:Wrapper.obj
 0002:0004c190       ?SetSpriteActive@agk@AGK@@SAXIH@Z 00560190 f   AGKWindows:Wrapper.obj
 0002:0004c290       ?GetSpriteX@agk@AGK@@SAMI@Z 00560290 f   AGKWindows:Wrapper.obj
 0002:0004c390       ?GetSpriteY@agk@AGK@@SAMI@Z 00560390 f   AGKWindows:Wrapper.obj
 0002:0004c490       ?GetSpriteXByOffset@agk@AGK@@SAMI@Z 00560490 f   AGKWindows:Wrapper.obj
 0002:0004c590       ?GetSpriteYByOffset@agk@AGK@@SAMI@Z 00560590 f   AGKWindows:Wrapper.obj
 0002:0004c690       ?GetSpriteWidth@agk@AGK@@SAMI@Z 00560690 f   AGKWindows:Wrapper.obj
 0002:0004c790       ?GetSpriteAngle@agk@AGK@@SAMI@Z 00560790 f   AGKWindows:Wrapper.obj
 0002:0004c890       ?GetSpriteAngleRad@agk@AGK@@SAMI@Z 00560890 f   AGKWindows:Wrapper.obj
 0002:0004c990       ?GetSpriteHeight@agk@AGK@@SAMI@Z 00560990 f   AGKWindows:Wrapper.obj
 0002:0004ca90       ?GetSpriteHitTest@agk@AGK@@SAHIMM@Z 00560a90 f   AGKWindows:Wrapper.obj
 0002:0004cbb0       ?GetSpriteHit@agk@AGK@@SAHMM@Z 00560bb0 f   AGKWindows:Wrapper.obj
 0002:0004cc60       ?GetSpriteHitGroup@agk@AGK@@SAHHMM@Z 00560c60 f   AGKWindows:Wrapper.obj
 0002:0004cd20       ?GetSpriteHitCategory@agk@AGK@@SAHIMM@Z 00560d20 f   AGKWindows:Wrapper.obj
 0002:0004cde0       ?GetSpriteDepth@agk@AGK@@SAHI@Z 00560de0 f   AGKWindows:Wrapper.obj
 0002:0004cee0       ?GetSpriteColorRed@agk@AGK@@SAII@Z 00560ee0 f   AGKWindows:Wrapper.obj
 0002:0004cfe0       ?GetSpriteColorGreen@agk@AGK@@SAII@Z 00560fe0 f   AGKWindows:Wrapper.obj
 0002:0004d0e0       ?GetSpriteColorBlue@agk@AGK@@SAII@Z 005610e0 f   AGKWindows:Wrapper.obj
 0002:0004d1e0       ?GetSpriteColorAlpha@agk@AGK@@SAII@Z 005611e0 f   AGKWindows:Wrapper.obj
 0002:0004d2e0       ?GetSpritePlaying@agk@AGK@@SAHI@Z 005612e0 f   AGKWindows:Wrapper.obj
 0002:0004d3e0       ?GetSpriteVisible@agk@AGK@@SAHI@Z 005613e0 f   AGKWindows:Wrapper.obj
 0002:0004d4e0       ?GetSpriteActive@agk@AGK@@SAHI@Z 005614e0 f   AGKWindows:Wrapper.obj
 0002:0004d5e0       ?GetSpriteGroup@agk@AGK@@SAHI@Z 005615e0 f   AGKWindows:Wrapper.obj
 0002:0004d6e0       ?GetSpriteXFromPixel@agk@AGK@@SAMIH@Z 005616e0 f   AGKWindows:Wrapper.obj
 0002:0004d7e0       ?GetSpriteYFromPixel@agk@AGK@@SAMIH@Z 005617e0 f   AGKWindows:Wrapper.obj
 0002:0004d8e0       ?GetSpritePixelFromX@agk@AGK@@SAHIM@Z 005618e0 f   AGKWindows:Wrapper.obj
 0002:0004d9f0       ?GetSpritePixelFromY@agk@AGK@@SAHIM@Z 005619f0 f   AGKWindows:Wrapper.obj
 0002:0004db00       ?SetSpriteSize@agk@AGK@@SAXIMM@Z 00561b00 f   AGKWindows:Wrapper.obj
 0002:0004dc00       ?SetSpriteAnimation@agk@AGK@@SAXIHHH@Z 00561c00 f   AGKWindows:Wrapper.obj
 0002:0004dd00       ?AddSpriteAnimationFrame@agk@AGK@@SAXII@Z 00561d00 f   AGKWindows:Wrapper.obj
 0002:0004de70       ?ClearSpriteAnimationFrames@agk@AGK@@SAXI@Z 00561e70 f   AGKWindows:Wrapper.obj
 0002:0004df60       ?SetSpriteSpeed@agk@AGK@@SAXIM@Z 00561f60 f   AGKWindows:Wrapper.obj
 0002:0004e060       ?PlaySprite@agk@AGK@@SAXI@Z 00562060 f   AGKWindows:Wrapper.obj
 0002:0004e090       ?PlaySprite@agk@AGK@@SAXIM@Z 00562090 f   AGKWindows:Wrapper.obj
 0002:0004e0c0       ?PlaySprite@agk@AGK@@SAXIMH@Z 005620c0 f   AGKWindows:Wrapper.obj
 0002:0004e0f0       ?PlaySprite@agk@AGK@@SAXIMHHH@Z 005620f0 f   AGKWindows:Wrapper.obj
 0002:0004e200       ?StopSprite@agk@AGK@@SAXI@Z 00562200 f   AGKWindows:Wrapper.obj
 0002:0004e2f0       ?ResumeSprite@agk@AGK@@SAXI@Z 005622f0 f   AGKWindows:Wrapper.obj
 0002:0004e3e0       ?SetSpriteFrame@agk@AGK@@SAXIH@Z 005623e0 f   AGKWindows:Wrapper.obj
 0002:0004e4e0       ?GetSpriteCurrentFrame@agk@AGK@@SAHI@Z 005624e0 f   AGKWindows:Wrapper.obj
 0002:0004e5e0       ?GetSpriteFrameCount@agk@AGK@@SAHI@Z 005625e0 f   AGKWindows:Wrapper.obj
 0002:0004e6e0       ?SetSpriteTransparency@agk@AGK@@SAXIH@Z 005626e0 f   AGKWindows:Wrapper.obj
 0002:0004e7e0       ?SetSpriteOffset@agk@AGK@@SAXIMM@Z 005627e0 f   AGKWindows:Wrapper.obj
 0002:0004e8e0       ?SetSpriteColor@agk@AGK@@SAXIHHHH@Z 005628e0 f   AGKWindows:Wrapper.obj
 0002:0004e9e0       ?SetSpriteColorRed@agk@AGK@@SAXIH@Z 005629e0 f   AGKWindows:Wrapper.obj
 0002:0004eae0       ?SetSpriteColorGreen@agk@AGK@@SAXIH@Z 00562ae0 f   AGKWindows:Wrapper.obj
 0002:0004ebe0       ?SetSpriteColorBlue@agk@AGK@@SAXIH@Z 00562be0 f   AGKWindows:Wrapper.obj
 0002:0004ece0       ?SetSpriteColorAlpha@agk@AGK@@SAXIH@Z 00562ce0 f   AGKWindows:Wrapper.obj
 0002:0004ede0       ?SetSpriteUVBorder@agk@AGK@@SAXIM@Z 00562de0 f   AGKWindows:Wrapper.obj
 0002:0004eee0       ?SetSpriteUVOffset@agk@AGK@@SAXIMM@Z 00562ee0 f   AGKWindows:Wrapper.obj
 0002:0004efe0       ?SetSpriteUVScale@agk@AGK@@SAXIMM@Z 00562fe0 f   AGKWindows:Wrapper.obj
 0002:0004f0e0       ?FixSpriteToScreen@agk@AGK@@SAXIH@Z 005630e0 f   AGKWindows:Wrapper.obj
 0002:0004f1e0       ?SetSpriteScale@agk@AGK@@SAXIMM@Z 005631e0 f   AGKWindows:Wrapper.obj
 0002:0004f2e0       ?SetSpriteScaleByOffset@agk@AGK@@SAXIMM@Z 005632e0 f   AGKWindows:Wrapper.obj
 0002:0004f3e0       ?SetSpriteScissor@agk@AGK@@SAXIMMMM@Z 005633e0 f   AGKWindows:Wrapper.obj
 0002:0004f4f0       ?DrawSprite@agk@AGK@@SAXI@Z 005634f0 f   AGKWindows:Wrapper.obj
 0002:0004f5e0       ?SetPhysicsScale@agk@AGK@@SAXM@Z 005635e0 f   AGKWindows:Wrapper.obj
 0002:0004f620       ?SetPhysicsGravity@agk@AGK@@SAXMM@Z 00563620 f   AGKWindows:Wrapper.obj
 0002:0004f6d0       ?SetPhysicsDebugOn@agk@AGK@@SAXXZ 005636d0 f   AGKWindows:Wrapper.obj
 0002:0004f6e0       ?SetPhysicsDebugOff@agk@AGK@@SAXXZ 005636e0 f   AGKWindows:Wrapper.obj
 0002:0004f6f0       ?SetPhysicsMaxPolygonPoints@agk@AGK@@SAXH@Z 005636f0 f   AGKWindows:Wrapper.obj
 0002:0004f720       ?GetPhysicsWorld@agk@AGK@@SAPAVb2World@@XZ 00563720 f   AGKWindows:Wrapper.obj
 0002:0004f730       ?SetPhysicsWallTop@agk@AGK@@SAXH@Z 00563730 f   AGKWindows:Wrapper.obj
 0002:0004f900       ?SetPhysicsWallLeft@agk@AGK@@SAXH@Z 00563900 f   AGKWindows:Wrapper.obj
 0002:0004fad0       ?SetPhysicsWallRight@agk@AGK@@SAXH@Z 00563ad0 f   AGKWindows:Wrapper.obj
 0002:0004fcb0       ?SetPhysicsWallBottom@agk@AGK@@SAXH@Z 00563cb0 f   AGKWindows:Wrapper.obj
 0002:0004fe90       ?CreatePhysicsForce@agk@AGK@@SAIMMMMMH@Z 00563e90 f   AGKWindows:Wrapper.obj
 0002:0004fff0       ?DeletePhysicsForce@agk@AGK@@SAXI@Z 00563ff0 f   AGKWindows:Wrapper.obj
 0002:00050060       ?SetPhysicsForcePosition@agk@AGK@@SAXIMM@Z 00564060 f   AGKWindows:Wrapper.obj
 0002:00050150       ?SetPhysicsForcePower@agk@AGK@@SAXIM@Z 00564150 f   AGKWindows:Wrapper.obj
 0002:00050230       ?SetPhysicsForceRange@agk@AGK@@SAXIM@Z 00564230 f   AGKWindows:Wrapper.obj
 0002:00050310       ?SetSpriteShape@agk@AGK@@SAXIH@Z 00564310 f   AGKWindows:Wrapper.obj
 0002:000504b0       ?SetSpriteShapeBox@agk@AGK@@SAXIMMMMM@Z 005644b0 f   AGKWindows:Wrapper.obj
 0002:000505c0       ?SetSpriteShapeCircle@agk@AGK@@SAXIMMM@Z 005645c0 f   AGKWindows:Wrapper.obj
 0002:000506d0       ?SetSpriteShapePolygon@agk@AGK@@SAXIIIMM@Z 005646d0 f   AGKWindows:Wrapper.obj
 0002:000507e0       ?AddSpriteShapeBox@agk@AGK@@SAXIMMMMM@Z 005647e0 f   AGKWindows:Wrapper.obj
 0002:000508f0       ?AddSpriteShapeCircle@agk@AGK@@SAXIMMM@Z 005648f0 f   AGKWindows:Wrapper.obj
 0002:00050a00       ?AddSpriteShapePolygon@agk@AGK@@SAXIIIMM@Z 00564a00 f   AGKWindows:Wrapper.obj
 0002:00050b10       ?ClearSpriteShapes@agk@AGK@@SAXI@Z 00564b10 f   AGKWindows:Wrapper.obj
 0002:00050c00       ?SetSpritePhysicsCOM@agk@AGK@@SAXIMM@Z 00564c00 f   AGKWindows:Wrapper.obj
 0002:00050d00       ?CalculateSpritePhysicsCOM@agk@AGK@@SAXI@Z 00564d00 f   AGKWindows:Wrapper.obj
 0002:00050df0       ?SetSpritePhysicsOn@agk@AGK@@SAXIH@Z 00564df0 f   AGKWindows:Wrapper.obj
 0002:00050f70       ?SetSpritePhysicsOff@agk@AGK@@SAXI@Z 00564f70 f   AGKWindows:Wrapper.obj
 0002:00051060       ?SetSpritePhysicsDelete@agk@AGK@@SAXI@Z 00565060 f   AGKWindows:Wrapper.obj
 0002:00051150       ?SetSpritePhysicsFriction@agk@AGK@@SAXIM@Z 00565150 f   AGKWindows:Wrapper.obj
 0002:000512b0       ?SetSpritePhysicsRestitution@agk@AGK@@SAXIM@Z 005652b0 f   AGKWindows:Wrapper.obj
 0002:00051410       ?SetSpritePhysicsCanRotate@agk@AGK@@SAXIH@Z 00565410 f   AGKWindows:Wrapper.obj
 0002:00051570       ?SetSpritePhysicsVelocity@agk@AGK@@SAXIMM@Z 00565570 f   AGKWindows:Wrapper.obj
 0002:000516e0       ?SetSpritePhysicsAngularVelocity@agk@AGK@@SAXIM@Z 005656e0 f   AGKWindows:Wrapper.obj
 0002:00051840       ?SetSpritePhysicsDamping@agk@AGK@@SAXIM@Z 00565840 f   AGKWindows:Wrapper.obj
 0002:000519a0       ?SetSpritePhysicsAngularDamping@agk@AGK@@SAXIM@Z 005659a0 f   AGKWindows:Wrapper.obj
 0002:00051b00       ?SetSpritePhysicsIsBullet@agk@AGK@@SAXIH@Z 00565b00 f   AGKWindows:Wrapper.obj
 0002:00051c60       ?SetSpritePhysicsMass@agk@AGK@@SAXIM@Z 00565c60 f   AGKWindows:Wrapper.obj
 0002:00051dc0       ?SetSpritePhysicsIsSensor@agk@AGK@@SAXIH@Z 00565dc0 f   AGKWindows:Wrapper.obj
 0002:00051f20       ?SetSpriteGroup@agk@AGK@@SAXIH@Z 00565f20 f   AGKWindows:Wrapper.obj
 0002:00052020       ?SetSpriteCategoryBits@agk@AGK@@SAXII@Z 00566020 f   AGKWindows:Wrapper.obj
 0002:00052120       ?SetSpriteCategoryBit@agk@AGK@@SAXIIH@Z 00566120 f   AGKWindows:Wrapper.obj
 0002:00052220       ?SetSpriteCollideBits@agk@AGK@@SAXII@Z 00566220 f   AGKWindows:Wrapper.obj
 0002:00052320       ?SetSpriteCollideBit@agk@AGK@@SAXIIH@Z 00566320 f   AGKWindows:Wrapper.obj
 0002:00052420       ?SetSpritePhysicsForce@agk@AGK@@SAXIMMMM@Z 00566420 f   AGKWindows:Wrapper.obj
 0002:00052590       ?SetSpritePhysicsTorque@agk@AGK@@SAXIM@Z 00566590 f   AGKWindows:Wrapper.obj
 0002:000526f0       ?SetSpritePhysicsImpulse@agk@AGK@@SAXIMMMM@Z 005666f0 f   AGKWindows:Wrapper.obj
 0002:00052860       ?SetSpritePhysicsAngularImpulse@agk@AGK@@SAXIM@Z 00566860 f   AGKWindows:Wrapper.obj
 0002:000529c0       ?GetSpritePhysicsVelocityX@agk@AGK@@SAMI@Z 005669c0 f   AGKWindows:Wrapper.obj
 0002:00052b30       ?GetSpritePhysicsVelocityY@agk@AGK@@SAMI@Z 00566b30 f   AGKWindows:Wrapper.obj
 0002:00052ca0       ?GetSpritePhysicsAngularVelocity@agk@AGK@@SAMI@Z 00566ca0 f   AGKWindows:Wrapper.obj
 0002:00052e10       ?GetSpritePhysicsMass@agk@AGK@@SAMI@Z 00566e10 f   AGKWindows:Wrapper.obj
 0002:00052f80       ?ClearJoint@agk@AGK@@SAXPAVb2Joint@@@Z 00566f80 f   AGKWindows:Wrapper.obj
 0002:00052fc0       ?DeleteJoint@agk@AGK@@SAXI@Z 00566fc0 f   AGKWindows:Wrapper.obj
 0002:00053000       ?GetJointExists@agk@AGK@@SAHI@Z 00567000 f   AGKWindows:Wrapper.obj
 0002:00053040       ?CreateDistanceJoint@agk@AGK@@SAXIPAVcSprite@2@0MMMMH@Z 00567040 f   AGKWindows:Wrapper.obj
 0002:00053300       ?CreateRevoluteJoint@agk@AGK@@SAXIPAVcSprite@2@0MMH@Z 00567300 f   AGKWindows:Wrapper.obj
 0002:000535a0       ?CreatePrismaticJoint@agk@AGK@@SAXIPAVcSprite@2@0MMMMH@Z 005675a0 f   AGKWindows:Wrapper.obj
 0002:00053870       ?CreatePulleyJoint@agk@AGK@@SAXIPAVcSprite@2@0MMMMMMMMMH@Z 00567870 f   AGKWindows:Wrapper.obj
 0002:00053b90       ?CreateMouseJoint@agk@AGK@@SAXIPAVcSprite@2@MMM@Z 00567b90 f   AGKWindows:Wrapper.obj
 0002:00053da0       ?CreateLineJoint@agk@AGK@@SAXIPAVcSprite@2@0MMMMH@Z 00567da0 f   AGKWindows:Wrapper.obj
 0002:00054060       ?CreateWeldJoint@agk@AGK@@SAXIPAVcSprite@2@0MMH@Z 00568060 f   AGKWindows:Wrapper.obj
 0002:000542f0       ?CreateDistanceJoint@agk@AGK@@SAIPAVcSprite@2@0MMMMH@Z 005682f0 f   AGKWindows:Wrapper.obj
 0002:00054510       ?CreateRevoluteJoint@agk@AGK@@SAIPAVcSprite@2@0MMH@Z 00568510 f   AGKWindows:Wrapper.obj
 0002:00054720       ?CreatePrismaticJoint@agk@AGK@@SAIPAVcSprite@2@0MMMMH@Z 00568720 f   AGKWindows:Wrapper.obj
 0002:00054960       ?CreatePulleyJoint@agk@AGK@@SAIPAVcSprite@2@0MMMMMMMMMH@Z 00568960 f   AGKWindows:Wrapper.obj
 0002:00054c00       ?CreateMouseJoint@agk@AGK@@SAIPAVcSprite@2@MMM@Z 00568c00 f   AGKWindows:Wrapper.obj
 0002:00054d80       ?CreateLineJoint@agk@AGK@@SAIPAVcSprite@2@0MMMMH@Z 00568d80 f   AGKWindows:Wrapper.obj
 0002:00054fc0       ?CreateWeldJoint@agk@AGK@@SAIPAVcSprite@2@0MMH@Z 00568fc0 f   AGKWindows:Wrapper.obj
 0002:000551b0       ?CreateDistanceJoint@agk@AGK@@SAXIIIMMMMH@Z 005691b0 f   AGKWindows:Wrapper.obj
 0002:00055340       ?CreateRevoluteJoint@agk@AGK@@SAXIIIMMH@Z 00569340 f   AGKWindows:Wrapper.obj
 0002:000554d0       ?CreatePrismaticJoint@agk@AGK@@SAXIIIMMMMH@Z 005694d0 f   AGKWindows:Wrapper.obj
 0002:00055660       ?CreatePulleyJoint@agk@AGK@@SAXIIIMMMMMMMMMH@Z 00569660 f   AGKWindows:Wrapper.obj
 0002:00055810       ?CreateMouseJoint@agk@AGK@@SAXIIMMM@Z 00569810 f   AGKWindows:Wrapper.obj
 0002:00055920       ?CreateLineJoint@agk@AGK@@SAXIIIMMMMH@Z 00569920 f   AGKWindows:Wrapper.obj
 0002:00055ab0       ?CreateWeldJoint@agk@AGK@@SAXIIIMMH@Z 00569ab0 f   AGKWindows:Wrapper.obj
 0002:00055c30       ?CreateGearJoint@agk@AGK@@SAXIIIM@Z 00569c30 f   AGKWindows:Wrapper.obj
 0002:00055fa0       ?CreateDistanceJoint@agk@AGK@@SAIIIMMMMH@Z 00569fa0 f   AGKWindows:Wrapper.obj
 0002:00056140       ?CreateRevoluteJoint@agk@AGK@@SAIIIMMH@Z 0056a140 f   AGKWindows:Wrapper.obj
 0002:000562e0       ?CreatePrismaticJoint@agk@AGK@@SAIIIMMMMH@Z 0056a2e0 f   AGKWindows:Wrapper.obj
 0002:00056480       ?CreatePulleyJoint@agk@AGK@@SAIIIMMMMMMMMMH@Z 0056a480 f   AGKWindows:Wrapper.obj
 0002:00056640       ?CreatePulleyJoint2@agk@AGK@@SAXIIMH@Z 0056a640 f   AGKWindows:Wrapper.obj
 0002:00056670       ?FinishPulleyJoint@agk@AGK@@SAIMMMMMMMM@Z 0056a670 f   AGKWindows:Wrapper.obj
 0002:00056900       ?CreateMouseJoint@agk@AGK@@SAIIMMM@Z 0056a900 f   AGKWindows:Wrapper.obj
 0002:00056a20       ?CreateLineJoint@agk@AGK@@SAIIIMMMMH@Z 0056aa20 f   AGKWindows:Wrapper.obj
 0002:00056bc0       ?CreateWeldJoint@agk@AGK@@SAIIIMMH@Z 0056abc0 f   AGKWindows:Wrapper.obj
 0002:00056d50       ?CreateGearJoint@agk@AGK@@SAIIIM@Z 0056ad50 f   AGKWindows:Wrapper.obj
 0002:00057060       ?SetJointLimitOn@agk@AGK@@SAXIMM@Z 0056b060 f   AGKWindows:Wrapper.obj
 0002:00057200       ?SetJointLimitOff@agk@AGK@@SAXI@Z 0056b200 f   AGKWindows:Wrapper.obj
 0002:00057370       ?SetJointMotorOn@agk@AGK@@SAXIMM@Z 0056b370 f   AGKWindows:Wrapper.obj
 0002:00057560       ?SetJointMotorOff@agk@AGK@@SAXI@Z 0056b560 f   AGKWindows:Wrapper.obj
 0002:000576f0       ?SetJointMouseTarget@agk@AGK@@SAXIMM@Z 0056b6f0 f   AGKWindows:Wrapper.obj
 0002:00057870       ?GetJointReactionForceX@agk@AGK@@SAMI@Z 0056b870 f   AGKWindows:Wrapper.obj
 0002:000579a0       ?GetJointReactionForceY@agk@AGK@@SAMI@Z 0056b9a0 f   AGKWindows:Wrapper.obj
 0002:00057ad0       ?GetJointReactionTorque@agk@AGK@@SAMI@Z 0056bad0 f   AGKWindows:Wrapper.obj
 0002:00057bf0       ?PhysicsRayCast@agk@AGK@@SAHMMMM@Z 0056bbf0 f   AGKWindows:Wrapper.obj
 0002:00057d00       ?PhysicsRayCastGroup@agk@AGK@@SAHHMMMM@Z 0056bd00 f   AGKWindows:Wrapper.obj
 0002:00057e20       ?PhysicsRayCastCategory@agk@AGK@@SAHIMMMM@Z 0056be20 f   AGKWindows:Wrapper.obj
 0002:00057f40       ?SpriteRayCastSingle@agk@AGK@@SAHIMMMM@Z 0056bf40 f   AGKWindows:Wrapper.obj
 0002:00058060       ?SpriteRayCastSingle@agk@AGK@@SAHPAVcSprite@2@MMMM@Z 0056c060 f   AGKWindows:Wrapper.obj
 0002:00058530       ?SpriteRayCast@agk@AGK@@SAHMMMM@Z 0056c530 f   AGKWindows:Wrapper.obj
 0002:000587b0       ?SpriteRayCastGroup@agk@AGK@@SAHHMMMM@Z 0056c7b0 f   AGKWindows:Wrapper.obj
 0002:00058a50       ?SpriteRayCastCategory@agk@AGK@@SAHIMMMM@Z 0056ca50 f   AGKWindows:Wrapper.obj
 0002:00058cf0       ?GetRayCastSprite@agk@AGK@@SAPAVcSprite@2@XZ 0056ccf0 f   AGKWindows:Wrapper.obj
 0002:00058d00       ?GetRayCastSpriteID@agk@AGK@@SAIXZ 0056cd00 f   AGKWindows:Wrapper.obj
 0002:00058d30       ?GetRayCastX@agk@AGK@@SAMXZ 0056cd30 f   AGKWindows:Wrapper.obj
 0002:00058d60       ?GetRayCastY@agk@AGK@@SAMXZ 0056cd60 f   AGKWindows:Wrapper.obj
 0002:00058d90       ?GetRayCastNormalX@agk@AGK@@SAMXZ 0056cd90 f   AGKWindows:Wrapper.obj
 0002:00058dc0       ?GetRayCastNormalY@agk@AGK@@SAMXZ 0056cdc0 f   AGKWindows:Wrapper.obj
 0002:00058df0       ?GetRayCastFraction@agk@AGK@@SAMXZ 0056cdf0 f   AGKWindows:Wrapper.obj
 0002:00058e10       ?GetSpriteInBox@agk@AGK@@SAHIMMMM@Z 0056ce10 f   AGKWindows:Wrapper.obj
 0002:00058f30       ?GetSpriteInCircle@agk@AGK@@SAHIMMM@Z 0056cf30 f   AGKWindows:Wrapper.obj
 0002:00059050       ?GetSpriteCollision@agk@AGK@@SAHII@Z 0056d050 f   AGKWindows:Wrapper.obj
 0002:000591e0       ?GetSpriteDistance@agk@AGK@@SAMII@Z 0056d1e0 f   AGKWindows:Wrapper.obj
 0002:00059360       ?GetSpriteDistancePoint1X@agk@AGK@@SAMXZ 0056d360 f   AGKWindows:Wrapper.obj
 0002:00059390       ?GetSpriteDistancePoint1Y@agk@AGK@@SAMXZ 0056d390 f   AGKWindows:Wrapper.obj
 0002:000593c0       ?GetSpriteDistancePoint2X@agk@AGK@@SAMXZ 0056d3c0 f   AGKWindows:Wrapper.obj
 0002:000593f0       ?GetSpriteDistancePoint2Y@agk@AGK@@SAMXZ 0056d3f0 f   AGKWindows:Wrapper.obj
 0002:00059420       ?GetFirstContact@agk@AGK@@SAHXZ 0056d420 f   AGKWindows:Wrapper.obj
 0002:00059480       ?GetNextContact@agk@AGK@@SAHXZ 0056d480 f   AGKWindows:Wrapper.obj
 0002:000594f0       ?GetContactWorldX@agk@AGK@@SAMXZ 0056d4f0 f   AGKWindows:Wrapper.obj
 0002:00059560       ?GetContactWorldY@agk@AGK@@SAMXZ 0056d560 f   AGKWindows:Wrapper.obj
 0002:000595d0       ?GetContactSpriteID1@agk@AGK@@SAIXZ 0056d5d0 f   AGKWindows:Wrapper.obj
 0002:00059630       ?GetContactSpriteID2@agk@AGK@@SAIXZ 0056d630 f   AGKWindows:Wrapper.obj
 0002:00059690       ?GetContactSprite1@agk@AGK@@SAPAVcSprite@2@XZ 0056d690 f   AGKWindows:Wrapper.obj
 0002:000596e0       ?GetContactSprite2@agk@AGK@@SAPAVcSprite@2@XZ 0056d6e0 f   AGKWindows:Wrapper.obj
 0002:00059730       ?GetSpriteFirstContact@agk@AGK@@SAHI@Z 0056d730 f   AGKWindows:Wrapper.obj
 0002:000598a0       ?GetSpriteNextContact@agk@AGK@@SAHXZ 0056d8a0 f   AGKWindows:Wrapper.obj
 0002:000598d0       ?GetSpriteContactWorldX@agk@AGK@@SAMXZ 0056d8d0 f   AGKWindows:Wrapper.obj
 0002:00059900       ?GetSpriteContactWorldY@agk@AGK@@SAMXZ 0056d900 f   AGKWindows:Wrapper.obj
 0002:00059930       ?GetSpriteContactSpriteID2@agk@AGK@@SAIXZ 0056d930 f   AGKWindows:Wrapper.obj
 0002:00059980       ?GetSpriteContactSprite2@agk@AGK@@SAPAVcSprite@2@XZ 0056d980 f   AGKWindows:Wrapper.obj
 0002:000599b0       ?GetPhysicsCollision@agk@AGK@@SAHII@Z 0056d9b0 f   AGKWindows:Wrapper.obj
 0002:00059c30       ?GetPhysicsCollisionX@agk@AGK@@SAMXZ 0056dc30 f   AGKWindows:Wrapper.obj
 0002:00059c60       ?GetPhysicsCollisionY@agk@AGK@@SAMXZ 0056dc60 f   AGKWindows:Wrapper.obj
 0002:00059c90       ?GetPhysicsCollisionWorldX@agk@AGK@@SAMXZ 0056dc90 f   AGKWindows:Wrapper.obj
 0002:00059cc0       ?GetPhysicsCollisionWorldY@agk@AGK@@SAMXZ 0056dcc0 f   AGKWindows:Wrapper.obj
 0002:00059cf0       ?CreateParticles@agk@AGK@@SAXIMM@Z 0056dcf0 f   AGKWindows:Wrapper.obj
 0002:00059ec0       ?CreateParticles@agk@AGK@@SAIMM@Z 0056dec0 f   AGKWindows:Wrapper.obj
 0002:0005a030       ?GetParticlesExists@agk@AGK@@SAHI@Z 0056e030 f   AGKWindows:Wrapper.obj
 0002:0005a050       ?DeleteParticles@agk@AGK@@SAXI@Z 0056e050 f   AGKWindows:Wrapper.obj
 0002:0005a0c0       ?SetParticlesPosition@agk@AGK@@SAXIMM@Z 0056e0c0 f   AGKWindows:Wrapper.obj
 0002:0005a1c0       ?SetParticlesDepth@agk@AGK@@SAXIH@Z 0056e1c0 f   AGKWindows:Wrapper.obj
 0002:0005a2b0       ?SetParticlesFrequency@agk@AGK@@SAXIM@Z 0056e2b0 f   AGKWindows:Wrapper.obj
 0002:0005a3a0       ?SetParticlesStartZone@agk@AGK@@SAXIMMMM@Z 0056e3a0 f   AGKWindows:Wrapper.obj
 0002:0005a4b0       ?SetParticlesDirection@agk@AGK@@SAXIMM@Z 0056e4b0 f   AGKWindows:Wrapper.obj
 0002:0005a5b0       ?SetParticlesVelocityRange@agk@AGK@@SAXIMM@Z 0056e5b0 f   AGKWindows:Wrapper.obj
 0002:0005a6b0       ?SetParticlesAngle@agk@AGK@@SAXIM@Z 0056e6b0 f   AGKWindows:Wrapper.obj
 0002:0005a7a0       ?SetParticlesAngleRad@agk@AGK@@SAXIM@Z 0056e7a0 f   AGKWindows:Wrapper.obj
 0002:0005a890       ?SetParticlesSize@agk@AGK@@SAXIM@Z 0056e890 f   AGKWindows:Wrapper.obj
 0002:0005a980       ?SetParticlesLife@agk@AGK@@SAXIM@Z 0056e980 f   AGKWindows:Wrapper.obj
 0002:0005aa70       ?SetParticlesMax@agk@AGK@@SAXIH@Z 0056ea70 f   AGKWindows:Wrapper.obj
 0002:0005ab60       ?ResetParticleCount@agk@AGK@@SAXI@Z 0056eb60 f   AGKWindows:Wrapper.obj
 0002:0005ac50       ?SetParticlesImage@agk@AGK@@SAXII@Z 0056ec50 f   AGKWindows:Wrapper.obj
 0002:0005adc0       ?SetParticlesVisible@agk@AGK@@SAXIH@Z 0056edc0 f   AGKWindows:Wrapper.obj
 0002:0005aeb0       ?SetParticlesActive@agk@AGK@@SAXIH@Z 0056eeb0 f   AGKWindows:Wrapper.obj
 0002:0005afa0       ?SetParticlesColorInterpolation@agk@AGK@@SAXIH@Z 0056efa0 f   AGKWindows:Wrapper.obj
 0002:0005b090       ?GetParticlesX@agk@AGK@@SAMI@Z 0056f090 f   AGKWindows:Wrapper.obj
 0002:0005b190       ?GetParticlesY@agk@AGK@@SAMI@Z 0056f190 f   AGKWindows:Wrapper.obj
 0002:0005b290       ?GetParticlesDepth@agk@AGK@@SAHI@Z 0056f290 f   AGKWindows:Wrapper.obj
 0002:0005b390       ?GetParticlesVisible@agk@AGK@@SAHI@Z 0056f390 f   AGKWindows:Wrapper.obj
 0002:0005b490       ?GetParticlesActive@agk@AGK@@SAHI@Z 0056f490 f   AGKWindows:Wrapper.obj
 0002:0005b590       ?GetParticlesFrequency@agk@AGK@@SAMI@Z 0056f590 f   AGKWindows:Wrapper.obj
 0002:0005b690       ?GetParticlesDirectionX@agk@AGK@@SAMI@Z 0056f690 f   AGKWindows:Wrapper.obj
 0002:0005b790       ?GetParticlesDirectionY@agk@AGK@@SAMI@Z 0056f790 f   AGKWindows:Wrapper.obj
 0002:0005b890       ?GetParticlesAngle@agk@AGK@@SAMI@Z 0056f890 f   AGKWindows:Wrapper.obj
 0002:0005b990       ?GetParticlesAngleRad@agk@AGK@@SAMI@Z 0056f990 f   AGKWindows:Wrapper.obj
 0002:0005ba90       ?GetParticlesSize@agk@AGK@@SAMI@Z 0056fa90 f   AGKWindows:Wrapper.obj
 0002:0005bb90       ?GetParticlesLife@agk@AGK@@SAMI@Z 0056fb90 f   AGKWindows:Wrapper.obj
 0002:0005bc90       ?GetParticlesMaxReached@agk@AGK@@SAHI@Z 0056fc90 f   AGKWindows:Wrapper.obj
 0002:0005bd90       ?AddParticlesForce@agk@AGK@@SAXIMMMM@Z 0056fd90 f   AGKWindows:Wrapper.obj
 0002:0005bea0       ?ClearParticlesForces@agk@AGK@@SAXI@Z 0056fea0 f   AGKWindows:Wrapper.obj
 0002:0005bf90       ?AddParticlesColorKeyFrame@agk@AGK@@SAXIMIIII@Z 0056ff90 f   AGKWindows:Wrapper.obj
 0002:0005c090       ?ClearParticlesColors@agk@AGK@@SAXI@Z 00570090 f   AGKWindows:Wrapper.obj
 0002:0005c180       ?FixParticlesToScreen@agk@AGK@@SAXIH@Z 00570180 f   AGKWindows:Wrapper.obj
 0002:0005c280       ?UpdateParticles@agk@AGK@@SAXIM@Z 00570280 f   AGKWindows:Wrapper.obj
 0002:0005c370       ?CreateText@agk@AGK@@SAXIPBD@Z 00570370 f   AGKWindows:Wrapper.obj
 0002:0005c4f0       ?CreateText@agk@AGK@@SAIPBD@Z 005704f0 f   AGKWindows:Wrapper.obj
 0002:0005c600       ?GetTextExists@agk@AGK@@SAII@Z 00570600 f   AGKWindows:Wrapper.obj
 0002:0005c630       ?DeleteText@agk@AGK@@SAXI@Z 00570630 f   AGKWindows:Wrapper.obj
 0002:0005c6a0       ?SetTextString@agk@AGK@@SAXIPBD@Z 005706a0 f   AGKWindows:Wrapper.obj
 0002:0005c7a0       ?SetTextPosition@agk@AGK@@SAXIMM@Z 005707a0 f   AGKWindows:Wrapper.obj
 0002:0005c8a0       ?SetTextX@agk@AGK@@SAXIM@Z 005708a0 f   AGKWindows:Wrapper.obj
 0002:0005c9a0       ?SetTextY@agk@AGK@@SAXIM@Z 005709a0 f   AGKWindows:Wrapper.obj
 0002:0005caa0       ?SetTextAlignment@agk@AGK@@SAXIH@Z 00570aa0 f   AGKWindows:Wrapper.obj
 0002:0005cba0       ?SetTextSize@agk@AGK@@SAXIM@Z 00570ba0 f   AGKWindows:Wrapper.obj
 0002:0005cca0       ?SetTextSpacing@agk@AGK@@SAXIM@Z 00570ca0 f   AGKWindows:Wrapper.obj
 0002:0005cda0       ?SetTextLineSpacing@agk@AGK@@SAXIM@Z 00570da0 f   AGKWindows:Wrapper.obj
 0002:0005cea0       ?SetTextDepth@agk@AGK@@SAXIH@Z 00570ea0 f   AGKWindows:Wrapper.obj
 0002:0005cfa0       ?SetTextVisible@agk@AGK@@SAXIH@Z 00570fa0 f   AGKWindows:Wrapper.obj
 0002:0005d0a0       ?SetTextColor@agk@AGK@@SAXIIIII@Z 005710a0 f   AGKWindows:Wrapper.obj
 0002:0005d1a0       ?SetTextColorRed@agk@AGK@@SAXII@Z 005711a0 f   AGKWindows:Wrapper.obj
 0002:0005d2a0       ?SetTextColorGreen@agk@AGK@@SAXII@Z 005712a0 f   AGKWindows:Wrapper.obj
 0002:0005d3a0       ?SetTextColorBlue@agk@AGK@@SAXII@Z 005713a0 f   AGKWindows:Wrapper.obj
 0002:0005d4a0       ?SetTextColorAlpha@agk@AGK@@SAXII@Z 005714a0 f   AGKWindows:Wrapper.obj
 0002:0005d5a0       ?GetTextColorRed@agk@AGK@@SAII@Z 005715a0 f   AGKWindows:Wrapper.obj
 0002:0005d6a0       ?GetTextColorGreen@agk@AGK@@SAII@Z 005716a0 f   AGKWindows:Wrapper.obj
 0002:0005d7a0       ?GetTextColorBlue@agk@AGK@@SAII@Z 005717a0 f   AGKWindows:Wrapper.obj
 0002:0005d8a0       ?GetTextColorAlpha@agk@AGK@@SAII@Z 005718a0 f   AGKWindows:Wrapper.obj
 0002:0005d9a0       ?SetTextCharPosition@agk@AGK@@SAXIIMM@Z 005719a0 f   AGKWindows:Wrapper.obj
 0002:0005daa0       ?SetTextCharX@agk@AGK@@SAXIIM@Z 00571aa0 f   AGKWindows:Wrapper.obj
 0002:0005dba0       ?SetTextCharY@agk@AGK@@SAXIIM@Z 00571ba0 f   AGKWindows:Wrapper.obj
 0002:0005dca0       ?SetTextCharAngle@agk@AGK@@SAXIIM@Z 00571ca0 f   AGKWindows:Wrapper.obj
 0002:0005dda0       ?SetTextCharAngleRad@agk@AGK@@SAXIIM@Z 00571da0 f   AGKWindows:Wrapper.obj
 0002:0005dea0       ?SetTextCharColor@agk@AGK@@SAXIIIIII@Z 00571ea0 f   AGKWindows:Wrapper.obj
 0002:0005dfb0       ?SetTextCharColorRed@agk@AGK@@SAXIII@Z 00571fb0 f   AGKWindows:Wrapper.obj
 0002:0005e0b0       ?SetTextCharColorGreen@agk@AGK@@SAXIII@Z 005720b0 f   AGKWindows:Wrapper.obj
 0002:0005e1b0       ?SetTextCharColorBlue@agk@AGK@@SAXIII@Z 005721b0 f   AGKWindows:Wrapper.obj
 0002:0005e2b0       ?SetTextCharColorAlpha@agk@AGK@@SAXIII@Z 005722b0 f   AGKWindows:Wrapper.obj
 0002:0005e3b0       ?GetTextCharX@agk@AGK@@SAMII@Z 005723b0 f   AGKWindows:Wrapper.obj
 0002:0005e4b0       ?GetTextCharY@agk@AGK@@SAMII@Z 005724b0 f   AGKWindows:Wrapper.obj
 0002:0005e5b0       ?GetTextCharAngle@agk@AGK@@SAMII@Z 005725b0 f   AGKWindows:Wrapper.obj
 0002:0005e6b0       ?GetTextCharAngleRad@agk@AGK@@SAMII@Z 005726b0 f   AGKWindows:Wrapper.obj
 0002:0005e7b0       ?GetTextCharColorRed@agk@AGK@@SAIII@Z 005727b0 f   AGKWindows:Wrapper.obj
 0002:0005e8b0       ?GetTextCharColorGreen@agk@AGK@@SAIII@Z 005728b0 f   AGKWindows:Wrapper.obj
 0002:0005e9b0       ?GetTextCharColorBlue@agk@AGK@@SAIII@Z 005729b0 f   AGKWindows:Wrapper.obj
 0002:0005eab0       ?GetTextCharColorAlpha@agk@AGK@@SAIII@Z 00572ab0 f   AGKWindows:Wrapper.obj
 0002:0005ebb0       ?GetTextX@agk@AGK@@SAMI@Z  00572bb0 f   AGKWindows:Wrapper.obj
 0002:0005ecb0       ?GetTextY@agk@AGK@@SAMI@Z  00572cb0 f   AGKWindows:Wrapper.obj
 0002:0005edb0       ?GetTextLength@agk@AGK@@SAII@Z 00572db0 f   AGKWindows:Wrapper.obj
 0002:0005eeb0       ?GetTextTotalWidth@agk@AGK@@SAMI@Z 00572eb0 f   AGKWindows:Wrapper.obj
 0002:0005efb0       ?GetTextTotalHeight@agk@AGK@@SAMI@Z 00572fb0 f   AGKWindows:Wrapper.obj
 0002:0005f0b0       ?GetTextHitTest@agk@AGK@@SAHIMM@Z 005730b0 f   AGKWindows:Wrapper.obj
 0002:0005f1d0       ?SetTextFontImage@agk@AGK@@SAXII@Z 005731d0 f   AGKWindows:Wrapper.obj
 0002:0005f340       ?SetTextExtendedFontImage@agk@AGK@@SAXII@Z 00573340 f   AGKWindows:Wrapper.obj
 0002:0005f4b0       ?SetTextDefaultFontImage@agk@AGK@@SAXI@Z 005734b0 f   AGKWindows:Wrapper.obj
 0002:0005f5b0       ?SetTextDefaultExtendedFontImage@agk@AGK@@SAXI@Z 005735b0 f   AGKWindows:Wrapper.obj
 0002:0005f6b0       ?SetTextDefaultMinFilter@agk@AGK@@SAXI@Z 005736b0 f   AGKWindows:Wrapper.obj
 0002:0005f6d0       ?SetTextDefaultMagFilter@agk@AGK@@SAXI@Z 005736d0 f   AGKWindows:Wrapper.obj
 0002:0005f6f0       ?FixTextToScreen@agk@AGK@@SAXIH@Z 005736f0 f   AGKWindows:Wrapper.obj
 0002:0005f7f0       ?SetTextMaxWidth@agk@AGK@@SAXIM@Z 005737f0 f   AGKWindows:Wrapper.obj
 0002:0005f8f0       ?SetTextScissor@agk@AGK@@SAXIMMMM@Z 005738f0 f   AGKWindows:Wrapper.obj
 0002:0005fa00       ?GetTextVisible@agk@AGK@@SAHI@Z 00573a00 f   AGKWindows:Wrapper.obj
 0002:0005fb10       ?GetTextDepth@agk@AGK@@SAHI@Z 00573b10 f   AGKWindows:Wrapper.obj
 0002:0005fc10       ?GetTextSize@agk@AGK@@SAMI@Z 00573c10 f   AGKWindows:Wrapper.obj
 0002:0005fd10       ?GetTextSpacing@agk@AGK@@SAMI@Z 00573d10 f   AGKWindows:Wrapper.obj
 0002:0005fe10       ?GetTextLineSpacing@agk@AGK@@SAMI@Z 00573e10 f   AGKWindows:Wrapper.obj
 0002:0005ff10       ?GetTextString@agk@AGK@@SAPADI@Z 00573f10 f   AGKWindows:Wrapper.obj
 0002:00060090       ?Print@agk@AGK@@SAXPBD@Z   00574090 f   AGKWindows:Wrapper.obj
 0002:000600d0       ?Print@agk@AGK@@SAXABVuString@2@@Z 005740d0 f   AGKWindows:Wrapper.obj
 0002:00060110       ?Print@agk@AGK@@SAXH@Z     00574110 f   AGKWindows:Wrapper.obj
 0002:00060150       ?Print@agk@AGK@@SAXI@Z     00574150 f   AGKWindows:Wrapper.obj
 0002:00060190       ?Print@agk@AGK@@SAXM@Z     00574190 f   AGKWindows:Wrapper.obj
 0002:000601d0       ?PrintC@agk@AGK@@SAXPBD@Z  005741d0 f   AGKWindows:Wrapper.obj
 0002:00060200       ?PrintC@agk@AGK@@SAXABVuString@2@@Z 00574200 f   AGKWindows:Wrapper.obj
 0002:00060230       ?PrintC@agk@AGK@@SAXH@Z    00574230 f   AGKWindows:Wrapper.obj
 0002:00060270       ?PrintC@agk@AGK@@SAXI@Z    00574270 f   AGKWindows:Wrapper.obj
 0002:000602b0       ?PrintC@agk@AGK@@SAXM@Z    005742b0 f   AGKWindows:Wrapper.obj
 0002:000602f0       ?SetPrintSize@agk@AGK@@SAXM@Z 005742f0 f   AGKWindows:Wrapper.obj
 0002:00060320       ?SetPrintSpacing@agk@AGK@@SAXM@Z 00574320 f   AGKWindows:Wrapper.obj
 0002:00060350       ?SetPrintColor@agk@AGK@@SAXIII@Z 00574350 f   AGKWindows:Wrapper.obj
 0002:00060390       ?SetPrintColor@agk@AGK@@SAXIIII@Z 00574390 f   AGKWindows:Wrapper.obj
 0002:000603d0       ?GetRawTouchCount@agk@AGK@@SAIH@Z 005743d0 f   AGKWindows:Wrapper.obj
 0002:000603f0       ?GetRawFirstTouchEvent@agk@AGK@@SAIH@Z 005743f0 f   AGKWindows:Wrapper.obj
 0002:00060440       ?GetRawNextTouchEvent@agk@AGK@@SAIXZ 00574440 f   AGKWindows:Wrapper.obj
 0002:00060480       ?GetRawTouchType@agk@AGK@@SAHI@Z 00574480 f   AGKWindows:Wrapper.obj
 0002:00060500       ?GetRawTouchStartX@agk@AGK@@SAMI@Z 00574500 f   AGKWindows:Wrapper.obj
 0002:00060540       ?GetRawTouchStartY@agk@AGK@@SAMI@Z 00574540 f   AGKWindows:Wrapper.obj
 0002:00060580       ?GetRawTouchCurrentX@agk@AGK@@SAMI@Z 00574580 f   AGKWindows:Wrapper.obj
 0002:000605c0       ?GetRawTouchCurrentY@agk@AGK@@SAMI@Z 005745c0 f   AGKWindows:Wrapper.obj
 0002:00060600       ?GetRawTouchLastX@agk@AGK@@SAMI@Z 00574600 f   AGKWindows:Wrapper.obj
 0002:00060640       ?GetRawTouchLastY@agk@AGK@@SAMI@Z 00574640 f   AGKWindows:Wrapper.obj
 0002:00060680       ?GetRawTouchReleased@agk@AGK@@SAHI@Z 00574680 f   AGKWindows:Wrapper.obj
 0002:000606d0       ?SetRawTouchValue@agk@AGK@@SAXIH@Z 005746d0 f   AGKWindows:Wrapper.obj
 0002:00060710       ?GetRawTouchValue@agk@AGK@@SAHI@Z 00574710 f   AGKWindows:Wrapper.obj
 0002:00060750       ?GetRawTouchTime@agk@AGK@@SAMI@Z 00574750 f   AGKWindows:Wrapper.obj
 0002:00060790       ?LoadSound@agk@AGK@@SAXIPBD@Z 00574790 f   AGKWindows:Wrapper.obj
 0002:00060850       ?LoadSound@agk@AGK@@SAIPBD@Z 00574850 f   AGKWindows:Wrapper.obj
 0002:00060910       ?LoadSound@agk@AGK@@SAXIABVuString@2@@Z 00574910 f   AGKWindows:Wrapper.obj
 0002:00060930       ?LoadSound@agk@AGK@@SAIABVuString@2@@Z 00574930 f   AGKWindows:Wrapper.obj
 0002:00060950       ?PlaySound@agk@AGK@@SAXI@Z 00574950 f   AGKWindows:Wrapper.obj
 0002:00060970       ?PlaySound@agk@AGK@@SAXIH@Z 00574970 f   AGKWindows:Wrapper.obj
 0002:00060990       ?PlaySound@agk@AGK@@SAXIHH@Z 00574990 f   AGKWindows:Wrapper.obj
 0002:000609c0       ?PlaySound@agk@AGK@@SAXIHHH@Z 005749c0 f   AGKWindows:Wrapper.obj
 0002:000609f0       ?StopSound@agk@AGK@@SAXI@Z 005749f0 f   AGKWindows:Wrapper.obj
 0002:00060a10       ?DeleteSound@agk@AGK@@SAXI@Z 00574a10 f   AGKWindows:Wrapper.obj
 0002:00060a30       ?GetSoundExists@agk@AGK@@SAII@Z 00574a30 f   AGKWindows:Wrapper.obj
 0002:00060a50       ?GetSoundInstances@agk@AGK@@SAII@Z 00574a50 f   AGKWindows:Wrapper.obj
 0002:00060a70       ?GetSoundsPlaying@agk@AGK@@SAII@Z 00574a70 f   AGKWindows:Wrapper.obj
 0002:00060a90       ?SetSoundSystemVolume@agk@AGK@@SAXH@Z 00574a90 f   AGKWindows:Wrapper.obj
 0002:00060ab0       ?LoadMusic@agk@AGK@@SAIPBD@Z 00574ab0 f   AGKWindows:Wrapper.obj
 0002:00060b40       ?LoadMusic@agk@AGK@@SAXIPBD@Z 00574b40 f   AGKWindows:Wrapper.obj
 0002:00060bd0       ?SetMusicFileVolume@agk@AGK@@SAXIH@Z 00574bd0 f   AGKWindows:Wrapper.obj
 0002:00060bf0       ?PlayMusic@agk@AGK@@SAXXZ  00574bf0 f   AGKWindows:Wrapper.obj
 0002:00060c10       ?PlayMusic@agk@AGK@@SAXI@Z 00574c10 f   AGKWindows:Wrapper.obj
 0002:00060c30       ?PlayMusic@agk@AGK@@SAXIH@Z 00574c30 f   AGKWindows:Wrapper.obj
 0002:00060c60       ?PlayMusic@agk@AGK@@SAXIHII@Z 00574c60 f   AGKWindows:Wrapper.obj
 0002:00060c90       ?PauseMusic@agk@AGK@@SAXXZ 00574c90 f   AGKWindows:Wrapper.obj
 0002:00060cb0       ?ResumeMusic@agk@AGK@@SAXXZ 00574cb0 f   AGKWindows:Wrapper.obj
 0002:00060cd0       ?StopMusic@agk@AGK@@SAXXZ  00574cd0 f   AGKWindows:Wrapper.obj
 0002:00060cf0       ?DeleteMusic@agk@AGK@@SAXI@Z 00574cf0 f   AGKWindows:Wrapper.obj
 0002:00060d10       ?GetMusicPlaying@agk@AGK@@SAHXZ 00574d10 f   AGKWindows:Wrapper.obj
 0002:00060d30       ?SetMusicSystemVolume@agk@AGK@@SAXH@Z 00574d30 f   AGKWindows:Wrapper.obj
 0002:00060d50       ?GetMusicExists@agk@AGK@@SAII@Z 00574d50 f   AGKWindows:Wrapper.obj
 0002:00060d70       ?DeleteFileA@agk@AGK@@SAXPBD@Z 00574d70 f   AGKWindows:Wrapper.obj
 0002:00060d90       ?GetFileExists@agk@AGK@@SAHPBD@Z 00574d90 f   AGKWindows:Wrapper.obj
 0002:00060dc0       ?ChooseRawFile@agk@AGK@@SAPADPBD@Z 00574dc0 f   AGKWindows:Wrapper.obj
 0002:00060f00       ?OpenToWrite@agk@AGK@@SAIPBDH@Z 00574f00 f   AGKWindows:Wrapper.obj
 0002:00061040       ?OpenToWrite@agk@AGK@@SAXIPBDH@Z 00575040 f   AGKWindows:Wrapper.obj
 0002:00061200       ?OpenToWrite@agk@AGK@@SAXIPBD@Z 00575200 f   AGKWindows:Wrapper.obj
 0002:00061220       ?OpenToWrite@agk@AGK@@SAIPBD@Z 00575220 f   AGKWindows:Wrapper.obj
 0002:00061240       ?OpenToRead@agk@AGK@@SAIPBD@Z 00575240 f   AGKWindows:Wrapper.obj
 0002:00061380       ?OpenToRead@agk@AGK@@SAXIPBD@Z 00575380 f   AGKWindows:Wrapper.obj
 0002:00061530       ?FileIsOpen@agk@AGK@@SAHI@Z 00575530 f   AGKWindows:Wrapper.obj
 0002:00061630       ?CloseFile@agk@AGK@@SAXI@Z 00575630 f   AGKWindows:Wrapper.obj
 0002:00061760       ?FileEOF@agk@AGK@@SAHI@Z   00575760 f   AGKWindows:Wrapper.obj
 0002:00061860       ?GetFileSize@agk@AGK@@SAHI@Z 00575860 f   AGKWindows:Wrapper.obj
 0002:00061950       ?WriteInteger@agk@AGK@@SAXIH@Z 00575950 f   AGKWindows:Wrapper.obj
 0002:00061a40       ?WriteFloat@agk@AGK@@SAXIM@Z 00575a40 f   AGKWindows:Wrapper.obj
 0002:00061b30       ?WriteString@agk@AGK@@SAXIPBD@Z 00575b30 f   AGKWindows:Wrapper.obj
 0002:00061c60       ?WriteLine@agk@AGK@@SAXIPBD@Z 00575c60 f   AGKWindows:Wrapper.obj
 0002:00061d90       ?ReadInteger@agk@AGK@@SAHI@Z 00575d90 f   AGKWindows:Wrapper.obj
 0002:00061e80       ?ReadFloat@agk@AGK@@SAMI@Z 00575e80 f   AGKWindows:Wrapper.obj
 0002:00061f70       ?ReadString@agk@AGK@@SAPADI@Z 00575f70 f   AGKWindows:Wrapper.obj
 0002:000620f0       ?ReadLine@agk@AGK@@SAPADI@Z 005760f0 f   AGKWindows:Wrapper.obj
 0002:00062270       ?Str@agk@AGK@@SAPADH@Z     00576270 f   AGKWindows:Wrapper.obj
 0002:000622c0       ?Str@agk@AGK@@SAPADM@Z     005762c0 f   AGKWindows:Wrapper.obj
 0002:00062320       ?Str@agk@AGK@@SAPADMI@Z    00576320 f   AGKWindows:Wrapper.obj
 0002:00062390       ?Bin@agk@AGK@@SAPADH@Z     00576390 f   AGKWindows:Wrapper.obj
 0002:00062460       ?Hex@agk@AGK@@SAPADH@Z     00576460 f   AGKWindows:Wrapper.obj
 0002:000624b0       ?Val@agk@AGK@@SAHPBD@Z     005764b0 f   AGKWindows:Wrapper.obj
 0002:000625a0       ?Val@agk@AGK@@SAHPBDH@Z    005765a0 f   AGKWindows:Wrapper.obj
 0002:000625e0       ?ValFloat@agk@AGK@@SAMPBD@Z 005765e0 f   AGKWindows:Wrapper.obj
 0002:000626d0       ?Left@agk@AGK@@SAPADPBDI@Z 005766d0 f   AGKWindows:Wrapper.obj
 0002:000627b0       ?Right@agk@AGK@@SAPADPBDI@Z 005767b0 f   AGKWindows:Wrapper.obj
 0002:000628b0       ?Mid@agk@AGK@@SAPADPBDIH@Z 005768b0 f   AGKWindows:Wrapper.obj
 0002:00062a10       ?Asc@agk@AGK@@SAIPBD@Z     00576a10 f   AGKWindows:Wrapper.obj
 0002:00062a30       ?Len@agk@AGK@@SAIPBD@Z     00576a30 f   AGKWindows:Wrapper.obj
 0002:00062a60       ?Chr@agk@AGK@@SAPADI@Z     00576a60 f   AGKWindows:Wrapper.obj
 0002:00062ab0       ?Lower@agk@AGK@@SAPADPBD@Z 00576ab0 f   AGKWindows:Wrapper.obj
 0002:00062ba0       ?Upper@agk@AGK@@SAPADPBD@Z 00576ba0 f   AGKWindows:Wrapper.obj
 0002:00062c90       ?Spaces@agk@AGK@@SAPADI@Z  00576c90 f   AGKWindows:Wrapper.obj
 0002:00062d10       ?CountStringTokens@agk@AGK@@SAHPBD0@Z 00576d10 f   AGKWindows:Wrapper.obj
 0002:00062dd0       ?GetStringToken@agk@AGK@@SAPADPBD0H@Z 00576dd0 f   AGKWindows:Wrapper.obj
 0002:00062e90       ?GetCurrentDir@agk@AGK@@SAPADXZ 00576e90 f   AGKWindows:Wrapper.obj
 0002:00062ef0       ?GetFolder@agk@AGK@@SAPADXZ 00576ef0 f   AGKWindows:Wrapper.obj
 0002:00062f50       ?SetFolder@agk@AGK@@SAHPBD@Z 00576f50 f   AGKWindows:Wrapper.obj
 0002:00062f70       ?GetFirstFolder@agk@AGK@@SAPADXZ 00576f70 f   AGKWindows:Wrapper.obj
 0002:00062ff0       ?GetNextFolder@agk@AGK@@SAPADXZ 00576ff0 f   AGKWindows:Wrapper.obj
 0002:00063080       ?GetFirstFile@agk@AGK@@SAPADXZ 00577080 f   AGKWindows:Wrapper.obj
 0002:00063100       ?GetNextFile@agk@AGK@@SAPADXZ 00577100 f   AGKWindows:Wrapper.obj
 0002:00063190       ?CreateBroadcastListener@agk@AGK@@SAII@Z 00577190 f   AGKWindows:Wrapper.obj
 0002:000632a0       ?GetBroadcastMessage@agk@AGK@@SAII@Z 005772a0 f   AGKWindows:Wrapper.obj
 0002:00063470       ?DeleteBroadcastListener@agk@AGK@@SAXI@Z 00577470 f   AGKWindows:Wrapper.obj
 0002:000634e0       ?HostNetwork@agk@AGK@@SAIPBD0I@Z 005774e0 f   AGKWindows:Wrapper.obj
 0002:00063660       ?SetNetworkNoMoreClients@agk@AGK@@SAXI@Z 00577660 f   AGKWindows:Wrapper.obj
 0002:00063740       ?JoinNetwork@agk@AGK@@SAIPBD0@Z 00577740 f   AGKWindows:Wrapper.obj
 0002:00063880       ?JoinNetwork@agk@AGK@@SAIPBDI0@Z 00577880 f   AGKWindows:Wrapper.obj
 0002:00063a00       ?IsNetworkActive@agk@AGK@@SAII@Z 00577a00 f   AGKWindows:Wrapper.obj
 0002:00063b00       ?CloseNetwork@agk@AGK@@SAXI@Z 00577b00 f   AGKWindows:Wrapper.obj
 0002:00063c20       ?SetNetworkLatency@agk@AGK@@SAXII@Z 00577c20 f   AGKWindows:Wrapper.obj
 0002:00063d10       ?GetNetworkMyClientID@agk@AGK@@SAII@Z 00577d10 f   AGKWindows:Wrapper.obj
 0002:00063e00       ?GetNetworkNumClients@agk@AGK@@SAII@Z 00577e00 f   AGKWindows:Wrapper.obj
 0002:00063ef0       ?GetNetworkFirstClient@agk@AGK@@SAII@Z 00577ef0 f   AGKWindows:Wrapper.obj
 0002:00063fe0       ?GetNetworkNextClient@agk@AGK@@SAII@Z 00577fe0 f   AGKWindows:Wrapper.obj
 0002:000640d0       ?GetNetworkClientDisconnected@agk@AGK@@SAIII@Z 005780d0 f   AGKWindows:Wrapper.obj
 0002:000641c0       ?DeleteNetworkClient@agk@AGK@@SAXII@Z 005781c0 f   AGKWindows:Wrapper.obj
 0002:000642b0       ?GetNetworkClientName@agk@AGK@@SAPADII@Z 005782b0 f   AGKWindows:Wrapper.obj
 0002:00064440       ?GetNetworkClientPing@agk@AGK@@SAMII@Z 00578440 f   AGKWindows:Wrapper.obj
 0002:00064530       ?GetNetworkServerID@agk@AGK@@SAII@Z 00578530 f   AGKWindows:Wrapper.obj
 0002:00064620       ?SetNetworkLocalInteger@agk@AGK@@SAXIPBDH@Z 00578620 f   AGKWindows:Wrapper.obj
 0002:00064650       ?SetNetworkLocalInteger@agk@AGK@@SAXIPBDHH@Z 00578650 f   AGKWindows:Wrapper.obj
 0002:00064740       ?SetNetworkLocalFloat@agk@AGK@@SAXIPBDM@Z 00578740 f   AGKWindows:Wrapper.obj
 0002:00064770       ?SetNetworkLocalFloat@agk@AGK@@SAXIPBDMH@Z 00578770 f   AGKWindows:Wrapper.obj
 0002:00064860       ?GetNetworkClientInteger@agk@AGK@@SAHIIPBD@Z 00578860 f   AGKWindows:Wrapper.obj
 0002:00064960       ?GetNetworkClientFloat@agk@AGK@@SAMIIPBD@Z 00578960 f   AGKWindows:Wrapper.obj
 0002:00064a60       ?CreateNetworkMessage@agk@AGK@@SAIXZ 00578a60 f   AGKWindows:Wrapper.obj
 0002:00064b20       ?AddNetworkMessageInteger@agk@AGK@@SAXIH@Z 00578b20 f   AGKWindows:Wrapper.obj
 0002:00064c10       ?AddNetworkMessageFloat@agk@AGK@@SAXIM@Z 00578c10 f   AGKWindows:Wrapper.obj
 0002:00064d00       ?AddNetworkMessageString@agk@AGK@@SAXIPBD@Z 00578d00 f   AGKWindows:Wrapper.obj
 0002:00064e00       ?GetNetworkMessageFromIP@agk@AGK@@SAPADI@Z 00578e00 f   AGKWindows:Wrapper.obj
 0002:00064f30       ?GetNetworkMessageFromClient@agk@AGK@@SAII@Z 00578f30 f   AGKWindows:Wrapper.obj
 0002:00065020       ?GetNetworkMessageInteger@agk@AGK@@SAHI@Z 00579020 f   AGKWindows:Wrapper.obj
 0002:00065110       ?GetNetworkMessageFloat@agk@AGK@@SAMI@Z 00579110 f   AGKWindows:Wrapper.obj
 0002:00065200       ?GetNetworkMessageString@agk@AGK@@SAPADI@Z 00579200 f   AGKWindows:Wrapper.obj
 0002:00065390       ?DeleteNetworkMessage@agk@AGK@@SAXI@Z 00579390 f   AGKWindows:Wrapper.obj
 0002:00065400       ?SendNetworkMessage@agk@AGK@@SAXIII@Z 00579400 f   AGKWindows:Wrapper.obj
 0002:00065560       ?GetNetworkMessage@agk@AGK@@SAII@Z 00579560 f   AGKWindows:Wrapper.obj
 0002:00065690       ?SetNetworkClientUserData@agk@AGK@@SAXIIIH@Z 00579690 f   AGKWindows:Wrapper.obj
 0002:00065780       ?GetNetworkClientUserData@agk@AGK@@SAHIII@Z 00579780 f   AGKWindows:Wrapper.obj
 0002:00065880       ?CreateHTTPConnection@agk@AGK@@SAIXZ 00579880 f   AGKWindows:Wrapper.obj
 0002:00065940       ?DeleteHTTPConnection@agk@AGK@@SAXI@Z 00579940 f   AGKWindows:Wrapper.obj
 0002:000659c0       ?SetHTTPHost@agk@AGK@@SAIIPBDH@Z 005799c0 f   AGKWindows:Wrapper.obj
 0002:000659f0       ?SetHTTPHost@agk@AGK@@SAIIPBDH00@Z 005799f0 f   AGKWindows:Wrapper.obj
 0002:00065b40       ?CloseHTTPConnection@agk@AGK@@SAXI@Z 00579b40 f   AGKWindows:Wrapper.obj
 0002:00065c20       ?SendHTTPRequest@agk@AGK@@SAPADIPBD@Z 00579c20 f   AGKWindows:Wrapper.obj
 0002:00065c40       ?SendHTTPRequest@agk@AGK@@SAPADIPBD0@Z 00579c40 f   AGKWindows:Wrapper.obj
 0002:00065d40       ?SendHTTPRequestASync@agk@AGK@@SAHIPBD@Z 00579d40 f   AGKWindows:Wrapper.obj
 0002:00065d60       ?SendHTTPRequestASync@agk@AGK@@SAHIPBD0@Z 00579d60 f   AGKWindows:Wrapper.obj
 0002:00065e60       ?SendHTTPFile@agk@AGK@@SAHIPBD00@Z 00579e60 f   AGKWindows:Wrapper.obj
 0002:00065f60       ?GetHTTPResponse@agk@AGK@@SAPADI@Z 00579f60 f   AGKWindows:Wrapper.obj
 0002:00065fe0       ?GetHTTPResponseReady@agk@AGK@@SAHI@Z 00579fe0 f   AGKWindows:Wrapper.obj
 0002:000660d0       ?GetHTTPResponseC@agk@AGK@@SAPBDI@Z 0057a0d0 f   AGKWindows:Wrapper.obj
 0002:000661c0       ?GetHTTPFile@agk@AGK@@SAHIPBD0@Z 0057a1c0 f   AGKWindows:Wrapper.obj
 0002:000661f0       ?GetHTTPFile@agk@AGK@@SAHIPBD00@Z 0057a1f0 f   AGKWindows:Wrapper.obj
 0002:000662f0       ?GetHTTPFileComplete@agk@AGK@@SAHI@Z 0057a2f0 f   AGKWindows:Wrapper.obj
 0002:000663f0       ?GetHTTPFileProgress@agk@AGK@@SAMI@Z 0057a3f0 f   AGKWindows:Wrapper.obj
 0002:000664e0       ?SetErrorMode@agk@AGK@@SAXH@Z 0057a4e0 f   AGKWindows:Wrapper.obj
 0002:000664f0       ?GetLastError@agk@AGK@@SAHAAVuString@2@@Z 0057a4f0 f   AGKWindows:Wrapper.obj
 0002:00066520       ?GetLastError@agk@AGK@@SAPADXZ 0057a520 f   AGKWindows:Wrapper.obj
 0002:00066580       ?GetErrorOccurred@agk@AGK@@SAHXZ 0057a580 f   AGKWindows:Wrapper.obj
 0002:000665b0       ?SetWarningCallback@agk@AGK@@SAXP6AXPBD@Z@Z 0057a5b0 f   AGKWindows:Wrapper.obj
 0002:000665c0       ?SetErrorCallback@agk@AGK@@SAXP6AXPBD@Z@Z 0057a5c0 f   AGKWindows:Wrapper.obj
 0002:000665d0       ?Error@agk@AGK@@SAXABVuString@2@@Z 0057a5d0 f   AGKWindows:Wrapper.obj
 0002:00066710       ?Warning@agk@AGK@@SAXABVuString@2@@Z 0057a710 f   AGKWindows:Wrapper.obj
 0002:00066810       ?Message@agk@AGK@@SAXPBD@Z 0057a810 f   AGKWindows:Wrapper.obj
 0002:00066830       ?GetJoystickExists@agk@AGK@@SAHXZ 0057a830 f   AGKWindows:Wrapper.obj
 0002:00066870       ?GetRawMouseX@agk@AGK@@SAMXZ 0057a870 f   AGKWindows:Wrapper.obj
 0002:000668a0       ?GetRawMouseY@agk@AGK@@SAMXZ 0057a8a0 f   AGKWindows:Wrapper.obj
 0002:000668d0       ?GetRawMouseLeftPressed@agk@AGK@@SAHXZ 0057a8d0 f   AGKWindows:Wrapper.obj
 0002:00066900       ?GetRawMouseLeftState@agk@AGK@@SAHXZ 0057a900 f   AGKWindows:Wrapper.obj
 0002:00066930       ?GetRawMouseLeftReleased@agk@AGK@@SAHXZ 0057a930 f   AGKWindows:Wrapper.obj
 0002:00066960       ?GetRawMouseRightPressed@agk@AGK@@SAHXZ 0057a960 f   AGKWindows:Wrapper.obj
 0002:00066990       ?GetRawMouseRightState@agk@AGK@@SAHXZ 0057a990 f   AGKWindows:Wrapper.obj
 0002:000669c0       ?GetRawMouseRightReleased@agk@AGK@@SAHXZ 0057a9c0 f   AGKWindows:Wrapper.obj
 0002:000669f0       ?FixOrientationByDefault@agk@AGK@@SAXXZ 0057a9f0 f   AGKWindows:Wrapper.obj
 0002:00066ab0       ?GetRawAccelX@agk@AGK@@SAMXZ 0057aab0 f   AGKWindows:Wrapper.obj
 0002:00066b30       ?GetRawAccelY@agk@AGK@@SAMXZ 0057ab30 f   AGKWindows:Wrapper.obj
 0002:00066bb0       ?GetRawAccelZ@agk@AGK@@SAMXZ 0057abb0 f   AGKWindows:Wrapper.obj
 0002:00066bd0       ?CompleteRawJoystickDetection@agk@AGK@@SAXXZ 0057abd0 f   AGKWindows:Wrapper.obj
 0002:00066bf0       ?GetRawJoystickExists@agk@AGK@@SAHI@Z 0057abf0 f   AGKWindows:Wrapper.obj
 0002:00066cb0       ?GetRawJoystickX@agk@AGK@@SAMI@Z 0057acb0 f   AGKWindows:Wrapper.obj
 0002:00066de0       ?GetRawJoystickY@agk@AGK@@SAMI@Z 0057ade0 f   AGKWindows:Wrapper.obj
 0002:00066f10       ?GetRawJoystickZ@agk@AGK@@SAMI@Z 0057af10 f   AGKWindows:Wrapper.obj
 0002:00067040       ?GetRawJoystickRX@agk@AGK@@SAMI@Z 0057b040 f   AGKWindows:Wrapper.obj
 0002:00067170       ?GetRawJoystickRY@agk@AGK@@SAMI@Z 0057b170 f   AGKWindows:Wrapper.obj
 0002:000672a0       ?GetRawJoystickRZ@agk@AGK@@SAMI@Z 0057b2a0 f   AGKWindows:Wrapper.obj
 0002:000673d0       ?GetRawJoystickButtonPressed@agk@AGK@@SAHII@Z 0057b3d0 f   AGKWindows:Wrapper.obj
 0002:00067550       ?GetRawJoystickButtonState@agk@AGK@@SAHII@Z 0057b550 f   AGKWindows:Wrapper.obj
 0002:000676d0       ?GetRawJoystickButtonReleased@agk@AGK@@SAHII@Z 0057b6d0 f   AGKWindows:Wrapper.obj
 0002:00067850       ?SetRawJoystickDeadZone@agk@AGK@@SAXM@Z 0057b850 f   AGKWindows:Wrapper.obj
 0002:00067870       ?AddVirtualJoystick@agk@AGK@@SAXIMMM@Z 0057b870 f   AGKWindows:Wrapper.obj
 0002:000679e0       ?DeleteVirtualJoystick@agk@AGK@@SAXI@Z 0057b9e0 f   AGKWindows:Wrapper.obj
 0002:00067ad0       ?GetVirtualJoystickExists@agk@AGK@@SAHI@Z 0057bad0 f   AGKWindows:Wrapper.obj
 0002:00067b80       ?GetVirtualJoystickX@agk@AGK@@SAMI@Z 0057bb80 f   AGKWindows:Wrapper.obj
 0002:00067cb0       ?GetVirtualJoystickY@agk@AGK@@SAMI@Z 0057bcb0 f   AGKWindows:Wrapper.obj
 0002:00067de0       ?SetVirtualJoystickAlpha@agk@AGK@@SAXIII@Z 0057bde0 f   AGKWindows:Wrapper.obj
 0002:00067f10       ?SetVirtualJoystickPosition@agk@AGK@@SAXIMM@Z 0057bf10 f   AGKWindows:Wrapper.obj
 0002:00068050       ?SetVirtualJoystickSize@agk@AGK@@SAXIM@Z 0057c050 f   AGKWindows:Wrapper.obj
 0002:00068180       ?SetVirtualJoystickActive@agk@AGK@@SAXIH@Z 0057c180 f   AGKWindows:Wrapper.obj
 0002:000682b0       ?SetVirtualJoystickVisible@agk@AGK@@SAXIH@Z 0057c2b0 f   AGKWindows:Wrapper.obj
 0002:000683e0       ?SetVirtualJoystickImageInner@agk@AGK@@SAXII@Z 0057c3e0 f   AGKWindows:Wrapper.obj
 0002:00068580       ?SetVirtualJoystickImageOuter@agk@AGK@@SAXII@Z 0057c580 f   AGKWindows:Wrapper.obj
 0002:00068720       ?SetVirtualJoystickDeadZone@agk@AGK@@SAXM@Z 0057c720 f   AGKWindows:Wrapper.obj
 0002:00068740       ?AddVirtualButton@agk@AGK@@SAXIMMM@Z 0057c740 f   AGKWindows:Wrapper.obj
 0002:000688b0       ?DeleteVirtualButton@agk@AGK@@SAXI@Z 0057c8b0 f   AGKWindows:Wrapper.obj
 0002:000689a0       ?GetVirtualButtonExists@agk@AGK@@SAHI@Z 0057c9a0 f   AGKWindows:Wrapper.obj
 0002:00068a50       ?GetVirtualButtonPressed@agk@AGK@@SAHI@Z 0057ca50 f   AGKWindows:Wrapper.obj
 0002:00068b90       ?GetVirtualButtonReleased@agk@AGK@@SAHI@Z 0057cb90 f   AGKWindows:Wrapper.obj
 0002:00068cd0       ?GetVirtualButtonState@agk@AGK@@SAHI@Z 0057ccd0 f   AGKWindows:Wrapper.obj
 0002:00068e10       ?SetVirtualButtonColor@agk@AGK@@SAXIIII@Z 0057ce10 f   AGKWindows:Wrapper.obj
 0002:00068f40       ?SetVirtualButtonAlpha@agk@AGK@@SAXII@Z 0057cf40 f   AGKWindows:Wrapper.obj
 0002:00069070       ?SetVirtualButtonPosition@agk@AGK@@SAXIMM@Z 0057d070 f   AGKWindows:Wrapper.obj
 0002:000691b0       ?SetVirtualButtonSize@agk@AGK@@SAXIM@Z 0057d1b0 f   AGKWindows:Wrapper.obj
 0002:000692e0       ?SetVirtualButtonActive@agk@AGK@@SAXIH@Z 0057d2e0 f   AGKWindows:Wrapper.obj
 0002:00069410       ?SetVirtualButtonVisible@agk@AGK@@SAXIH@Z 0057d410 f   AGKWindows:Wrapper.obj
 0002:00069540       ?SetVirtualButtonImageUp@agk@AGK@@SAXII@Z 0057d540 f   AGKWindows:Wrapper.obj
 0002:000696e0       ?SetVirtualButtonImageDown@agk@AGK@@SAXII@Z 0057d6e0 f   AGKWindows:Wrapper.obj
 0002:00069880       ?SetVirtualButtonText@agk@AGK@@SAXIPBD@Z 0057d880 f   AGKWindows:Wrapper.obj
 0002:000699b0       ?GetRawKeyPressed@agk@AGK@@SAHI@Z 0057d9b0 f   AGKWindows:Wrapper.obj
 0002:000699f0       ?GetRawKeyState@agk@AGK@@SAHI@Z 0057d9f0 f   AGKWindows:Wrapper.obj
 0002:00069a10       ?GetRawKeyReleased@agk@AGK@@SAHI@Z 0057da10 f   AGKWindows:Wrapper.obj
 0002:00069a50       ?GetRawLastKey@agk@AGK@@SAHXZ 0057da50 f   AGKWindows:Wrapper.obj
 0002:00069a60       ?GetDirectionX@agk@AGK@@SAMXZ 0057da60 f   AGKWindows:Wrapper.obj
 0002:00069b00       ?GetDirectionY@agk@AGK@@SAMXZ 0057db00 f   AGKWindows:Wrapper.obj
 0002:00069ba0       ?GetDirectionAngle@agk@AGK@@SAMXZ 0057dba0 f   AGKWindows:Wrapper.obj
 0002:00069d10       ?GetDirectionSpeed@agk@AGK@@SAMXZ 0057dd10 f   AGKWindows:Wrapper.obj
 0002:00069e90       ?GetPointerPressed@agk@AGK@@SAHXZ 0057de90 f   AGKWindows:Wrapper.obj
 0002:00069ec0       ?GetPointerReleased@agk@AGK@@SAHXZ 0057dec0 f   AGKWindows:Wrapper.obj
 0002:00069ef0       ?GetPointerState@agk@AGK@@SAHXZ 0057def0 f   AGKWindows:Wrapper.obj
 0002:00069f00       ?GetPointerX@agk@AGK@@SAMXZ 0057df00 f   AGKWindows:Wrapper.obj
 0002:00069f40       ?GetPointerY@agk@AGK@@SAMXZ 0057df40 f   AGKWindows:Wrapper.obj
 0002:00069f80       ?GetJoystickX@agk@AGK@@SAMXZ 0057df80 f   AGKWindows:Wrapper.obj
 0002:0006a0d0       ?GetJoystickY@agk@AGK@@SAMXZ 0057e0d0 f   AGKWindows:Wrapper.obj
 0002:0006a220       ?SetJoystickDeadZone@agk@AGK@@SAXM@Z 0057e220 f   AGKWindows:Wrapper.obj
 0002:0006a230       ?SetJoystickScreenPosition@agk@AGK@@SAXMMM@Z 0057e230 f   AGKWindows:Wrapper.obj
 0002:0006a2c0       ?GetButtonPressed@agk@AGK@@SAHI@Z 0057e2c0 f   AGKWindows:Wrapper.obj
 0002:0006a4c0       ?GetButtonState@agk@AGK@@SAHI@Z 0057e4c0 f   AGKWindows:Wrapper.obj
 0002:0006a6a0       ?GetButtonReleased@agk@AGK@@SAHI@Z 0057e6a0 f   AGKWindows:Wrapper.obj
 0002:0006a880       ?SetButtonScreenPosition@agk@AGK@@SAXIMMM@Z 0057e880 f   AGKWindows:Wrapper.obj
 0002:0006a9a0       ?StartTextInput@agk@AGK@@SAXXZ 0057e9a0 f   AGKWindows:Wrapper.obj
 0002:0006a9e0       ?StartTextInput@agk@AGK@@SAXPBD@Z 0057e9e0 f   AGKWindows:Wrapper.obj
 0002:0006aa30       ?StopTextInput@agk@AGK@@SAXXZ 0057ea30 f   AGKWindows:Wrapper.obj
 0002:0006aa40       ?GetTextInputState@agk@AGK@@SAHXZ 0057ea40 f   AGKWindows:Wrapper.obj
 0002:0006aa60       ?GetTextInputCompleted@agk@AGK@@SAHXZ 0057ea60 f   AGKWindows:Wrapper.obj
 0002:0006aaa0       ?GetTextInputCancelled@agk@AGK@@SAHXZ 0057eaa0 f   AGKWindows:Wrapper.obj
 0002:0006aac0       ?GetTextInput@agk@AGK@@SAPADXZ 0057eac0 f   AGKWindows:Wrapper.obj
 0002:0006ab20       ?GetTextInput@agk@AGK@@SAHAAVuString@2@@Z 0057eb20 f   AGKWindows:Wrapper.obj
 0002:0006ab50       ?GetPrevChar@agk@AGK@@SAIXZ 0057eb50 f   AGKWindows:Wrapper.obj
 0002:0006ab60       ?GetLastChar@agk@AGK@@SAIXZ 0057eb60 f   AGKWindows:Wrapper.obj
 0002:0006ab70       ?SetCursorBlinkTime@agk@AGK@@SAXM@Z 0057eb70 f   AGKWindows:Wrapper.obj
 0002:0006aba0       ?SetTextInputMaxChars@agk@AGK@@SAXH@Z 0057eba0 f   AGKWindows:Wrapper.obj
 0002:0006abc0       ?SetTextInputLabel@agk@AGK@@SAXPBD@Z 0057ebc0 f   AGKWindows:Wrapper.obj
 0002:0006abe0       ?CreateEditBox@agk@AGK@@SAXI@Z 0057ebe0 f   AGKWindows:Wrapper.obj
 0002:0006ad40       ?CreateEditBox@agk@AGK@@SAIXZ 0057ed40 f   AGKWindows:Wrapper.obj
 0002:0006ae40       ?GetEditBoxExists@agk@AGK@@SAHI@Z 0057ee40 f   AGKWindows:Wrapper.obj
 0002:0006ae80       ?DeleteEditBox@agk@AGK@@SAXI@Z 0057ee80 f   AGKWindows:Wrapper.obj
 0002:0006af00       ?GetEditBoxHasFocus@agk@AGK@@SAHI@Z 0057ef00 f   AGKWindows:Wrapper.obj
 0002:0006b010       ?GetCurrentEditBox@agk@AGK@@SAIXZ 0057f010 f   AGKWindows:Wrapper.obj
 0002:0006b080       ?SetEditBoxPosition@agk@AGK@@SAXIMM@Z 0057f080 f   AGKWindows:Wrapper.obj
 0002:0006b180       ?SetEditBoxSize@agk@AGK@@SAXIMM@Z 0057f180 f   AGKWindows:Wrapper.obj
 0002:0006b280       ?SetEditBoxDepth@agk@AGK@@SAXIH@Z 0057f280 f   AGKWindows:Wrapper.obj
 0002:0006b380       ?SetEditBoxBorderSize@agk@AGK@@SAXIM@Z 0057f380 f   AGKWindows:Wrapper.obj
 0002:0006b480       ?SetEditBoxBorderColor@agk@AGK@@SAXIIIII@Z 0057f480 f   AGKWindows:Wrapper.obj
 0002:0006b580       ?SetEditBoxBackgroundColor@agk@AGK@@SAXIIIII@Z 0057f580 f   AGKWindows:Wrapper.obj
 0002:0006b680       ?SetEditBoxText@agk@AGK@@SAXIPBD@Z 0057f680 f   AGKWindows:Wrapper.obj
 0002:0006b780       ?SetEditBoxTextColor@agk@AGK@@SAXIIII@Z 0057f780 f   AGKWindows:Wrapper.obj
 0002:0006b880       ?SetEditBoxCursorColor@agk@AGK@@SAXIIII@Z 0057f880 f   AGKWindows:Wrapper.obj
 0002:0006b980       ?SetEditBoxFontImage@agk@AGK@@SAXII@Z 0057f980 f   AGKWindows:Wrapper.obj
 0002:0006baf0       ?SetEditBoxTextSize@agk@AGK@@SAXIM@Z 0057faf0 f   AGKWindows:Wrapper.obj
 0002:0006bbf0       ?SetEditBoxFocus@agk@AGK@@SAXIH@Z 0057fbf0 f   AGKWindows:Wrapper.obj
 0002:0006bcf0       ?SetEditBoxActive@agk@AGK@@SAXIH@Z 0057fcf0 f   AGKWindows:Wrapper.obj
 0002:0006bdf0       ?SetEditBoxVisible@agk@AGK@@SAXIH@Z 0057fdf0 f   AGKWindows:Wrapper.obj
 0002:0006bef0       ?SetEditBoxBorderImage@agk@AGK@@SAXII@Z 0057fef0 f   AGKWindows:Wrapper.obj
 0002:0006c060       ?SetEditBoxBackgroundImage@agk@AGK@@SAXII@Z 00580060 f   AGKWindows:Wrapper.obj
 0002:0006c1d0       ?SetEditBoxCursorBlinkTime@agk@AGK@@SAXIM@Z 005801d0 f   AGKWindows:Wrapper.obj
 0002:0006c2d0       ?SetEditBoxCursorWidth@agk@AGK@@SAXIM@Z 005802d0 f   AGKWindows:Wrapper.obj
 0002:0006c3d0       ?SetEditBoxMaxChars@agk@AGK@@SAXII@Z 005803d0 f   AGKWindows:Wrapper.obj
 0002:0006c4d0       ?SetEditBoxMaxLines@agk@AGK@@SAXII@Z 005804d0 f   AGKWindows:Wrapper.obj
 0002:0006c5d0       ?SetEditBoxMultiLine@agk@AGK@@SAXIH@Z 005805d0 f   AGKWindows:Wrapper.obj
 0002:0006c6d0       ?SetEditBoxScissor@agk@AGK@@SAXIMMMM@Z 005806d0 f   AGKWindows:Wrapper.obj
 0002:0006c7e0       ?FixEditBoxToScreen@agk@AGK@@SAXIH@Z 005807e0 f   AGKWindows:Wrapper.obj
 0002:0006c8e0       ?GetEditBoxText@agk@AGK@@SAPADI@Z 005808e0 f   AGKWindows:Wrapper.obj
 0002:0006c9e0       ?GetEditBoxX@agk@AGK@@SAMI@Z 005809e0 f   AGKWindows:Wrapper.obj
 0002:0006cae0       ?GetEditBoxY@agk@AGK@@SAMI@Z 00580ae0 f   AGKWindows:Wrapper.obj
 0002:0006cbe0       ?GetEditBoxWidth@agk@AGK@@SAMI@Z 00580be0 f   AGKWindows:Wrapper.obj
 0002:0006cce0       ?GetEditBoxHeight@agk@AGK@@SAMI@Z 00580ce0 f   AGKWindows:Wrapper.obj
 0002:0006cde0       ?GetEditBoxChanged@agk@AGK@@SAHI@Z 00580de0 f   AGKWindows:Wrapper.obj
 0002:0006cee0       ?GetEditBoxActive@agk@AGK@@SAHI@Z 00580ee0 f   AGKWindows:Wrapper.obj
 0002:0006cfe0       ?GetEditBoxVisible@agk@AGK@@SAHI@Z 00580fe0 f   AGKWindows:Wrapper.obj
 0002:0006d0e0       ?GetEditBoxLines@agk@AGK@@SAHI@Z 005810e0 f   AGKWindows:Wrapper.obj
 0002:0006d1e0       ?GetManagedSpriteDrawnCount@agk@AGK@@SAIXZ 005811e0 f   AGKWindows:Wrapper.obj
 0002:0006d200       ?GetManagedSpriteCount@agk@AGK@@SAIXZ 00581200 f   AGKWindows:Wrapper.obj
 0002:0006d220       ?GetManagedSpriteSortedCount@agk@AGK@@SAIXZ 00581220 f   AGKWindows:Wrapper.obj
 0002:0006d240       ?GetPixelsDrawn@agk@AGK@@SAIXZ 00581240 f   AGKWindows:Wrapper.obj
 0002:0006d250       ?GetManagedSpriteDrawCalls@agk@AGK@@SAIXZ 00581250 f   AGKWindows:Wrapper.obj
 0002:0006d270       ?GetParticleDrawnPointCount@agk@AGK@@SAIXZ 00581270 f   AGKWindows:Wrapper.obj
 0002:0006d280       ?GetParticleDrawnQuadCount@agk@AGK@@SAIXZ 00581280 f   AGKWindows:Wrapper.obj
 0002:0006d290       ?GetUpdateTime@agk@AGK@@SAMXZ 00581290 f   AGKWindows:Wrapper.obj
 0002:0006d2a0       ?GetPhysicsTime@agk@AGK@@SAMXZ 005812a0 f   AGKWindows:Wrapper.obj
 0002:0006d2b0       ?GetDrawingSetupTime@agk@AGK@@SAMXZ 005812b0 f   AGKWindows:Wrapper.obj
 0002:0006d2c0       ?GetDrawingTime@agk@AGK@@SAMXZ 005812c0 f   AGKWindows:Wrapper.obj
 0002:0006d2d0       ?GetLeapYear@agk@AGK@@SAHH@Z 005812d0 f   AGKWindows:Wrapper.obj
 0002:0006d330       ?GetUnixFromDate64@agk@AGK@@SA_JHHHHHH@Z 00581330 f   AGKWindows:Wrapper.obj
 0002:0006d5d0       ?GetYearFromUnix64@agk@AGK@@SAH_JPAH@Z 005815d0 f   AGKWindows:Wrapper.obj
 0002:0006d770       ?GetMonthFromUnix64@agk@AGK@@SAH_J@Z 00581770 f   AGKWindows:Wrapper.obj
 0002:0006d850       ?GetDayFromUnix64@agk@AGK@@SAH_J@Z 00581850 f   AGKWindows:Wrapper.obj
 0002:0006d950       ?GetHoursFromUnix64@agk@AGK@@SAH_J@Z 00581950 f   AGKWindows:Wrapper.obj
 0002:0006d9d0       ?GetMinutesFromUnix64@agk@AGK@@SAH_J@Z 005819d0 f   AGKWindows:Wrapper.obj
 0002:0006da50       ?GetSecondsFromUnix64@agk@AGK@@SAH_J@Z 00581a50 f   AGKWindows:Wrapper.obj
 0002:0006daa0       ?GetUnixFromDate@agk@AGK@@SAHHHHHHH@Z 00581aa0 f   AGKWindows:Wrapper.obj
 0002:0006dd20       ?GetYearFromUnix32@agk@AGK@@SAHHPAH@Z 00581d20 f   AGKWindows:Wrapper.obj
 0002:0006de90       ?GetYearFromUnix@agk@AGK@@SAHH@Z 00581e90 f   AGKWindows:Wrapper.obj
 0002:0006df10       ?GetMonthFromUnix@agk@AGK@@SAHH@Z 00581f10 f   AGKWindows:Wrapper.obj
 0002:0006dff0       ?GetDaysFromUnix@agk@AGK@@SAHH@Z 00581ff0 f   AGKWindows:Wrapper.obj
 0002:0006e0f0       ?GetHoursFromUnix@agk@AGK@@SAHH@Z 005820f0 f   AGKWindows:Wrapper.obj
 0002:0006e140       ?GetMinutesFromUnix@agk@AGK@@SAHH@Z 00582140 f   AGKWindows:Wrapper.obj
 0002:0006e190       ?GetSecondsFromUnix@agk@AGK@@SAHH@Z 00582190 f   AGKWindows:Wrapper.obj
 0002:0006e1c0       ?SetInneractiveDetails@agk@AGK@@SAXPBD@Z 005821c0 f   AGKWindows:Wrapper.obj
 0002:0006e210       ?CreateAdvert@agk@AGK@@SAXHHHH@Z 00582210 f   AGKWindows:Wrapper.obj
 0002:0006e750       ?SetAdvertPosition@agk@AGK@@SAXMMM@Z 00582750 f   AGKWindows:Wrapper.obj
 0002:0006e820       ?SetAdvertLocation@agk@AGK@@SAXHHM@Z 00582820 f   AGKWindows:Wrapper.obj
 0002:0006e9b0       ?DeleteAdvert@agk@AGK@@SAXXZ 005829b0 f   AGKWindows:Wrapper.obj
 0002:0006ea60       ?UpdateAd@agk@AGK@@KAXXZ   00582a60 f   AGKWindows:Wrapper.obj
 0002:0006f890       ?DrawAd@agk@AGK@@KAXXZ     00583890 f   AGKWindows:Wrapper.obj
 0002:0006f8b0       ?CreateZip@agk@AGK@@SAXIPBD@Z 005838b0 f   AGKWindows:Wrapper.obj
 0002:0006fa00       ?CreateZip@agk@AGK@@SAIPBD@Z 00583a00 f   AGKWindows:Wrapper.obj
 0002:0006faf0       ?AddZipEntry@agk@AGK@@SAXIPBD0@Z 00583af0 f   AGKWindows:Wrapper.obj
 0002:0006fbf0       ?CloseZip@agk@AGK@@SAXI@Z  00583bf0 f   AGKWindows:Wrapper.obj
 0002:0006fd10       ?ExtractZip@agk@AGK@@SAXPBD0@Z 00583d10 f   AGKWindows:Wrapper.obj
 0002:0006fd30       ?CreateObjectBox@agk@AGK@@SAXIMMM@Z 00583d30 f   AGKWindows:Wrapper.obj
 0002:0006fd40       ?CreateObjectBox@agk@AGK@@SAIMMM@Z 00583d40 f   AGKWindows:Wrapper.obj
 0002:0007b240       ??BuString@AGK@@QBEPBDXZ   0058f240 f i AGKWindows:Wrapper.obj
 0002:0007b280       ??0cFileEntry@AGK@@QAE@XZ  0058f280 f i AGKWindows:Wrapper.obj
 0002:0007b320       ??_GcFileEntry@AGK@@QAEPAXI@Z 0058f320 f i AGKWindows:Wrapper.obj
 0002:0007b370       ??1cFileEntry@AGK@@QAE@XZ  0058f370 f i AGKWindows:Wrapper.obj
 0002:0007b3f0       ?SetStr@uString@AGK@@QAEXABV12@@Z 0058f3f0 f i AGKWindows:Wrapper.obj
 0002:0007b430       ??0b2Vec2@@QAE@XZ          0058f430 f i AGKWindows:Wrapper.obj
 0002:0007b450       ?Set@b2Vec2@@QAEXMM@Z      0058f450 f i AGKWindows:Wrapper.obj
 0002:0007b480       ??_GcImage@AGK@@QAEPAXI@Z  0058f480 f i AGKWindows:Wrapper.obj
 0002:0007b4d0       ??_GcSprite@AGK@@QAEPAXI@Z 0058f4d0 f i AGKWindows:Wrapper.obj
 0002:0007b520       ??_GcText@AGK@@QAEPAXI@Z   0058f520 f i AGKWindows:Wrapper.obj
 0002:0007b570       ??_GcForce@AGK@@QAEPAXI@Z  0058f570 f i AGKWindows:Wrapper.obj
 0002:0007b5c0       ??_GcFile@AGK@@QAEPAXI@Z   0058f5c0 f i AGKWindows:Wrapper.obj
 0002:0007b610       ??_GcNetworkMessage@AGK@@QAEPAXI@Z 0058f610 f i AGKWindows:Wrapper.obj
 0002:0007b660       ??1cNetworkMessage@AGK@@QAE@XZ 0058f660 f i AGKWindows:Wrapper.obj
 0002:0007b6f0       ??1AGKPacket@AGK@@QAE@XZ   0058f6f0 f i AGKWindows:Wrapper.obj
 0002:0007b710       ??_GBroadcastListener@AGK@@QAEPAXI@Z 0058f710 f i AGKWindows:Wrapper.obj
 0002:0007b760       ??_GcParticleEmitter@AGK@@QAEPAXI@Z 0058f760 f i AGKWindows:Wrapper.obj
 0002:0007b7b0       ??_GcEditBox@AGK@@QAEPAXI@Z 0058f7b0 f i AGKWindows:Wrapper.obj
 0002:0007b800       ??_GZipFile@AGK@@QAEPAXI@Z 0058f800 f i AGKWindows:Wrapper.obj
 0002:0007b850       ??_Gb2World@@QAEPAXI@Z     0058f850 f i AGKWindows:Wrapper.obj
 0002:0007b8a0       ?GetLength@uString@AGK@@QBEIXZ 0058f8a0 f i AGKWindows:Wrapper.obj
 0002:0007b8c0       ?GetFixed@cEditBox@AGK@@QAE_NXZ 0058f8c0 f i AGKWindows:Wrapper.obj
 0002:0007b8e0       ?GetActive@cEditBox@AGK@@QAE_NXZ 0058f8e0 f i AGKWindows:Wrapper.obj
 0002:0007b900       ?GetVisible@cEditBox@AGK@@QAE_NXZ 0058f900 f i AGKWindows:Wrapper.obj
 0002:0007b920       ?CaptureTouch@cTouch@AGK@@QAEXXZ 0058f920 f i AGKWindows:Wrapper.obj
 0002:0007b940       ?CaptureTouch@cVirtualButton@AGK@@QAEXPAVcTouch@2@@Z 0058f940 f i AGKWindows:Wrapper.obj
 0002:0007b970       ?CaptureTouch@cVirtualJoystick@AGK@@QAEXPAVcTouch@2@@Z 0058f970 f i AGKWindows:Wrapper.obj
 0002:0007b9a0       ?CaptureMouse@cVirtualButton@AGK@@QAEXPAVcMouse@2@@Z 0058f9a0 f i AGKWindows:Wrapper.obj
 0002:0007b9d0       ?CaptureMouse@cVirtualJoystick@AGK@@QAEXPAVcMouse@2@@Z 0058f9d0 f i AGKWindows:Wrapper.obj
 0002:0007ba00       ??0cMouse@AGK@@QAE@XZ      0058fa00 f i AGKWindows:Wrapper.obj
 0002:0007ba40       ?CaptureMouse@cMouse@AGK@@QAEXXZ 0058fa40 f i AGKWindows:Wrapper.obj
 0002:0007ba70       ?SetButton@cMouse@AGK@@QAEXHH@Z 0058fa70 f i AGKWindows:Wrapper.obj
 0002:0007bb30       ?ReleaseMouse@cMouse@AGK@@QAEXXZ 0058fb30 f i AGKWindows:Wrapper.obj
 0002:0007bb60       ?GetX@cMouse@AGK@@QAEMXZ   0058fb60 f i AGKWindows:Wrapper.obj
 0002:0007bb80       ?GetY@cMouse@AGK@@QAEMXZ   0058fb80 f i AGKWindows:Wrapper.obj
 0002:0007bba0       ?SetPosition@cMouse@AGK@@QAEXMM@Z 0058fba0 f i AGKWindows:Wrapper.obj
 0002:0007bbd0       ??YuString@AGK@@QAEAAV01@I@Z 0058fbd0 f i AGKWindows:Wrapper.obj
 0002:0007bc10       ?WorldToPhyX@agk@AGK@@SAMM@Z 0058fc10 f i AGKWindows:Wrapper.obj
 0002:0007bc40       ?WorldToPhyY@agk@AGK@@SAMM@Z 0058fc40 f i AGKWindows:Wrapper.obj
 0002:0007bc70       ??0b2PolygonShape@@QAE@XZ  0058fc70 f i AGKWindows:Wrapper.obj
 0002:0007bd70       ?SetZero@b2Vec2@@QAEXXZ    0058fd70 f i AGKWindows:Wrapper.obj
 0002:0007bda0       ??1b2Shape@@UAE@XZ         0058fda0 f i AGKWindows:Wrapper.obj
 0002:0007bdd0       ??_Eb2Shape@@UAEPAXI@Z     0058fdd0 f i AGKWindows:Wrapper.obj
 0002:0007bdd0       ??_Gb2Shape@@UAEPAXI@Z     0058fdd0 f i AGKWindows:Wrapper.obj
 0002:0007be20       ??0b2Shape@@QAE@XZ         0058fe20 f i AGKWindows:Wrapper.obj
 0002:0007be50       ??_Gb2PolygonShape@@UAEPAXI@Z 0058fe50 f i AGKWindows:Wrapper.obj
 0002:0007be50       ??_Eb2PolygonShape@@UAEPAXI@Z 0058fe50 f i AGKWindows:Wrapper.obj
 0002:0007bea0       ??1b2PolygonShape@@UAE@XZ  0058fea0 f i AGKWindows:Wrapper.obj
 0002:0007bed0       ??0b2BodyDef@@QAE@XZ       0058fed0 f i AGKWindows:Wrapper.obj
 0002:0007bfd0       ??0b2Vec2@@QAE@MM@Z        0058ffd0 f i AGKWindows:Wrapper.obj
 0002:0007c010       ?GetFixtureList@b2Body@@QAEPAVb2Fixture@@XZ 00590010 f i AGKWindows:Wrapper.obj
 0002:0007c030       ?GetType@b2Body@@QBE?AW4b2BodyType@@XZ 00590030 f i AGKWindows:Wrapper.obj
 0002:0007c050       ?GetPosition@b2Body@@QBEABUb2Vec2@@XZ 00590050 f i AGKWindows:Wrapper.obj
 0002:0007c070       ?GetNext@b2Body@@QAEPAV1@XZ 00590070 f i AGKWindows:Wrapper.obj
 0002:0007c090       ?ApplyForce@b2Body@@QAEXABUb2Vec2@@0@Z 00590090 f i AGKWindows:Wrapper.obj
 0002:0007c150       ??Yb2Vec2@@QAEXABU0@@Z     00590150 f i AGKWindows:Wrapper.obj
 0002:0007c1a0       ?b2Cross@@YAMABUb2Vec2@@0@Z 005901a0 f i AGKWindows:Wrapper.obj
 0002:0007c1e0       ??G@YA?AUb2Vec2@@ABU0@0@Z  005901e0 f i AGKWindows:Wrapper.obj
 0002:0007c250       ?SetAwake@b2Body@@QAEX_N@Z 00590250 f i AGKWindows:Wrapper.obj
 0002:0007c310       ?IsAwake@b2Body@@QBE_NXZ   00590310 f i AGKWindows:Wrapper.obj
 0002:0007c340       ?GetBodyList@b2World@@QAEPAVb2Body@@XZ 00590340 f i AGKWindows:Wrapper.obj
 0002:0007c370       ?Update@cMouse@AGK@@QAEXXZ 00590370 f i AGKWindows:Wrapper.obj
 0002:0007c400       ?SetString@cText@AGK@@QAEXABVuString@2@@Z 00590400 f i AGKWindows:Wrapper.obj
 0002:0007c440       ?IsManaged@cText@AGK@@QAE_NXZ 00590440 f i AGKWindows:Wrapper.obj
 0002:0007c460       ?IsManaged@cParticleEmitter@AGK@@QAE_NXZ 00590460 f i AGKWindows:Wrapper.obj
 0002:0007c490       ?SetGravity@b2World@@QAEXABUb2Vec2@@@Z 00590490 f i AGKWindows:Wrapper.obj
 0002:0007c4d0       ?GetUserData@b2Joint@@QBEPAXXZ 005904d0 f i AGKWindows:Wrapper.obj
 0002:0007c4f0       ?SetUserData@b2Joint@@QAEXPAX@Z 005904f0 f i AGKWindows:Wrapper.obj
 0002:0007c520       ??0b2DistanceJointDef@@QAE@XZ 00590520 f i AGKWindows:Wrapper.obj
 0002:0007c5d0       ??0b2JointDef@@QAE@XZ      005905d0 f i AGKWindows:Wrapper.obj
 0002:0007c630       ??0b2RevoluteJointDef@@QAE@XZ 00590630 f i AGKWindows:Wrapper.obj
 0002:0007c710       ??0b2PrismaticJointDef@@QAE@XZ 00590710 f i AGKWindows:Wrapper.obj
 0002:0007c800       ??0b2PulleyJointDef@@QAE@XZ 00590800 f i AGKWindows:Wrapper.obj
 0002:0007c920       ??0b2MouseJointDef@@QAE@XZ 00590920 f i AGKWindows:Wrapper.obj
 0002:0007c9b0       ??0b2WheelJointDef@@QAE@XZ 005909b0 f i AGKWindows:Wrapper.obj
 0002:0007ca90       ??0b2WeldJointDef@@QAE@XZ  00590a90 f i AGKWindows:Wrapper.obj
 0002:0007cb30       ?GetBodyB@b2Joint@@QAEPAVb2Body@@XZ 00590b30 f i AGKWindows:Wrapper.obj
 0002:0007cb50       ??0b2GearJointDef@@QAE@XZ  00590b50 f i AGKWindows:Wrapper.obj
 0002:0007cbb0       ?GetType@b2Joint@@QBE?AW4b2JointType@@XZ 00590bb0 f i AGKWindows:Wrapper.obj
 0002:0007cbd0       ?PhyToWorldX@agk@AGK@@SAMM@Z 00590bd0 f i AGKWindows:Wrapper.obj
 0002:0007cc00       ?PhyToWorldY@agk@AGK@@SAMM@Z 00590c00 f i AGKWindows:Wrapper.obj
 0002:0007cc30       ?GetUserData@b2Body@@QBEPAXXZ 00590c30 f i AGKWindows:Wrapper.obj
 0002:0007cc60       ?GetBody@b2Fixture@@QAEPAVb2Body@@XZ 00590c60 f i AGKWindows:Wrapper.obj
 0002:0007cc80       ??0b2Transform@@QAE@XZ     00590c80 f i AGKWindows:Wrapper.obj
 0002:0007ccc0       ??0b2Rot@@QAE@XZ           00590cc0 f i AGKWindows:Wrapper.obj
 0002:0007cce0       ?Set@b2Transform@@QAEXABUb2Vec2@@M@Z 00590ce0 f i AGKWindows:Wrapper.obj
 0002:0007cd30       ?Set@b2Rot@@QAEXM@Z        00590d30 f i AGKWindows:Wrapper.obj
 0002:0007cd90       _cosf                      00590d90 f i AGKWindows:Wrapper.obj
 0002:0007cdd0       _sinf                      00590dd0 f i AGKWindows:Wrapper.obj
 0002:0007ce10       ?GetShape@b2Fixture@@QAEPAVb2Shape@@XZ 00590e10 f i AGKWindows:Wrapper.obj
 0002:0007ce30       ?GetNext@b2Fixture@@QAEPAV1@XZ 00590e30 f i AGKWindows:Wrapper.obj
 0002:0007ce50       ??0b2RayCastInput@@QAE@XZ  00590e50 f i AGKWindows:Wrapper.obj
 0002:0007ce90       ??0b2RayCastOutput@@QAE@XZ 00590e90 f i AGKWindows:Wrapper.obj
 0002:0007cec0       ?GetContactList@b2World@@QAEPAVb2Contact@@XZ 00590ec0 f i AGKWindows:Wrapper.obj
 0002:0007cef0       ?IsTouching@b2Contact@@QBE_NXZ 00590ef0 f i AGKWindows:Wrapper.obj
 0002:0007cf20       ?GetNext@b2Contact@@QAEPAV1@XZ 00590f20 f i AGKWindows:Wrapper.obj
 0002:0007cf40       ?GetWorldPoint@b2Body@@QBE?AUb2Vec2@@ABU2@@Z 00590f40 f i AGKWindows:Wrapper.obj
 0002:0007cf90       ?b2Mul@@YA?AUb2Vec2@@ABUb2Transform@@ABU1@@Z 00590f90 f i AGKWindows:Wrapper.obj
 0002:0007d030       ?GetManifold@b2Contact@@QAEPAUb2Manifold@@XZ 00591030 f i AGKWindows:Wrapper.obj
 0002:0007d050       ?GetFixtureB@b2Contact@@QAEPAVb2Fixture@@XZ 00591050 f i AGKWindows:Wrapper.obj
 0002:0007d070       ?GetFixtureA@b2Contact@@QAEPAVb2Fixture@@XZ 00591070 f i AGKWindows:Wrapper.obj
 0002:0007d090       ?SetID@cParticleEmitter@AGK@@QAEXI@Z 00591090 f i AGKWindows:Wrapper.obj
 0002:0007d0c0       ?SetVisible@cParticleEmitter@AGK@@QAEXH@Z 005910c0 f i AGKWindows:Wrapper.obj
 0002:0007d0f0       ?SetActive@cParticleEmitter@AGK@@QAEXH@Z 005910f0 f i AGKWindows:Wrapper.obj
 0002:0007d120       ?GetX@cParticleEmitter@AGK@@QAEMXZ 00591120 f i AGKWindows:Wrapper.obj
 0002:0007d140       ?GetY@cParticleEmitter@AGK@@QAEMXZ 00591140 f i AGKWindows:Wrapper.obj
 0002:0007d160       ?GetVisible@cParticleEmitter@AGK@@QAEHXZ 00591160 f i AGKWindows:Wrapper.obj
 0002:0007d190       ?GetActive@cParticleEmitter@AGK@@QAEHXZ 00591190 f i AGKWindows:Wrapper.obj
 0002:0007d1c0       ?GetFrequency@cParticleEmitter@AGK@@QAEMXZ 005911c0 f i AGKWindows:Wrapper.obj
 0002:0007d1e0       ?GetDirectionX@cParticleEmitter@AGK@@QAEMXZ 005911e0 f i AGKWindows:Wrapper.obj
 0002:0007d200       ?GetDirectionY@cParticleEmitter@AGK@@QAEMXZ 00591200 f i AGKWindows:Wrapper.obj
 0002:0007d220       ?GetAngle@cParticleEmitter@AGK@@QAEMXZ 00591220 f i AGKWindows:Wrapper.obj
 0002:0007d260       ?GetAngleRad@cParticleEmitter@AGK@@QAEMXZ 00591260 f i AGKWindows:Wrapper.obj
 0002:0007d280       ?GetSize@cParticleEmitter@AGK@@QAEMXZ 00591280 f i AGKWindows:Wrapper.obj
 0002:0007d2a0       ?GetLife@cParticleEmitter@AGK@@QAEMXZ 005912a0 f i AGKWindows:Wrapper.obj
 0002:0007d2c0       ?GetRed@cText@AGK@@QAEIXZ  005912c0 f i AGKWindows:Wrapper.obj
 0002:0007d2e0       ?GetGreen@cText@AGK@@QAEIXZ 005912e0 f i AGKWindows:Wrapper.obj
 0002:0007d300       ?GetBlue@cText@AGK@@QAEIXZ 00591300 f i AGKWindows:Wrapper.obj
 0002:0007d320       ?GetAlpha@cText@AGK@@QAEIXZ 00591320 f i AGKWindows:Wrapper.obj
 0002:0007d340       ?GetTotalWidth@cText@AGK@@QAEMXZ 00591340 f i AGKWindows:Wrapper.obj
 0002:0007d360       ?GetTotalHeight@cText@AGK@@QAEMXZ 00591360 f i AGKWindows:Wrapper.obj
 0002:0007d380       ?GetVisible@cText@AGK@@QAE_NXZ 00591380 f i AGKWindows:Wrapper.obj
 0002:0007d3a0       ?GetDepth@cText@AGK@@QAEHXZ 005913a0 f i AGKWindows:Wrapper.obj
 0002:0007d3c0       ?GetSize@cText@AGK@@QAEMXZ 005913c0 f i AGKWindows:Wrapper.obj
 0002:0007d3e0       ?GetSpacing@cText@AGK@@QAEMXZ 005913e0 f i AGKWindows:Wrapper.obj
 0002:0007d400       ?GetLineSpacing@cText@AGK@@QAEMXZ 00591400 f i AGKWindows:Wrapper.obj
 0002:0007d420       ?GetText@cText@AGK@@QAEXAAVuString@2@@Z 00591420 f i AGKWindows:Wrapper.obj
 0002:0007d460       ?GetID@cTouch@AGK@@QAEIXZ  00591460 f i AGKWindows:Wrapper.obj
 0002:0007d480       ?GetType@cTouch@AGK@@QAE?AW4eTouchType@12@XZ 00591480 f i AGKWindows:Wrapper.obj
 0002:0007d4a0       ?GetStartX@cTouch@AGK@@QAEMXZ 005914a0 f i AGKWindows:Wrapper.obj
 0002:0007d4c0       ?GetStartY@cTouch@AGK@@QAEMXZ 005914c0 f i AGKWindows:Wrapper.obj
 0002:0007d4e0       ?GetCurrentX@cTouch@AGK@@QAEMXZ 005914e0 f i AGKWindows:Wrapper.obj
 0002:0007d500       ?GetCurrentY@cTouch@AGK@@QAEMXZ 00591500 f i AGKWindows:Wrapper.obj
 0002:0007d520       ?GetLastX@cTouch@AGK@@QAEMXZ 00591520 f i AGKWindows:Wrapper.obj
 0002:0007d540       ?GetLastY@cTouch@AGK@@QAEMXZ 00591540 f i AGKWindows:Wrapper.obj
 0002:0007d560       ?GetReleased@cTouch@AGK@@QAE_NXZ 00591560 f i AGKWindows:Wrapper.obj
 0002:0007d580       ?GetTotalTime@cTouch@AGK@@QAEMXZ 00591580 f i AGKWindows:Wrapper.obj
 0002:0007d5a0       ??0cNetworkMessage@AGK@@QAE@XZ 005915a0 f i AGKWindows:Wrapper.obj
 0002:0007d660       ?IsActive@cNetwork@AGK@@QAE_NXZ 00591660 f i AGKWindows:Wrapper.obj
 0002:0007d690       ?IsRunning@AGKThread@AGK@@QAE_NXZ 00591690 f i AGKWindows:Wrapper.obj
 0002:0007d6b0       ?GetMyID@cNetwork@AGK@@QAEIXZ 005916b0 f i AGKWindows:Wrapper.obj
 0002:0007d6e0       ?GetServerID@cNetwork@AGK@@QAEIXZ 005916e0 f i AGKWindows:Wrapper.obj
 0002:0007d700       ?GetSenderID@cNetworkMessage@AGK@@QAEIXZ 00591700 f i AGKWindows:Wrapper.obj
 0002:0007d730       ?GetProgress@cHTTPConnection@AGK@@QAEMXZ 00591730 f i AGKWindows:Wrapper.obj
 0002:0007d750       ??0cAutoLock@AGK@@QAE@PAVcLock@1@@Z 00591750 f i AGKWindows:Wrapper.obj
 0002:0007d7a0       ?Acquire@cLock@AGK@@QAE_NXZ 005917a0 f i AGKWindows:Wrapper.obj
 0002:0007d7e0       ??1cAutoLock@AGK@@QAE@XZ   005917e0 f i AGKWindows:Wrapper.obj
 0002:0007d810       ?Release@cLock@AGK@@QAEXXZ 00591810 f i AGKWindows:Wrapper.obj
 0002:0007d850       ?GetLeftPressed@cMouse@AGK@@QAE_NXZ 00591850 f i AGKWindows:Wrapper.obj
 0002:0007d8c0       ?GetLeftState@cMouse@AGK@@QAE_NXZ 005918c0 f i AGKWindows:Wrapper.obj
 0002:0007d900       ?GetLeftReleased@cMouse@AGK@@QAE_NXZ 00591900 f i AGKWindows:Wrapper.obj
 0002:0007d970       ?GetRightPressed@cMouse@AGK@@QAE_NXZ 00591970 f i AGKWindows:Wrapper.obj
 0002:0007d9e0       ?GetRightState@cMouse@AGK@@QAE_NXZ 005919e0 f i AGKWindows:Wrapper.obj
 0002:0007da20       ?GetRightReleased@cMouse@AGK@@QAE_NXZ 00591a20 f i AGKWindows:Wrapper.obj
 0002:0007da90       ?GetButtonPressed@cJoystick@AGK@@QAE_NI@Z 00591a90 f i AGKWindows:Wrapper.obj
 0002:0007dae0       ?GetButtonState@cJoystick@AGK@@QAE_NI@Z 00591ae0 f i AGKWindows:Wrapper.obj
 0002:0007db20       ?GetButtonReleased@cJoystick@AGK@@QAE_NI@Z 00591b20 f i AGKWindows:Wrapper.obj
 0002:0007db70       ?SetDeadZone@cJoystick@AGK@@SAXM@Z 00591b70 f i AGKWindows:Wrapper.obj
 0002:0007db90       ??_GcVirtualJoystick@AGK@@QAEPAXI@Z 00591b90 f i AGKWindows:Wrapper.obj
 0002:0007dbe0       ?SetDeadZone@cVirtualJoystick@AGK@@SAXM@Z 00591be0 f i AGKWindows:Wrapper.obj
 0002:0007dc00       ??_GcVirtualButton@AGK@@QAEPAXI@Z 00591c00 f i AGKWindows:Wrapper.obj
 0002:0007dc50       ?GetPressed@cVirtualButton@AGK@@QAE_NXZ 00591c50 f i AGKWindows:Wrapper.obj
 0002:0007dcb0       ?GetReleased@cVirtualButton@AGK@@QAE_NXZ 00591cb0 f i AGKWindows:Wrapper.obj
 0002:0007dd10       ?GetState@cVirtualButton@AGK@@QAE_NXZ 00591d10 f i AGKWindows:Wrapper.obj
 0002:0007dd30       ?GetStretchValue@agk@AGK@@SAMXZ 00591d30 f i AGKWindows:Wrapper.obj
 0002:0007dd40       ?HasFocus@cEditBox@AGK@@QAE_NXZ 00591d40 f i AGKWindows:Wrapper.obj
 0002:0007dd60       ?GetID@cEditBox@AGK@@QAEIXZ 00591d60 f i AGKWindows:Wrapper.obj
 0002:0007dd80       ?GetX@cEditBox@AGK@@QAEMXZ 00591d80 f i AGKWindows:Wrapper.obj
 0002:0007dda0       ?GetY@cEditBox@AGK@@QAEMXZ 00591da0 f i AGKWindows:Wrapper.obj
 0002:0007ddc0       ?GetWidth@cEditBox@AGK@@QAEMXZ 00591dc0 f i AGKWindows:Wrapper.obj
 0002:0007dde0       ?GetHeight@cEditBox@AGK@@QAEMXZ 00591de0 f i AGKWindows:Wrapper.obj
 0002:0007de00       ?GetTextChanged@cEditBox@AGK@@QAE_NXZ 00591e00 f i AGKWindows:Wrapper.obj
 0002:0007de60       ?GetLines@cEditBox@AGK@@QAEHXZ 00591e60 f i AGKWindows:Wrapper.obj
 0002:0007de90       ?GetLines@cText@AGK@@QAEIXZ 00591e90 f i AGKWindows:Wrapper.obj
 0002:0007deb0       ?GetDrawnCount@cSpriteMgr@AGK@@QAEIXZ 00591eb0 f i AGKWindows:Wrapper.obj
 0002:0007ded0       ?GetTotalCount@cSpriteMgr@AGK@@QAEIXZ 00591ed0 f i AGKWindows:Wrapper.obj
 0002:0007def0       ?GetSortedCount@cSpriteMgr@AGK@@QAEIXZ 00591ef0 f i AGKWindows:Wrapper.obj
 0002:0007df10       ?GetDrawCalls@cSpriteMgr@AGK@@QAEIXZ 00591f10 f i AGKWindows:Wrapper.obj
 0002:0007df30       ?GetCount@?$cHashedList@VcEditBox@AGK@@@AGK@@QAEIXZ 00591f30 f i AGKWindows:Wrapper.obj
 0002:0007df50       ?AddItem@?$cHashedList@VcFileEntry@AGK@@@AGK@@QAEXPAVcFileEntry@2@PBD@Z 00591f50 f i AGKWindows:Wrapper.obj
 0002:0007e0f0       ?GetItem@?$cHashedList@VcFileEntry@AGK@@@AGK@@QAEPAVcFileEntry@2@PBD@Z 005920f0 f i AGKWindows:Wrapper.obj
 0002:0007e1b0       ?GetFirst@?$cHashedList@VcFileEntry@AGK@@@AGK@@QAEPAVcFileEntry@2@XZ 005921b0 f i AGKWindows:Wrapper.obj
 0002:0007e250       ?GetNext@?$cHashedList@VcFileEntry@AGK@@@AGK@@QAEPAVcFileEntry@2@XZ 00592250 f i AGKWindows:Wrapper.obj
 0002:0007e3d0       ?ClearAll@?$cHashedList@VcFileEntry@AGK@@@AGK@@QAEXXZ 005923d0 f i AGKWindows:Wrapper.obj
 0002:0007e4d0       ?AddItem@?$cHashedList@VcImage@AGK@@@AGK@@QAEXPAVcImage@2@I@Z 005924d0 f i AGKWindows:Wrapper.obj
 0002:0007e630       ?GetItem@?$cHashedList@VcImage@AGK@@@AGK@@QAEPAVcImage@2@I@Z 00592630 f i AGKWindows:Wrapper.obj
 0002:0007e6c0       ?GetFirst@?$cHashedList@VcImage@AGK@@@AGK@@QAEPAVcImage@2@XZ 005926c0 f i AGKWindows:Wrapper.obj
 0002:0007e760       ?GetNext@?$cHashedList@VcImage@AGK@@@AGK@@QAEPAVcImage@2@XZ 00592760 f i AGKWindows:Wrapper.obj
 0002:0007e8e0       ?RemoveItem@?$cHashedList@VcImage@AGK@@@AGK@@QAEPAVcImage@2@I@Z 005928e0 f i AGKWindows:Wrapper.obj
 0002:0007eae0       ?GetFreeID@?$cHashedList@VcImage@AGK@@@AGK@@QAEII@Z 00592ae0 f i AGKWindows:Wrapper.obj
 0002:0007ebb0       ?ClearAll@?$cHashedList@VcImage@AGK@@@AGK@@QAEXXZ 00592bb0 f i AGKWindows:Wrapper.obj
 0002:0007ecb0       ?AddItem@?$cHashedList@VcSprite@AGK@@@AGK@@QAEXPAVcSprite@2@I@Z 00592cb0 f i AGKWindows:Wrapper.obj
 0002:0007ee10       ?GetItem@?$cHashedList@VcSprite@AGK@@@AGK@@QAEPAVcSprite@2@I@Z 00592e10 f i AGKWindows:Wrapper.obj
 0002:0007eea0       ?GetFirst@?$cHashedList@VcSprite@AGK@@@AGK@@QAEPAVcSprite@2@XZ 00592ea0 f i AGKWindows:Wrapper.obj
 0002:0007ef40       ?GetNext@?$cHashedList@VcSprite@AGK@@@AGK@@QAEPAVcSprite@2@XZ 00592f40 f i AGKWindows:Wrapper.obj
 0002:0007f0c0       ?RemoveItem@?$cHashedList@VcSprite@AGK@@@AGK@@QAEPAVcSprite@2@I@Z 005930c0 f i AGKWindows:Wrapper.obj
 0002:0007f2c0       ?GetFreeID@?$cHashedList@VcSprite@AGK@@@AGK@@QAEII@Z 005932c0 f i AGKWindows:Wrapper.obj
 0002:0007f390       ?ClearAll@?$cHashedList@VcSprite@AGK@@@AGK@@QAEXXZ 00593390 f i AGKWindows:Wrapper.obj
 0002:0007f490       ?AddItem@?$cHashedList@VcText@AGK@@@AGK@@QAEXPAVcText@2@I@Z 00593490 f i AGKWindows:Wrapper.obj
 0002:0007f5f0       ?GetItem@?$cHashedList@VcText@AGK@@@AGK@@QAEPAVcText@2@I@Z 005935f0 f i AGKWindows:Wrapper.obj
 0002:0007f680       ?GetFirst@?$cHashedList@VcText@AGK@@@AGK@@QAEPAVcText@2@XZ 00593680 f i AGKWindows:Wrapper.obj
 0002:0007f720       ?GetNext@?$cHashedList@VcText@AGK@@@AGK@@QAEPAVcText@2@XZ 00593720 f i AGKWindows:Wrapper.obj
 0002:0007f8a0       ?RemoveItem@?$cHashedList@VcText@AGK@@@AGK@@QAEPAVcText@2@I@Z 005938a0 f i AGKWindows:Wrapper.obj
 0002:0007faa0       ?GetFreeID@?$cHashedList@VcText@AGK@@@AGK@@QAEII@Z 00593aa0 f i AGKWindows:Wrapper.obj
 0002:0007fb70       ?ClearAll@?$cHashedList@VcText@AGK@@@AGK@@QAEXXZ 00593b70 f i AGKWindows:Wrapper.obj
 0002:0007fc70       ?AddItem@?$cHashedList@Vb2Joint@@@AGK@@QAEXPAVb2Joint@@I@Z 00593c70 f i AGKWindows:Wrapper.obj
 0002:0007fdd0       ?GetItem@?$cHashedList@Vb2Joint@@@AGK@@QAEPAVb2Joint@@I@Z 00593dd0 f i AGKWindows:Wrapper.obj
 0002:0007fe60       ?RemoveItem@?$cHashedList@Vb2Joint@@@AGK@@QAEPAVb2Joint@@I@Z 00593e60 f i AGKWindows:Wrapper.obj
 0002:00080060       ?GetFreeID@?$cHashedList@Vb2Joint@@@AGK@@QAEII@Z 00594060 f i AGKWindows:Wrapper.obj
 0002:00080130       ?ClearAll@?$cHashedList@Vb2Joint@@@AGK@@QAEXXZ 00594130 f i AGKWindows:Wrapper.obj
 0002:00080230       ?AddItem@?$cHashedList@VcForce@AGK@@@AGK@@QAEXPAVcForce@2@I@Z 00594230 f i AGKWindows:Wrapper.obj
 0002:00080390       ?GetItem@?$cHashedList@VcForce@AGK@@@AGK@@QAEPAVcForce@2@I@Z 00594390 f i AGKWindows:Wrapper.obj
 0002:00080420       ?GetFirst@?$cHashedList@VcForce@AGK@@@AGK@@QAEPAVcForce@2@XZ 00594420 f i AGKWindows:Wrapper.obj
 0002:000804c0       ?GetNext@?$cHashedList@VcForce@AGK@@@AGK@@QAEPAVcForce@2@XZ 005944c0 f i AGKWindows:Wrapper.obj
 0002:00080640       ?RemoveItem@?$cHashedList@VcForce@AGK@@@AGK@@QAEPAVcForce@2@I@Z 00594640 f i AGKWindows:Wrapper.obj
 0002:00080840       ?GetFreeID@?$cHashedList@VcForce@AGK@@@AGK@@QAEII@Z 00594840 f i AGKWindows:Wrapper.obj
 0002:00080910       ?ClearAll@?$cHashedList@VcForce@AGK@@@AGK@@QAEXXZ 00594910 f i AGKWindows:Wrapper.obj
 0002:00080a10       ?AddItem@?$cHashedList@VcFile@AGK@@@AGK@@QAEXPAVcFile@2@I@Z 00594a10 f i AGKWindows:Wrapper.obj
 0002:00080b70       ?GetItem@?$cHashedList@VcFile@AGK@@@AGK@@QAEPAVcFile@2@I@Z 00594b70 f i AGKWindows:Wrapper.obj
 0002:00080c00       ?GetFirst@?$cHashedList@VcFile@AGK@@@AGK@@QAEPAVcFile@2@XZ 00594c00 f i AGKWindows:Wrapper.obj
 0002:00080ca0       ?GetNext@?$cHashedList@VcFile@AGK@@@AGK@@QAEPAVcFile@2@XZ 00594ca0 f i AGKWindows:Wrapper.obj
 0002:00080e20       ?RemoveItem@?$cHashedList@VcFile@AGK@@@AGK@@QAEPAVcFile@2@I@Z 00594e20 f i AGKWindows:Wrapper.obj
 0002:00081020       ?GetFreeID@?$cHashedList@VcFile@AGK@@@AGK@@QAEII@Z 00595020 f i AGKWindows:Wrapper.obj
 0002:000810f0       ?ClearAll@?$cHashedList@VcFile@AGK@@@AGK@@QAEXXZ 005950f0 f i AGKWindows:Wrapper.obj
 0002:000811f0       ?AddItem@?$cHashedList@VcNetwork@AGK@@@AGK@@QAEXPAVcNetwork@2@I@Z 005951f0 f i AGKWindows:Wrapper.obj
 0002:00081350       ?GetItem@?$cHashedList@VcNetwork@AGK@@@AGK@@QAEPAVcNetwork@2@I@Z 00595350 f i AGKWindows:Wrapper.obj
 0002:000813e0       ?GetFirst@?$cHashedList@VcNetwork@AGK@@@AGK@@QAEPAVcNetwork@2@XZ 005953e0 f i AGKWindows:Wrapper.obj
 0002:00081480       ?GetNext@?$cHashedList@VcNetwork@AGK@@@AGK@@QAEPAVcNetwork@2@XZ 00595480 f i AGKWindows:Wrapper.obj
 0002:00081600       ?RemoveItem@?$cHashedList@VcNetwork@AGK@@@AGK@@QAEPAVcNetwork@2@I@Z 00595600 f i AGKWindows:Wrapper.obj
 0002:00081800       ?GetFreeID@?$cHashedList@VcNetwork@AGK@@@AGK@@QAEII@Z 00595800 f i AGKWindows:Wrapper.obj
 0002:000818d0       ?ClearAll@?$cHashedList@VcNetwork@AGK@@@AGK@@QAEXXZ 005958d0 f i AGKWindows:Wrapper.obj
 0002:000819d0       ?AddItem@?$cHashedList@VcNetworkMessage@AGK@@@AGK@@QAEXPAVcNetworkMessage@2@I@Z 005959d0 f i AGKWindows:Wrapper.obj
 0002:00081b30       ?GetItem@?$cHashedList@VcNetworkMessage@AGK@@@AGK@@QAEPAVcNetworkMessage@2@I@Z 00595b30 f i AGKWindows:Wrapper.obj
 0002:00081bc0       ?GetFirst@?$cHashedList@VcNetworkMessage@AGK@@@AGK@@QAEPAVcNetworkMessage@2@XZ 00595bc0 f i AGKWindows:Wrapper.obj
 0002:00081c60       ?GetNext@?$cHashedList@VcNetworkMessage@AGK@@@AGK@@QAEPAVcNetworkMessage@2@XZ 00595c60 f i AGKWindows:Wrapper.obj
 0002:00081de0       ?RemoveItem@?$cHashedList@VcNetworkMessage@AGK@@@AGK@@QAEPAVcNetworkMessage@2@I@Z 00595de0 f i AGKWindows:Wrapper.obj
 0002:00081fe0       ?GetFreeID@?$cHashedList@VcNetworkMessage@AGK@@@AGK@@QAEII@Z 00595fe0 f i AGKWindows:Wrapper.obj
 0002:000820b0       ?ClearAll@?$cHashedList@VcNetworkMessage@AGK@@@AGK@@QAEXXZ 005960b0 f i AGKWindows:Wrapper.obj
 0002:000821b0       ?AddItem@?$cHashedList@VcHTTPConnection@AGK@@@AGK@@QAEXPAVcHTTPConnection@2@I@Z 005961b0 f i AGKWindows:Wrapper.obj
 0002:00082310       ?GetItem@?$cHashedList@VcHTTPConnection@AGK@@@AGK@@QAEPAVcHTTPConnection@2@I@Z 00596310 f i AGKWindows:Wrapper.obj
 0002:000823a0       ?GetFirst@?$cHashedList@VcHTTPConnection@AGK@@@AGK@@QAEPAVcHTTPConnection@2@XZ 005963a0 f i AGKWindows:Wrapper.obj
 0002:00082440       ?GetNext@?$cHashedList@VcHTTPConnection@AGK@@@AGK@@QAEPAVcHTTPConnection@2@XZ 00596440 f i AGKWindows:Wrapper.obj
 0002:000825c0       ?RemoveItem@?$cHashedList@VcHTTPConnection@AGK@@@AGK@@QAEPAVcHTTPConnection@2@I@Z 005965c0 f i AGKWindows:Wrapper.obj
 0002:000827c0       ?GetFreeID@?$cHashedList@VcHTTPConnection@AGK@@@AGK@@QAEII@Z 005967c0 f i AGKWindows:Wrapper.obj
 0002:00082890       ?ClearAll@?$cHashedList@VcHTTPConnection@AGK@@@AGK@@QAEXXZ 00596890 f i AGKWindows:Wrapper.obj
 0002:00082990       ?AddItem@?$cHashedList@VBroadcastListener@AGK@@@AGK@@QAEXPAVBroadcastListener@2@I@Z 00596990 f i AGKWindows:Wrapper.obj
 0002:00082af0       ?GetItem@?$cHashedList@VBroadcastListener@AGK@@@AGK@@QAEPAVBroadcastListener@2@I@Z 00596af0 f i AGKWindows:Wrapper.obj
 0002:00082b80       ?GetFirst@?$cHashedList@VBroadcastListener@AGK@@@AGK@@QAEPAVBroadcastListener@2@XZ 00596b80 f i AGKWindows:Wrapper.obj
 0002:00082c20       ?GetNext@?$cHashedList@VBroadcastListener@AGK@@@AGK@@QAEPAVBroadcastListener@2@XZ 00596c20 f i AGKWindows:Wrapper.obj
 0002:00082da0       ?RemoveItem@?$cHashedList@VBroadcastListener@AGK@@@AGK@@QAEPAVBroadcastListener@2@I@Z 00596da0 f i AGKWindows:Wrapper.obj
 0002:00082fa0       ?GetFreeID@?$cHashedList@VBroadcastListener@AGK@@@AGK@@QAEII@Z 00596fa0 f i AGKWindows:Wrapper.obj
 0002:00083070       ?ClearAll@?$cHashedList@VBroadcastListener@AGK@@@AGK@@QAEXXZ 00597070 f i AGKWindows:Wrapper.obj
 0002:00083170       ?AddItem@?$cHashedList@VcParticleEmitter@AGK@@@AGK@@QAEXPAVcParticleEmitter@2@I@Z 00597170 f i AGKWindows:Wrapper.obj
 0002:000832d0       ?GetItem@?$cHashedList@VcParticleEmitter@AGK@@@AGK@@QAEPAVcParticleEmitter@2@I@Z 005972d0 f i AGKWindows:Wrapper.obj
 0002:00083360       ?GetFirst@?$cHashedList@VcParticleEmitter@AGK@@@AGK@@QAEPAVcParticleEmitter@2@XZ 00597360 f i AGKWindows:Wrapper.obj
 0002:00083400       ?GetNext@?$cHashedList@VcParticleEmitter@AGK@@@AGK@@QAEPAVcParticleEmitter@2@XZ 00597400 f i AGKWindows:Wrapper.obj
 0002:00083580       ?RemoveItem@?$cHashedList@VcParticleEmitter@AGK@@@AGK@@QAEPAVcParticleEmitter@2@I@Z 00597580 f i AGKWindows:Wrapper.obj
 0002:00083780       ?GetFreeID@?$cHashedList@VcParticleEmitter@AGK@@@AGK@@QAEII@Z 00597780 f i AGKWindows:Wrapper.obj
 0002:00083850       ?ClearAll@?$cHashedList@VcParticleEmitter@AGK@@@AGK@@QAEXXZ 00597850 f i AGKWindows:Wrapper.obj
 0002:00083950       ?AddItem@?$cHashedList@VcEditBox@AGK@@@AGK@@QAEXPAVcEditBox@2@I@Z 00597950 f i AGKWindows:Wrapper.obj
 0002:00083ab0       ?GetItem@?$cHashedList@VcEditBox@AGK@@@AGK@@QAEPAVcEditBox@2@I@Z 00597ab0 f i AGKWindows:Wrapper.obj
 0002:00083b40       ?GetFirst@?$cHashedList@VcEditBox@AGK@@@AGK@@QAEPAVcEditBox@2@XZ 00597b40 f i AGKWindows:Wrapper.obj
 0002:00083be0       ?GetNext@?$cHashedList@VcEditBox@AGK@@@AGK@@QAEPAVcEditBox@2@XZ 00597be0 f i AGKWindows:Wrapper.obj
 0002:00083d60       ?RemoveItem@?$cHashedList@VcEditBox@AGK@@@AGK@@QAEPAVcEditBox@2@I@Z 00597d60 f i AGKWindows:Wrapper.obj
 0002:00083f60       ?GetFreeID@?$cHashedList@VcEditBox@AGK@@@AGK@@QAEII@Z 00597f60 f i AGKWindows:Wrapper.obj
 0002:00084030       ?ClearAll@?$cHashedList@VcEditBox@AGK@@@AGK@@QAEXXZ 00598030 f i AGKWindows:Wrapper.obj
 0002:00084130       ?AddItem@?$cHashedList@VZipFile@AGK@@@AGK@@QAEXPAVZipFile@2@I@Z 00598130 f i AGKWindows:Wrapper.obj
 0002:00084290       ?GetItem@?$cHashedList@VZipFile@AGK@@@AGK@@QAEPAVZipFile@2@I@Z 00598290 f i AGKWindows:Wrapper.obj
 0002:00084320       ?GetFirst@?$cHashedList@VZipFile@AGK@@@AGK@@QAEPAVZipFile@2@XZ 00598320 f i AGKWindows:Wrapper.obj
 0002:000843c0       ?GetNext@?$cHashedList@VZipFile@AGK@@@AGK@@QAEPAVZipFile@2@XZ 005983c0 f i AGKWindows:Wrapper.obj
 0002:00084540       ?RemoveItem@?$cHashedList@VZipFile@AGK@@@AGK@@QAEPAVZipFile@2@I@Z 00598540 f i AGKWindows:Wrapper.obj
 0002:00084740       ?GetFreeID@?$cHashedList@VZipFile@AGK@@@AGK@@QAEII@Z 00598740 f i AGKWindows:Wrapper.obj
 0002:00084810       ?ClearAll@?$cHashedList@VZipFile@AGK@@@AGK@@QAEXXZ 00598810 f i AGKWindows:Wrapper.obj
 0002:00084910       ??_GcHashedItem@?$cHashedList@VcFileEntry@AGK@@@AGK@@QAEPAXI@Z 00598910 f i AGKWindows:Wrapper.obj
 0002:00084960       ??_GcHashedItem@?$cHashedList@VcImage@AGK@@@AGK@@QAEPAXI@Z 00598960 f i AGKWindows:Wrapper.obj
 0002:000849b0       ??_GcHashedItem@?$cHashedList@VcSprite@AGK@@@AGK@@QAEPAXI@Z 005989b0 f i AGKWindows:Wrapper.obj
 0002:00084a00       ??_GcHashedItem@?$cHashedList@VcText@AGK@@@AGK@@QAEPAXI@Z 00598a00 f i AGKWindows:Wrapper.obj
 0002:00084a50       ??_GcHashedItem@?$cHashedList@Vb2Joint@@@AGK@@QAEPAXI@Z 00598a50 f i AGKWindows:Wrapper.obj
 0002:00084aa0       ??_GcHashedItem@?$cHashedList@VcForce@AGK@@@AGK@@QAEPAXI@Z 00598aa0 f i AGKWindows:Wrapper.obj
 0002:00084af0       ??_GcHashedItem@?$cHashedList@VcFile@AGK@@@AGK@@QAEPAXI@Z 00598af0 f i AGKWindows:Wrapper.obj
 0002:00084b40       ??_GcHashedItem@?$cHashedList@VcNetwork@AGK@@@AGK@@QAEPAXI@Z 00598b40 f i AGKWindows:Wrapper.obj
 0002:00084b90       ??_GcHashedItem@?$cHashedList@VcNetworkMessage@AGK@@@AGK@@QAEPAXI@Z 00598b90 f i AGKWindows:Wrapper.obj
 0002:00084be0       ??_GcHashedItem@?$cHashedList@VcHTTPConnection@AGK@@@AGK@@QAEPAXI@Z 00598be0 f i AGKWindows:Wrapper.obj
 0002:00084c30       ??_GcHashedItem@?$cHashedList@VBroadcastListener@AGK@@@AGK@@QAEPAXI@Z 00598c30 f i AGKWindows:Wrapper.obj
 0002:00084c80       ??_GcHashedItem@?$cHashedList@VcParticleEmitter@AGK@@@AGK@@QAEPAXI@Z 00598c80 f i AGKWindows:Wrapper.obj
 0002:00084cd0       ??_GcHashedItem@?$cHashedList@VcEditBox@AGK@@@AGK@@QAEPAXI@Z 00598cd0 f i AGKWindows:Wrapper.obj
 0002:00084d20       ??_GcHashedItem@?$cHashedList@VZipFile@AGK@@@AGK@@QAEPAXI@Z 00598d20 f i AGKWindows:Wrapper.obj
 0002:00084d70       ??0cHashedItem@?$cHashedList@VcFileEntry@AGK@@@AGK@@QAE@XZ 00598d70 f i AGKWindows:Wrapper.obj
 0002:00084dc0       ??1cHashedItem@?$cHashedList@VcFileEntry@AGK@@@AGK@@QAE@XZ 00598dc0 f i AGKWindows:Wrapper.obj
 0002:00084e20       ??0cHashedItem@?$cHashedList@VcImage@AGK@@@AGK@@QAE@XZ 00598e20 f i AGKWindows:Wrapper.obj
 0002:00084e70       ??1cHashedItem@?$cHashedList@VcImage@AGK@@@AGK@@QAE@XZ 00598e70 f i AGKWindows:Wrapper.obj
 0002:00084ed0       ??0cHashedItem@?$cHashedList@VcSprite@AGK@@@AGK@@QAE@XZ 00598ed0 f i AGKWindows:Wrapper.obj
 0002:00084f20       ??1cHashedItem@?$cHashedList@VcSprite@AGK@@@AGK@@QAE@XZ 00598f20 f i AGKWindows:Wrapper.obj
 0002:00084f80       ??0cHashedItem@?$cHashedList@VcText@AGK@@@AGK@@QAE@XZ 00598f80 f i AGKWindows:Wrapper.obj
 0002:00084fd0       ??1cHashedItem@?$cHashedList@VcText@AGK@@@AGK@@QAE@XZ 00598fd0 f i AGKWindows:Wrapper.obj
 0002:00085030       ??0cHashedItem@?$cHashedList@Vb2Joint@@@AGK@@QAE@XZ 00599030 f i AGKWindows:Wrapper.obj
 0002:00085080       ??1cHashedItem@?$cHashedList@Vb2Joint@@@AGK@@QAE@XZ 00599080 f i AGKWindows:Wrapper.obj
 0002:000850e0       ??0cHashedItem@?$cHashedList@VcForce@AGK@@@AGK@@QAE@XZ 005990e0 f i AGKWindows:Wrapper.obj
 0002:00085130       ??1cHashedItem@?$cHashedList@VcForce@AGK@@@AGK@@QAE@XZ 00599130 f i AGKWindows:Wrapper.obj
 0002:00085190       ??0cHashedItem@?$cHashedList@VcFile@AGK@@@AGK@@QAE@XZ 00599190 f i AGKWindows:Wrapper.obj
 0002:000851e0       ??1cHashedItem@?$cHashedList@VcFile@AGK@@@AGK@@QAE@XZ 005991e0 f i AGKWindows:Wrapper.obj
 0002:00085240       ??0cHashedItem@?$cHashedList@VcNetwork@AGK@@@AGK@@QAE@XZ 00599240 f i AGKWindows:Wrapper.obj
 0002:00085290       ??1cHashedItem@?$cHashedList@VcNetwork@AGK@@@AGK@@QAE@XZ 00599290 f i AGKWindows:Wrapper.obj
 0002:000852f0       ??0cHashedItem@?$cHashedList@VcNetworkMessage@AGK@@@AGK@@QAE@XZ 005992f0 f i AGKWindows:Wrapper.obj
 0002:00085340       ??1cHashedItem@?$cHashedList@VcNetworkMessage@AGK@@@AGK@@QAE@XZ 00599340 f i AGKWindows:Wrapper.obj
 0002:000853a0       ??0cHashedItem@?$cHashedList@VcHTTPConnection@AGK@@@AGK@@QAE@XZ 005993a0 f i AGKWindows:Wrapper.obj
 0002:000853f0       ??1cHashedItem@?$cHashedList@VcHTTPConnection@AGK@@@AGK@@QAE@XZ 005993f0 f i AGKWindows:Wrapper.obj
 0002:00085450       ??0cHashedItem@?$cHashedList@VBroadcastListener@AGK@@@AGK@@QAE@XZ 00599450 f i AGKWindows:Wrapper.obj
 0002:000854a0       ??1cHashedItem@?$cHashedList@VBroadcastListener@AGK@@@AGK@@QAE@XZ 005994a0 f i AGKWindows:Wrapper.obj
 0002:00085500       ??0cHashedItem@?$cHashedList@VcParticleEmitter@AGK@@@AGK@@QAE@XZ 00599500 f i AGKWindows:Wrapper.obj
 0002:00085550       ??1cHashedItem@?$cHashedList@VcParticleEmitter@AGK@@@AGK@@QAE@XZ 00599550 f i AGKWindows:Wrapper.obj
 0002:000855b0       ??0cHashedItem@?$cHashedList@VcEditBox@AGK@@@AGK@@QAE@XZ 005995b0 f i AGKWindows:Wrapper.obj
 0002:00085600       ??1cHashedItem@?$cHashedList@VcEditBox@AGK@@@AGK@@QAE@XZ 00599600 f i AGKWindows:Wrapper.obj
 0002:00085660       ??0cHashedItem@?$cHashedList@VZipFile@AGK@@@AGK@@QAE@XZ 00599660 f i AGKWindows:Wrapper.obj
 0002:000856b0       ??1cHashedItem@?$cHashedList@VZipFile@AGK@@@AGK@@QAE@XZ 005996b0 f i AGKWindows:Wrapper.obj
 0002:00085710       ?HashIndex@?$cHashedList@VcFileEntry@AGK@@@AGK@@IAEIPBD@Z 00599710 f i AGKWindows:Wrapper.obj
 0002:000857b0       ?HashIndex@?$cHashedList@VcFileEntry@AGK@@@AGK@@IAEII@Z 005997b0 f i AGKWindows:Wrapper.obj
 0002:000857e0       ?HashIndex@?$cHashedList@VcImage@AGK@@@AGK@@IAEIPBD@Z 005997e0 f i AGKWindows:Wrapper.obj
 0002:00085880       ?HashIndex@?$cHashedList@VcImage@AGK@@@AGK@@IAEII@Z 00599880 f i AGKWindows:Wrapper.obj
 0002:000858b0       ?HashIndex@?$cHashedList@VcSprite@AGK@@@AGK@@IAEIPBD@Z 005998b0 f i AGKWindows:Wrapper.obj
 0002:00085950       ?HashIndex@?$cHashedList@VcSprite@AGK@@@AGK@@IAEII@Z 00599950 f i AGKWindows:Wrapper.obj
 0002:00085980       ?HashIndex@?$cHashedList@VcText@AGK@@@AGK@@IAEIPBD@Z 00599980 f i AGKWindows:Wrapper.obj
 0002:00085a20       ?HashIndex@?$cHashedList@VcText@AGK@@@AGK@@IAEII@Z 00599a20 f i AGKWindows:Wrapper.obj
 0002:00085a50       ?HashIndex@?$cHashedList@Vb2Joint@@@AGK@@IAEII@Z 00599a50 f i AGKWindows:Wrapper.obj
 0002:00085a80       ?HashIndex@?$cHashedList@VcForce@AGK@@@AGK@@IAEIPBD@Z 00599a80 f i AGKWindows:Wrapper.obj
 0002:00085b20       ?HashIndex@?$cHashedList@VcForce@AGK@@@AGK@@IAEII@Z 00599b20 f i AGKWindows:Wrapper.obj
 0002:00085b50       ?HashIndex@?$cHashedList@VcFile@AGK@@@AGK@@IAEIPBD@Z 00599b50 f i AGKWindows:Wrapper.obj
 0002:00085bf0       ?HashIndex@?$cHashedList@VcFile@AGK@@@AGK@@IAEII@Z 00599bf0 f i AGKWindows:Wrapper.obj
 0002:00085c20       ?HashIndex@?$cHashedList@VcNetwork@AGK@@@AGK@@IAEIPBD@Z 00599c20 f i AGKWindows:Wrapper.obj
 0002:00085cc0       ?HashIndex@?$cHashedList@VcNetwork@AGK@@@AGK@@IAEII@Z 00599cc0 f i AGKWindows:Wrapper.obj
 0002:00085cf0       ?HashIndex@?$cHashedList@VcNetworkMessage@AGK@@@AGK@@IAEIPBD@Z 00599cf0 f i AGKWindows:Wrapper.obj
 0002:00085d90       ?HashIndex@?$cHashedList@VcNetworkMessage@AGK@@@AGK@@IAEII@Z 00599d90 f i AGKWindows:Wrapper.obj
 0002:00085dc0       ?HashIndex@?$cHashedList@VcHTTPConnection@AGK@@@AGK@@IAEIPBD@Z 00599dc0 f i AGKWindows:Wrapper.obj
 0002:00085e60       ?HashIndex@?$cHashedList@VcHTTPConnection@AGK@@@AGK@@IAEII@Z 00599e60 f i AGKWindows:Wrapper.obj
 0002:00085e90       ?HashIndex@?$cHashedList@VBroadcastListener@AGK@@@AGK@@IAEIPBD@Z 00599e90 f i AGKWindows:Wrapper.obj
 0002:00085f30       ?HashIndex@?$cHashedList@VBroadcastListener@AGK@@@AGK@@IAEII@Z 00599f30 f i AGKWindows:Wrapper.obj
 0002:00085f60       ?HashIndex@?$cHashedList@VcParticleEmitter@AGK@@@AGK@@IAEIPBD@Z 00599f60 f i AGKWindows:Wrapper.obj
 0002:00086000       ?HashIndex@?$cHashedList@VcParticleEmitter@AGK@@@AGK@@IAEII@Z 0059a000 f i AGKWindows:Wrapper.obj
 0002:00086030       ?HashIndex@?$cHashedList@VcEditBox@AGK@@@AGK@@IAEIPBD@Z 0059a030 f i AGKWindows:Wrapper.obj
 0002:000860d0       ?HashIndex@?$cHashedList@VcEditBox@AGK@@@AGK@@IAEII@Z 0059a0d0 f i AGKWindows:Wrapper.obj
 0002:00086100       ?HashIndex@?$cHashedList@VZipFile@AGK@@@AGK@@IAEIPBD@Z 0059a100 f i AGKWindows:Wrapper.obj
 0002:000861a0       ?HashIndex@?$cHashedList@VZipFile@AGK@@@AGK@@IAEII@Z 0059a1a0 f i AGKWindows:Wrapper.obj
 0002:000861d0       ??0?$cHashedList@VcFileEntry@AGK@@@AGK@@QAE@I@Z 0059a1d0 f i AGKWindows:Wrapper.obj
 0002:00086300       ??0?$cHashedList@VcImage@AGK@@@AGK@@QAE@I@Z 0059a300 f i AGKWindows:Wrapper.obj
 0002:00086430       ??0?$cHashedList@VcSprite@AGK@@@AGK@@QAE@I@Z 0059a430 f i AGKWindows:Wrapper.obj
 0002:00086560       ??0?$cHashedList@VcText@AGK@@@AGK@@QAE@I@Z 0059a560 f i AGKWindows:Wrapper.obj
 0002:00086690       ??0?$cHashedList@Vb2Joint@@@AGK@@QAE@I@Z 0059a690 f i AGKWindows:Wrapper.obj
 0002:000867c0       ??0?$cHashedList@VcForce@AGK@@@AGK@@QAE@I@Z 0059a7c0 f i AGKWindows:Wrapper.obj
 0002:000868f0       ??0?$cHashedList@VcFile@AGK@@@AGK@@QAE@I@Z 0059a8f0 f i AGKWindows:Wrapper.obj
 0002:00086a20       ??0?$cHashedList@VcNetwork@AGK@@@AGK@@QAE@I@Z 0059aa20 f i AGKWindows:Wrapper.obj
 0002:00086b50       ??0?$cHashedList@VcNetworkMessage@AGK@@@AGK@@QAE@I@Z 0059ab50 f i AGKWindows:Wrapper.obj
 0002:00086c80       ??0?$cHashedList@VcHTTPConnection@AGK@@@AGK@@QAE@I@Z 0059ac80 f i AGKWindows:Wrapper.obj
 0002:00086db0       ??0?$cHashedList@VBroadcastListener@AGK@@@AGK@@QAE@I@Z 0059adb0 f i AGKWindows:Wrapper.obj
 0002:00086ee0       ??0?$cHashedList@VcParticleEmitter@AGK@@@AGK@@QAE@I@Z 0059aee0 f i AGKWindows:Wrapper.obj
 0002:00087010       ??0?$cHashedList@VcEditBox@AGK@@@AGK@@QAE@I@Z 0059b010 f i AGKWindows:Wrapper.obj
 0002:00087140       ??0?$cHashedList@VZipFile@AGK@@@AGK@@QAE@I@Z 0059b140 f i AGKWindows:Wrapper.obj
 0002:00087270       ??0cLock@AGK@@QAE@XZ       0059b270 f i AGKWindows:Wrapper.obj
 0002:000872c0       ??0DebugDraw@AGK@@QAE@XZ   0059b2c0 f i AGKWindows:Wrapper.obj
 0002:00087300       ??_EDebugDraw@AGK@@UAEPAXI@Z 0059b300 f i AGKWindows:Wrapper.obj
 0002:00087300       ??_GDebugDraw@AGK@@UAEPAXI@Z 0059b300 f i AGKWindows:Wrapper.obj
 0002:00087350       ??1DebugDraw@AGK@@UAE@XZ   0059b350 f i AGKWindows:Wrapper.obj
 0002:00087390       ??1b2Draw@@UAE@XZ          0059b390 f i AGKWindows:Wrapper.obj
 0002:000873c0       ??_Eb2Draw@@UAEPAXI@Z      0059b3c0 f i AGKWindows:Wrapper.obj
 0002:000873c0       ??_Gb2Draw@@UAEPAXI@Z      0059b3c0 f i AGKWindows:Wrapper.obj
 0002:00087410       ??1?$cHashedList@VcFileEntry@AGK@@@AGK@@QAE@XZ 0059b410 f i AGKWindows:Wrapper.obj
 0002:00087470       ??1?$cHashedList@VcImage@AGK@@@AGK@@QAE@XZ 0059b470 f i AGKWindows:Wrapper.obj
 0002:000874d0       ??1?$cHashedList@VcSprite@AGK@@@AGK@@QAE@XZ 0059b4d0 f i AGKWindows:Wrapper.obj
 0002:00087530       ??1?$cHashedList@VcText@AGK@@@AGK@@QAE@XZ 0059b530 f i AGKWindows:Wrapper.obj
 0002:00087590       ??1?$cHashedList@Vb2Joint@@@AGK@@QAE@XZ 0059b590 f i AGKWindows:Wrapper.obj
 0002:000875f0       ??1?$cHashedList@VcForce@AGK@@@AGK@@QAE@XZ 0059b5f0 f i AGKWindows:Wrapper.obj
 0002:00087650       ??1?$cHashedList@VcFile@AGK@@@AGK@@QAE@XZ 0059b650 f i AGKWindows:Wrapper.obj
 0002:000876b0       ??1?$cHashedList@VcNetwork@AGK@@@AGK@@QAE@XZ 0059b6b0 f i AGKWindows:Wrapper.obj
 0002:00087710       ??1?$cHashedList@VcNetworkMessage@AGK@@@AGK@@QAE@XZ 0059b710 f i AGKWindows:Wrapper.obj
 0002:00087770       ??1?$cHashedList@VcHTTPConnection@AGK@@@AGK@@QAE@XZ 0059b770 f i AGKWindows:Wrapper.obj
 0002:000877d0       ??1?$cHashedList@VBroadcastListener@AGK@@@AGK@@QAE@XZ 0059b7d0 f i AGKWindows:Wrapper.obj
 0002:00087830       ??1?$cHashedList@VcParticleEmitter@AGK@@@AGK@@QAE@XZ 0059b830 f i AGKWindows:Wrapper.obj
 0002:00087890       ??1?$cHashedList@VcEditBox@AGK@@@AGK@@QAE@XZ 0059b890 f i AGKWindows:Wrapper.obj
 0002:000878f0       ??1?$cHashedList@VZipFile@AGK@@@AGK@@QAE@XZ 0059b8f0 f i AGKWindows:Wrapper.obj
 0002:00087950       ??1MyRayCastCallback@AGK@@UAE@XZ 0059b950 f i AGKWindows:Wrapper.obj
 0002:00087980       ??1b2RayCastCallback@@UAE@XZ 0059b980 f i AGKWindows:Wrapper.obj
 0002:000879b0       ??_Eb2RayCastCallback@@UAEPAXI@Z 0059b9b0 f i AGKWindows:Wrapper.obj
 0002:000879b0       ??_Gb2RayCastCallback@@UAEPAXI@Z 0059b9b0 f i AGKWindows:Wrapper.obj
 0002:00087a00       ??0cFile@AGK@@QAE@XZ       0059ba00 f   AGKWindows:cFile.obj
 0002:00087a40       ??1cFile@AGK@@QAE@XZ       0059ba40 f   AGKWindows:cFile.obj
 0002:00087a70       ?IsOpen@cFile@AGK@@QAE_NXZ 0059ba70 f   AGKWindows:cFile.obj
 0002:00087ae0       ?IsPinConnected@AGK@@YAJPAUIPin@@PAH@Z 0059bae0 f   AGKWindows:WindowsCore.obj
 0002:00087bb0       ?IsPinDirection@AGK@@YAJPAUIPin@@W4_PinDirection@@PAH@Z 0059bbb0 f   AGKWindows:WindowsCore.obj
 0002:00087c40       ?MatchPin@AGK@@YAJPAUIPin@@W4_PinDirection@@HPAH@Z 0059bc40 f   AGKWindows:WindowsCore.obj
 0002:00087d10       ?FindUnconnectedPin@AGK@@YAJPAUIBaseFilter@@W4_PinDirection@@PAPAUIPin@@@Z 0059bd10 f   AGKWindows:WindowsCore.obj
 0002:00087f60       ?ConnectFilters@AGK@@YAJPAUIGraphBuilder@@PAUIPin@@PAUIBaseFilter@@@Z 0059bf60 f   AGKWindows:WindowsCore.obj
 0002:00088010       ?ConnectFilters@AGK@@YAJPAUIGraphBuilder@@PAUIBaseFilter@@1@Z 0059c010 f   AGKWindows:WindowsCore.obj
 0002:000880c0       ?TraverseDirectory@cFileEntry@AGK@@KAXPBD@Z 0059c0c0 f   AGKWindows:WindowsCore.obj
 0002:000882d0       ?InitFileList@cFileEntry@AGK@@SAXXZ 0059c2d0 f   AGKWindows:WindowsCore.obj
 0002:00088300       ?GetDeviceName@agk@AGK@@SAXAAVuString@2@@Z 0059c300 f   AGKWindows:WindowsCore.obj
 0002:00088340       ?GetDeviceName@agk@AGK@@SAPADXZ 0059c340 f   AGKWindows:WindowsCore.obj
 0002:000883c0       ?GetAppName@agk@AGK@@SAXAAVuString@2@@Z 0059c3c0 f   AGKWindows:WindowsCore.obj
 0002:000883e0       ?GetAppName@agk@AGK@@SAPADXZ 0059c3e0 f   AGKWindows:WindowsCore.obj
 0002:00088440       ?GetDeviceHasSplash@agk@AGK@@KA_NXZ 0059c440 f   AGKWindows:WindowsCore.obj
 0002:00088450       ?SetWindowTitle@agk@AGK@@SAXPBD@Z 0059c450 f   AGKWindows:WindowsCore.obj
 0002:00088480       ?GetDeviceCanRotate@agk@AGK@@KA_NXZ 0059c480 f   AGKWindows:WindowsCore.obj
 0002:00088490       ?GetAGKShouldRotate@agk@AGK@@KA_NXZ 0059c490 f   AGKWindows:WindowsCore.obj
 0002:000884a0       ?PlatformSetOrientationAllowed@agk@AGK@@KAXHHHH@Z 0059c4a0 f   AGKWindows:WindowsCore.obj
 0002:000884b0       ?InputEnumObjectsCallback@@YGHPBUDIDEVICEOBJECTINSTANCEA@@PAX@Z 0059c4b0 f   AGKWindows:WindowsCore.obj
 0002:000885e0       ?InputEnumCallback@@YGHPBUDIDEVICEINSTANCEA@@PAX@Z 0059c5e0 f   AGKWindows:WindowsCore.obj
 0002:00088820       ?DirectInputEnumThread@@YGIPAX@Z 0059c820 f   AGKWindows:WindowsCore.obj
 0002:000888e0       ?LoadExtensions@@YAXXZ     0059c8e0 f   AGKWindows:WindowsCore.obj
 0002:00088990       ?PlatformInitFilePaths@agk@AGK@@KAXXZ 0059c990 f   AGKWindows:WindowsCore.obj
 0002:00088e70       ?PlatformUpdateWritePath@agk@AGK@@KAXXZ 0059ce70 f   AGKWindows:WindowsCore.obj
 0002:00089040       ?PlatformRestoreWritePath@agk@AGK@@KAXXZ 0059d040 f   AGKWindows:WindowsCore.obj
 0002:00089080       ?PlatformSetDevicePtr@agk@AGK@@KAXPAX@Z 0059d080 f   AGKWindows:WindowsCore.obj
 0002:00089090       ?PlatformInitGL@agk@AGK@@KAXPAX@Z 0059d090 f   AGKWindows:WindowsCore.obj
 0002:00089d10       ?PlatformDestroyGL@agk@AGK@@KAXXZ 0059dd10 f   AGKWindows:WindowsCore.obj
 0002:00089d20       ?UpdatePtr@agk@AGK@@SAXPAX@Z 0059dd20 f   AGKWindows:WindowsCore.obj
 0002:00089d40       ?UpdatePtr2@agk@AGK@@SAXPAX@Z 0059dd40 f   AGKWindows:WindowsCore.obj
 0002:00089d60       ?PlatformSetProjectionMatrix@agk@AGK@@KAXXZ 0059dd60 f   AGKWindows:WindowsCore.obj
 0002:00089e20       ?PlatformSet3DProjectionMatrix@agk@AGK@@KAXXZ 0059de20 f   AGKWindows:WindowsCore.obj
 0002:00089f30       ?SetOrientationMatrix@agk@AGK@@SAXXZ 0059df30 f   AGKWindows:WindowsCore.obj
 0002:0008a0c0       ?PlatformPrepareDebugDraw@agk@AGK@@KAXXZ 0059e0c0 f   AGKWindows:WindowsCore.obj
 0002:0008a110       ?PlatformPrepareDefaultDraw@agk@AGK@@KAXXZ 0059e110 f   AGKWindows:WindowsCore.obj
 0002:0008a270       ?PlatformEndDebugDraw@agk@AGK@@KAXXZ 0059e270 f   AGKWindows:WindowsCore.obj
 0002:0008a2b0       ?PlatformPrepare2DStates@agk@AGK@@KAXXZ 0059e2b0 f   AGKWindows:WindowsCore.obj
 0002:0008a300       ?PlatformPrepare3DStates@agk@AGK@@KAXXZ 0059e300 f   AGKWindows:WindowsCore.obj
 0002:0008a340       ?PlatformSetViewport@agk@AGK@@KAXHHHH@Z 0059e340 f   AGKWindows:WindowsCore.obj
 0002:0008a370       ?Sleep@agk@AGK@@SAXI@Z     0059e370 f   AGKWindows:WindowsCore.obj
 0002:0008a3a0       ?SetVSync@agk@AGK@@SAXH@Z  0059e3a0 f   AGKWindows:WindowsCore.obj
 0002:0008a3d0       ?PlatformCleanUp@agk@AGK@@KAXXZ 0059e3d0 f   AGKWindows:WindowsCore.obj
 0002:0008a540       ?PlatformUpdateDeviceSize@agk@AGK@@KAXXZ 0059e540 f   AGKWindows:WindowsCore.obj
 0002:0008a600       ?PlatformUpdateTime@agk@AGK@@KAXXZ 0059e600 f   AGKWindows:WindowsCore.obj
 0002:0008a6b0       ?PlatformResetTime@agk@AGK@@KAXXZ 0059e6b0 f   AGKWindows:WindowsCore.obj
 0002:0008a730       ?PlatformBindDefaultFramebuffer@agk@AGK@@KAXXZ 0059e730 f   AGKWindows:WindowsCore.obj
 0002:0008a760       ?PlatformFlush@agk@AGK@@KAXXZ 0059e760 f   AGKWindows:WindowsCore.obj
 0002:0008a780       ?PlatformSync@agk@AGK@@KAXXZ 0059e780 f   AGKWindows:WindowsCore.obj
 0002:0008a7c0       ?PlatformClearScreen@agk@AGK@@KAXXZ 0059e7c0 f   AGKWindows:WindowsCore.obj
 0002:0008ab10       ?PlatformClearDepthBuffer@agk@AGK@@KAXXZ 0059eb10 f   AGKWindows:WindowsCore.obj
 0002:0008ab80       ?PlatformScissor@agk@AGK@@KAXHHHH@Z 0059eb80 f   AGKWindows:WindowsCore.obj
 0002:0008ac20       ?PlatformCompleteInputInit@agk@AGK@@KAXXZ 0059ec20 f   AGKWindows:WindowsCore.obj
 0002:0008ac50       ?PlatformStartTextInput@agk@AGK@@KAXPBD@Z 0059ec50 f   AGKWindows:WindowsCore.obj
 0002:0008af50       ?PlatformUpdateTextInput@agk@AGK@@KAXXZ 0059ef50 f   AGKWindows:WindowsCore.obj
 0002:0008b440       ?PlatformDrawTextInput@agk@AGK@@KAXXZ 0059f440 f   AGKWindows:WindowsCore.obj
 0002:0008b5e0       ?PlatformResumed@agk@AGK@@KAXXZ 0059f5e0 f   AGKWindows:WindowsCore.obj
 0002:0008b5f0       ?PlatformDeviceVolume@agk@AGK@@KAXXZ 0059f5f0 f   AGKWindows:WindowsCore.obj
 0002:0008b600       ?PlatformLittleEndian@agk@AGK@@KAII@Z 0059f600 f   AGKWindows:WindowsCore.obj
 0002:0008b610       ?PlatformLittleEndian@agk@AGK@@KAHH@Z 0059f610 f   AGKWindows:WindowsCore.obj
 0002:0008b620       ?PlatformLocalEndian@agk@AGK@@KAII@Z 0059f620 f   AGKWindows:WindowsCore.obj
 0002:0008b630       ?PlatformLocalEndian@agk@AGK@@KAHH@Z 0059f630 f   AGKWindows:WindowsCore.obj
 0002:0008b640       ?Sin@agk@AGK@@SAMM@Z       0059f640 f   AGKWindows:WindowsCore.obj
 0002:0008b680       ?Cos@agk@AGK@@SAMM@Z       0059f680 f   AGKWindows:WindowsCore.obj
 0002:0008b6c0       ?Tan@agk@AGK@@SAMM@Z       0059f6c0 f   AGKWindows:WindowsCore.obj
 0002:0008b700       ?SinRad@agk@AGK@@SAMM@Z    0059f700 f   AGKWindows:WindowsCore.obj
 0002:0008b720       ?CosRad@agk@AGK@@SAMM@Z    0059f720 f   AGKWindows:WindowsCore.obj
 0002:0008b740       ?TanRad@agk@AGK@@SAMM@Z    0059f740 f   AGKWindows:WindowsCore.obj
 0002:0008b760       ?ASin@agk@AGK@@SAMM@Z      0059f760 f   AGKWindows:WindowsCore.obj
 0002:0008b7a0       ?ACos@agk@AGK@@SAMM@Z      0059f7a0 f   AGKWindows:WindowsCore.obj
 0002:0008b7e0       ?ATan@agk@AGK@@SAMM@Z      0059f7e0 f   AGKWindows:WindowsCore.obj
 0002:0008b820       ?ASinRad@agk@AGK@@SAMM@Z   0059f820 f   AGKWindows:WindowsCore.obj
 0002:0008b840       ?ACosRad@agk@AGK@@SAMM@Z   0059f840 f   AGKWindows:WindowsCore.obj
 0002:0008b860       ?ATanRad@agk@AGK@@SAMM@Z   0059f860 f   AGKWindows:WindowsCore.obj
 0002:0008b880       ?Trunc@agk@AGK@@SAHM@Z     0059f880 f   AGKWindows:WindowsCore.obj
 0002:0008b8c0       ?Floor@agk@AGK@@SAHM@Z     0059f8c0 f   AGKWindows:WindowsCore.obj
 0002:0008b8f0       ?Ceil@agk@AGK@@SAHM@Z      0059f8f0 f   AGKWindows:WindowsCore.obj
 0002:0008b920       ?Round@agk@AGK@@SAHM@Z     0059f920 f   AGKWindows:WindowsCore.obj
 0002:0008b940       ?Sqrt@agk@AGK@@SAMM@Z      0059f940 f   AGKWindows:WindowsCore.obj
 0002:0008b980       ?Abs@agk@AGK@@SAMM@Z       0059f980 f   AGKWindows:WindowsCore.obj
 0002:0008b9a0       ?Mod@agk@AGK@@SAHHH@Z      0059f9a0 f   AGKWindows:WindowsCore.obj
 0002:0008b9b0       ?FMod@agk@AGK@@SAMMM@Z     0059f9b0 f   AGKWindows:WindowsCore.obj
 0002:0008b9e0       ?BindTexture@cImage@AGK@@SAXI@Z 0059f9e0 f   AGKWindows:WindowsCore.obj
 0002:0008ba80       ?PlatformDelete@cImage@AGK@@IAEXXZ 0059fa80 f   AGKWindows:WindowsCore.obj
 0002:0008bac0       ?Save@cImage@AGK@@QAEXPBD@Z 0059fac0 f   AGKWindows:WindowsCore.obj
 0002:0008be40       ?SetMask@cImage@AGK@@QAEXPAV12@HHHH@Z 0059fe40 f   AGKWindows:WindowsCore.obj
 0002:0008c3c0       ?CreateFromScreen@cImage@AGK@@QAEXHHHH@Z 005a03c0 f   AGKWindows:WindowsCore.obj
 0002:0008c9d0       ?CopyFrom@cImage@AGK@@QAEXPAV12@HHHH@Z 005a09d0 f   AGKWindows:WindowsCore.obj
 0002:0008d0c0       ?SetTransparentColor@cImage@AGK@@QAEXHHH@Z 005a10c0 f   AGKWindows:WindowsCore.obj
 0002:0008d370       ?ChooseFromSystem@cImage@AGK@@QAE_NXZ 005a1370 f   AGKWindows:WindowsCore.obj
 0002:0008d5d0       ?PlatformShowChooseScreen@agk@AGK@@KAXXZ 005a15d0 f   AGKWindows:WindowsCore.obj
 0002:0008d880       ?PlatformShowCaptureScreen@agk@AGK@@KA_NXZ 005a1880 f   AGKWindows:WindowsCore.obj
 0002:0008e850       ?PlatformHideCaptureScreen@agk@AGK@@KAXXZ 005a2850 f   AGKWindows:WindowsCore.obj
 0002:0008eab0       ?CaptureFromCamera@cImage@AGK@@QAE_NXZ 005a2ab0 f   AGKWindows:WindowsCore.obj
 0002:0008f320       ?DecodeQR@cImage@AGK@@QAEHAAVuString@2@@Z 005a3320 f   AGKWindows:WindowsCore.obj
 0002:0008fa40       ?EncodeQR@cImage@AGK@@QAE_NPBDH@Z 005a3a40 f   AGKWindows:WindowsCore.obj
 0002:00090310       ?Print@cImage@AGK@@QAEXM@Z 005a4310 f   AGKWindows:WindowsCore.obj
 0002:000909e0       ?LoadAscii@cImage@AGK@@IAEXXZ 005a49e0 f   AGKWindows:WindowsCore.obj
 0002:00090f80       ?LoadAsciiExt@cImage@AGK@@IAEXXZ 005a4f80 f   AGKWindows:WindowsCore.obj
 0002:00091520       ?PlatformLoadFromData@cImage@AGK@@IAEXHHPAI@Z 005a5520 f   AGKWindows:WindowsCore.obj
 0002:00091ac0       ?PlatformLoad@cImage@AGK@@IAE_NPBD_N@Z 005a5ac0 f   AGKWindows:WindowsCore.obj
 0002:00092bd0       ?PlatformReloadFromData@cImage@AGK@@IAEXXZ 005a6bd0 f   AGKWindows:WindowsCore.obj
 0002:00092fa0       ?PlatformDraw@cSprite@AGK@@IAEXPAM0PAE@Z 005a6fa0 f   AGKWindows:WindowsCore.obj
 0002:000931e0       ?PlatformSetupOpaque@cSpriteMgr@AGK@@IAEXXZ 005a71e0 f   AGKWindows:WindowsCore.obj
 0002:000932f0       ?PlatformSetupColorKey@cSpriteMgr@AGK@@IAEXXZ 005a72f0 f   AGKWindows:WindowsCore.obj
 0002:00093420       ?PlatformSetupAlpha@cSpriteMgr@AGK@@IAEXXZ 005a7420 f   AGKWindows:WindowsCore.obj
 0002:00093540       ?PlatformDrawTriangles@cSpriteMgr@AGK@@IAEXI@Z 005a7540 f   AGKWindows:WindowsCore.obj
 0002:00093580       ?PlatformDrawIndices@cSpriteMgr@AGK@@IAEXIPAG@Z 005a7580 f   AGKWindows:WindowsCore.obj
 0002:000935d0       ?PlatformDraw@cText@AGK@@IAEXXZ 005a75d0 f   AGKWindows:WindowsCore.obj
 0002:00093990       ?GetMaxPointSize@cParticleEmitter@AGK@@KAMXZ 005a7990 f   AGKWindows:WindowsCore.obj
 0002:00093a20       ?PlatformDrawQuadParticles@cParticleEmitter@AGK@@IAEXIPAGPAM1PAE@Z 005a7a20 f   AGKWindows:WindowsCore.obj
 0002:00093b80       ?PlatformDrawPointParticles@cParticleEmitter@AGK@@IAEXIPAMPAE@Z 005a7b80 f   AGKWindows:WindowsCore.obj
 0002:00093e70       ?DrawPolygon@DebugDraw@AGK@@UAEXPBUb2Vec2@@HABUb2Color@@@Z 005a7e70 f   AGKWindows:WindowsCore.obj
 0002:000941b0       ?DrawSolidPolygon@DebugDraw@AGK@@UAEXPBUb2Vec2@@HABUb2Color@@@Z 005a81b0 f   AGKWindows:WindowsCore.obj
 0002:00094670       ?DrawCircle@DebugDraw@AGK@@UAEXABUb2Vec2@@MABUb2Color@@@Z 005a8670 f   AGKWindows:WindowsCore.obj
 0002:00094a60       ?DrawSolidCircle@DebugDraw@AGK@@UAEXABUb2Vec2@@M0ABUb2Color@@@Z 005a8a60 f   AGKWindows:WindowsCore.obj
 0002:00095160       ?DrawSegment@DebugDraw@AGK@@UAEXABUb2Vec2@@0ABUb2Color@@@Z 005a9160 f   AGKWindows:WindowsCore.obj
 0002:00095510       ?DrawTransform@DebugDraw@AGK@@UAEXABUb2Transform@@@Z 005a9510 f   AGKWindows:WindowsCore.obj
 0002:00095530       ?DrawPoint@DebugDraw@AGK@@QAEXABUb2Vec2@@MABUb2Color@@@Z 005a9530 f   AGKWindows:WindowsCore.obj
 0002:00095750       ?PlatformAddFile@cMusicMgr@AGK@@KAXPAVcMusic@12@@Z 005a9750 f   AGKWindows:WindowsCore.obj
 0002:000957b0       ?Play@cMusicMgr@AGK@@QAEXI_NII@Z 005a97b0 f   AGKWindows:WindowsCore.obj
 0002:00096410       ?Pause@cMusicMgr@AGK@@QAEXXZ 005aa410 f   AGKWindows:WindowsCore.obj
 0002:000964a0       ?Resume@cMusicMgr@AGK@@QAEXXZ 005aa4a0 f   AGKWindows:WindowsCore.obj
 0002:00096530       ?Stop@cMusicMgr@AGK@@QAEXXZ 005aa530 f   AGKWindows:WindowsCore.obj
 0002:000965c0       ?SetMasterVolume@cMusicMgr@AGK@@QAEXH@Z 005aa5c0 f   AGKWindows:WindowsCore.obj
 0002:000966c0       ?HandleEvent@cMusicMgr@AGK@@QAEXXZ 005aa6c0 f   AGKWindows:WindowsCore.obj
 0002:000968f0       ?PlatformInit@cSoundMgr@AGK@@KAXXZ 005aa8f0 f   AGKWindows:WindowsCore.obj
 0002:000969c0       ?PlatformAddFile@cSoundMgr@AGK@@KAXPAVcSoundFile@12@@Z 005aa9c0 f   AGKWindows:WindowsCore.obj
 0002:000969d0       ?PlatformUpdate@cSoundMgr@AGK@@KAXXZ 005aa9d0 f   AGKWindows:WindowsCore.obj
 0002:00096cb0       ?PlatformUpdateVolume@cSoundMgr@AGK@@KAXXZ 005aacb0 f   AGKWindows:WindowsCore.obj
 0002:00096da0       ?PlatformDelete@cSoundMgr@AGK@@KAXXZ 005aada0 f   AGKWindows:WindowsCore.obj
 0002:00096e70       ?PlatformCreateInstance@cSoundMgr@AGK@@KAXPAVcSoundFile@12@HHH@Z 005aae70 f   AGKWindows:WindowsCore.obj
 0002:00097370       ?PlatformStopInstances@cSoundMgr@AGK@@KAXI@Z 005ab370 f   AGKWindows:WindowsCore.obj
 0002:00097480       ?ToInt@uString@AGK@@QBEHXZ 005ab480 f   AGKWindows:WindowsCore.obj
 0002:000974b0       ?ToFloat@uString@AGK@@QBEMXZ 005ab4b0 f   AGKWindows:WindowsCore.obj
 0002:000974f0       ?PlatformReportError@agk@AGK@@KAXABVuString@2@@Z 005ab4f0 f   AGKWindows:WindowsCore.obj
 0002:00097540       ?PlatformMessage@agk@AGK@@KAXPBD@Z 005ab540 f   AGKWindows:WindowsCore.obj
 0002:00097600       ?PlatformInit@AGKThread@AGK@@AAEXXZ 005ab600 f   AGKWindows:WindowsCore.obj
 0002:00097640       ?PlatformStart@AGKThread@AGK@@AAEXXZ 005ab640 f   AGKWindows:WindowsCore.obj
 0002:000976a0       ?PlatformStop@AGKThread@AGK@@AAEXXZ 005ab6a0 f   AGKWindows:WindowsCore.obj
 0002:000976e0       ?PlatformTerminate@AGKThread@AGK@@AAEXXZ 005ab6e0 f   AGKWindows:WindowsCore.obj
 0002:00097780       ?PlatformCleanUp@AGKThread@AGK@@AAEXXZ 005ab780 f   AGKWindows:WindowsCore.obj
 0002:000977c0       ?PlatformJoin@AGKThread@AGK@@AAEXXZ 005ab7c0 f   AGKWindows:WindowsCore.obj
 0002:00097800       ?PlatformSleepSafe@AGKThread@AGK@@AAEXI@Z 005ab800 f   AGKWindows:WindowsCore.obj
 0002:00097840       ?SetRawWritePath@agk@AGK@@SAXPBD@Z 005ab840 f   AGKWindows:WindowsCore.obj
 0002:00097a00       ?GetWritePath@agk@AGK@@SAPADXZ 005aba00 f   AGKWindows:WindowsCore.obj
 0002:00097a60       ?PlatformChooseFile@agk@AGK@@KA_NAAVuString@2@PBD@Z 005aba60 f   AGKWindows:WindowsCore.obj
 0002:00097e70       ?PlatformGetFullPathWrite@agk@AGK@@SAXAAVuString@2@@Z 005abe70 f   AGKWindows:WindowsCore.obj
 0002:00097fe0       ?PlatformGetFullPathRead@agk@AGK@@SAXAAVuString@2@@Z 005abfe0 f   AGKWindows:WindowsCore.obj
 0002:00098150       ?PlatformCreatePath@agk@AGK@@SAXVuString@2@@Z 005ac150 f   AGKWindows:WindowsCore.obj
 0002:00098450       ?Exists@cFile@AGK@@SA_NPBD@Z 005ac450 f   AGKWindows:WindowsCore.obj
 0002:000986d0       ?GetModified@cFile@AGK@@SA_NPBDAAH@Z 005ac6d0 f   AGKWindows:WindowsCore.obj
 0002:00098990       ?GetFileSize@cFile@AGK@@SAIPBD@Z 005ac990 f   AGKWindows:WindowsCore.obj
 0002:00098ab0       ?DeleteFileA@cFile@AGK@@SAXPBD@Z 005acab0 f   AGKWindows:WindowsCore.obj
 0002:00098ce0       ?OpenToWrite@cFile@AGK@@QAE_NPBD_N@Z 005acce0 f   AGKWindows:WindowsCore.obj
 0002:00099220       ?OpenToRead@cFile@AGK@@QAE_NPBD@Z 005ad220 f   AGKWindows:WindowsCore.obj
 0002:00099600       ?Close@cFile@AGK@@QAEXXZ   005ad600 f   AGKWindows:WindowsCore.obj
 0002:00099640       ?GetSize@cFile@AGK@@QAEIXZ 005ad640 f   AGKWindows:WindowsCore.obj
 0002:000996f0       ?GetPos@cFile@AGK@@QAEIXZ  005ad6f0 f   AGKWindows:WindowsCore.obj
 0002:00099730       ?Seek@cFile@AGK@@QAEXI@Z   005ad730 f   AGKWindows:WindowsCore.obj
 0002:00099770       ?Rewind@cFile@AGK@@QAEXXZ  005ad770 f   AGKWindows:WindowsCore.obj
 0002:000997b0       ?IsEOF@cFile@AGK@@QAE_NXZ  005ad7b0 f   AGKWindows:WindowsCore.obj
 0002:000997f0       ?WriteInteger@cFile@AGK@@QAEXH@Z 005ad7f0 f   AGKWindows:WindowsCore.obj
 0002:000998b0       ?WriteFloat@cFile@AGK@@QAEXM@Z 005ad8b0 f   AGKWindows:WindowsCore.obj
 0002:00099960       ?WriteString@cFile@AGK@@QAEXPBD@Z 005ad960 f   AGKWindows:WindowsCore.obj
 0002:00099a30       ?WriteData@cFile@AGK@@QAEXPBDI@Z 005ada30 f   AGKWindows:WindowsCore.obj
 0002:00099af0       ?WriteLine@cFile@AGK@@QAEXPBD@Z 005adaf0 f   AGKWindows:WindowsCore.obj
 0002:00099c20       ?ReadInteger@cFile@AGK@@QAEHXZ 005adc20 f   AGKWindows:WindowsCore.obj
 0002:00099d20       ?ReadFloat@cFile@AGK@@QAEMXZ 005add20 f   AGKWindows:WindowsCore.obj
 0002:00099e10       ?ReadString@cFile@AGK@@QAEHAAVuString@2@@Z 005ade10 f   AGKWindows:WindowsCore.obj
 0002:00099fd0       ?ReadLine@cFile@AGK@@QAEHAAVuString@2@@Z 005adfd0 f   AGKWindows:WindowsCore.obj
 0002:0009a1e0       ?ReadData@cFile@AGK@@QAEHPADI@Z 005ae1e0 f   AGKWindows:WindowsCore.obj
 0002:0009a2e0       ?ParseCurrentDirectory@agk@AGK@@KAXXZ 005ae2e0 f   AGKWindows:WindowsCore.obj
 0002:0009a950       ?SetCurrentDir@agk@AGK@@SAHPBD@Z 005ae950 f   AGKWindows:WindowsCore.obj
 0002:0009abc0       ?MakeFolder@agk@AGK@@SAHPBD@Z 005aebc0 f   AGKWindows:WindowsCore.obj
 0002:0009aea0       ?DeleteFolder@agk@AGK@@SAXPBD@Z 005aeea0 f   AGKWindows:WindowsCore.obj
 0002:0009b060       ?GetAccelerometerExists@agk@AGK@@SAHXZ 005af060 f   AGKWindows:WindowsCore.obj
 0002:0009b080       ?GetMultiTouchExists@agk@AGK@@SAHXZ 005af080 f   AGKWindows:WindowsCore.obj
 0002:0009b0a0       ?GetMouseExists@agk@AGK@@SAHXZ 005af0a0 f   AGKWindows:WindowsCore.obj
 0002:0009b0c0       ?GetKeyboardExists@agk@AGK@@SAHXZ 005af0c0 f   AGKWindows:WindowsCore.obj
 0002:0009b0e0       ?GetCameraExists@agk@AGK@@SAHXZ 005af0e0 f   AGKWindows:WindowsCore.obj
 0002:0009b310       ?SetRawMouseVisible@agk@AGK@@SAXH@Z 005af310 f   AGKWindows:WindowsCore.obj
 0002:0009b340       ?PlatformUpdate@cJoystick@AGK@@IAEXXZ 005af340 f   AGKWindows:WindowsCore.obj
 0002:0009b500       ?GetUnixTime64@agk@AGK@@SA_JXZ 005af500 f   AGKWindows:WindowsCore.obj
 0002:0009b560       ?GetUnixTime@agk@AGK@@SAHXZ 005af560 f   AGKWindows:WindowsCore.obj
 0002:0009b5e0       ?GetDayOfWeek@agk@AGK@@SAHXZ 005af5e0 f   AGKWindows:WindowsCore.obj
 0002:0009b680       ?GetCurrentDate@agk@AGK@@SAPADXZ 005af680 f   AGKWindows:WindowsCore.obj
 0002:0009b7d0       ?GetTickCount@agk@AGK@@SAPADXZ 005af7d0 f   AGKWindows:WindowsCore.obj
 0002:0009b910       ?PlatformGetAdPortal@agk@AGK@@KAHXZ 005af910 f   AGKWindows:WindowsCore.obj
 0002:0009b920       ?PlatformStartText@cEditBox@AGK@@IAEXXZ 005af920 f   AGKWindows:WindowsCore.obj
 0002:0009b940       ?PlatformUpdateText@cEditBox@AGK@@IAE_NXZ 005af940 f   AGKWindows:WindowsCore.obj
 0002:0009b960       ?OpenBrowser@agk@AGK@@SAXPBD@Z 005af960 f   AGKWindows:WindowsCore.obj
 0002:000a0da0       ??YuString@AGK@@QAEAAV01@PBD@Z 005b4da0 f i AGKWindows:WindowsCore.obj
 0002:000a0de0       ?sin@@YAMM@Z               005b4de0 f i AGKWindows:WindowsCore.obj
 0002:000a0e10       ?cos@@YAMM@Z               005b4e10 f i AGKWindows:WindowsCore.obj
 0002:000a0e40       ?tan@@YAMM@Z               005b4e40 f i AGKWindows:WindowsCore.obj
 0002:000a0e70       _tanf                      005b4e70 f i AGKWindows:WindowsCore.obj
 0002:000a0eb0       ?asin@@YAMM@Z              005b4eb0 f i AGKWindows:WindowsCore.obj
 0002:000a0ee0       _asinf                     005b4ee0 f i AGKWindows:WindowsCore.obj
 0002:000a0f20       ?acos@@YAMM@Z              005b4f20 f i AGKWindows:WindowsCore.obj
 0002:000a0f50       _acosf                     005b4f50 f i AGKWindows:WindowsCore.obj
 0002:000a0f90       ?atan@@YAMM@Z              005b4f90 f i AGKWindows:WindowsCore.obj
 0002:000a0fc0       _atanf                     005b4fc0 f i AGKWindows:WindowsCore.obj
 0002:000a1000       ?floor@@YAMM@Z             005b5000 f i AGKWindows:WindowsCore.obj
 0002:000a1030       _floorf                    005b5030 f i AGKWindows:WindowsCore.obj
 0002:000a1070       ?lrintf@@YAHM@Z            005b5070 f i AGKWindows:WindowsCore.obj
 0002:000a10a0       ?ceil@@YAMM@Z              005b50a0 f i AGKWindows:WindowsCore.obj
 0002:000a10d0       _ceilf                     005b50d0 f i AGKWindows:WindowsCore.obj
 0002:000a1110       ?sqrt@@YAMM@Z              005b5110 f i AGKWindows:WindowsCore.obj
 0002:000a1140       _sqrtf                     005b5140 f i AGKWindows:WindowsCore.obj
 0002:000a1180       ?fmod@@YAMMM@Z             005b5180 f i AGKWindows:WindowsCore.obj
 0002:000a11b0       _fmodf                     005b51b0 f i AGKWindows:WindowsCore.obj
 0002:000a1200       ??0CImage@ATL@@QAE@XZ      005b5200 f i AGKWindows:WindowsCore.obj
 0002:000a12e0       ?IncreaseCImageCount@CInitGDIPlus@CImage@ATL@@QAEXXZ 005b52e0 f i AGKWindows:WindowsCore.obj
 0002:000a1350       ??_ECImage@ATL@@UAEPAXI@Z  005b5350 f i AGKWindows:WindowsCore.obj
 0002:000a1350       ??_GCImage@ATL@@UAEPAXI@Z  005b5350 f i AGKWindows:WindowsCore.obj
 0002:000a13a0       ??1CImage@ATL@@UAE@XZ      005b53a0 f i AGKWindows:WindowsCore.obj
 0002:000a13f0       ?DecreaseCImageCount@CInitGDIPlus@CImage@ATL@@QAEXXZ 005b53f0 f i AGKWindows:WindowsCore.obj
 0002:000a1490       ?ReleaseGDIPlus@CInitGDIPlus@CImage@ATL@@QAEXXZ 005b5490 f i AGKWindows:WindowsCore.obj
 0002:000a1510       ?Create@CImage@ATL@@QAEHHHHK@Z 005b5510 f i AGKWindows:WindowsCore.obj
 0002:000a1560       ?CreateEx@CImage@ATL@@QAEHHHHKPBKK@Z 005b5560 f i AGKWindows:WindowsCore.obj
 0002:000a18e0       ?memcpy_s@Checked@ATL@@YAXPAXIPBXI@Z 005b58e0 f i AGKWindows:WindowsCore.obj
 0002:000a1920       ?AtlCrtErrorCheck@ATL@@YAHH@Z 005b5920 f i AGKWindows:WindowsCore.obj
 0002:000a1a20       ?AtlThrowImpl@ATL@@YGXJ@Z  005b5a20 f i AGKWindows:WindowsCore.obj
 0002:000a1ac0       ??0CTraceFileAndLineInfo@ATL@@QAE@PBDH@Z 005b5ac0 f i AGKWindows:WindowsCore.obj
 0002:000a1b00       ??RCTraceFileAndLineInfo@ATL@@QBAXKIPBDZZ 005b5b00 f i AGKWindows:WindowsCore.obj
 0002:000a1b70       ?TraceV@CTrace@ATL@@QBAXPBDHKI0PAD@Z 005b5b70 f i AGKWindows:WindowsCore.obj
 0002:000a1bb0       ??BCTraceCategory@ATL@@QBEKXZ 005b5bb0 f i AGKWindows:WindowsCore.obj
 0002:000a1bd0       ??0CAtlException@ATL@@QAE@J@Z 005b5bd0 f i AGKWindows:WindowsCore.obj
 0002:000a1c00       ?Attach@CImage@ATL@@QAEXPAUHBITMAP__@@W4DIBOrientation@12@@Z 005b5c00 f i AGKWindows:WindowsCore.obj
 0002:000a1cb0       ?Destroy@CImage@ATL@@QAEXXZ 005b5cb0 f i AGKWindows:WindowsCore.obj
 0002:000a1d20       ?Detach@CImage@ATL@@QAEPAUHBITMAP__@@XZ 005b5d20 f i AGKWindows:WindowsCore.obj
 0002:000a1e50       ?GetBits@CImage@ATL@@QAEPAXXZ 005b5e50 f i AGKWindows:WindowsCore.obj
 0002:000a1f00       ?IsDIBSection@CImage@ATL@@QBE_NXZ 005b5f00 f i AGKWindows:WindowsCore.obj
 0002:000a1f20       ?Save@CImage@ATL@@QBEJPBDABU_GUID@@@Z 005b5f20 f i AGKWindows:WindowsCore.obj
 0002:000a2680       _==                        005b6680 f i AGKWindows:WindowsCore.obj
 0002:000a26b0       _IsEqualGUID               005b66b0 f i AGKWindows:WindowsCore.obj
 0002:000a26e0       ??$AtlMultiply@H@ATL@@YAJPAHHH@Z 005b66e0 f i AGKWindows:WindowsCore.obj
 0002:000a2780       ?HRESULT_FROM_WIN32@@YAJK@Z 005b6780 f i AGKWindows:WindowsCore.obj
 0002:000a27d0       ?_AtlVerifyStackAvailable@_ATL_SAFE_ALLOCA_IMPL@ATL@@YA_NK@Z 005b67d0 f i AGKWindows:WindowsCore.obj
 0002:000a29d0       ?_AtlGetConversionACP@ATL@@YGIXZ 005b69d0 f i AGKWindows:WindowsCore.obj
 0002:000a29e0       ?AtlA2WHelper@@YGPA_WPA_WPBDHI@Z 005b69e0 f i AGKWindows:WindowsCore.obj
 0002:000a2b00       ?Save@Image@Gdiplus@@QAE?AW4Status@2@PB_WPBU_GUID@@PBVEncoderParameters@2@@Z 005b6b00 f i AGKWindows:WindowsCore.obj
 0002:000a2b50       ?SetStatus@Image@Gdiplus@@IBE?AW4Status@2@W432@@Z 005b6b50 f i AGKWindows:WindowsCore.obj
 0002:000a2b90       ??1Bitmap@Gdiplus@@UAE@XZ  005b6b90 f i AGKWindows:WindowsCore.obj
 0002:000a2bc0       ??1Image@Gdiplus@@UAE@XZ   005b6bc0 f i AGKWindows:WindowsCore.obj
 0002:000a2c00       ??_EImage@Gdiplus@@UAEPAXI@Z 005b6c00 f i AGKWindows:WindowsCore.obj
 0002:000a2c00       ??_GImage@Gdiplus@@UAEPAXI@Z 005b6c00 f i AGKWindows:WindowsCore.obj
 0002:000a2c50       ??3GdiplusBase@Gdiplus@@SAXPAX@Z 005b6c50 f i AGKWindows:WindowsCore.obj
 0002:000a2c70       ?Clone@Image@Gdiplus@@UAEPAV12@XZ 005b6c70 f i AGKWindows:WindowsCore.obj
 0002:000a2db0       ??2GdiplusBase@Gdiplus@@SAPAXI@Z 005b6db0 f i AGKWindows:WindowsCore.obj
 0002:000a2dd0       ??0Image@Gdiplus@@IAE@PAVGpImage@1@W4Status@1@@Z 005b6dd0 f i AGKWindows:WindowsCore.obj
 0002:000a2e20       ?SetNativeImage@Image@Gdiplus@@IAEXPAVGpImage@2@@Z 005b6e20 f i AGKWindows:WindowsCore.obj
 0002:000a2e50       ??0Bitmap@Gdiplus@@QAE@HHHHPAE@Z 005b6e50 f i AGKWindows:WindowsCore.obj
 0002:000a2f70       ??0Image@Gdiplus@@IAE@XZ   005b6f70 f i AGKWindows:WindowsCore.obj
 0002:000a2fa0       ??_EBitmap@Gdiplus@@UAEPAXI@Z 005b6fa0 f i AGKWindows:WindowsCore.obj
 0002:000a2fa0       ??_GBitmap@Gdiplus@@UAEPAXI@Z 005b6fa0 f i AGKWindows:WindowsCore.obj
 0002:000a2ff0       ??0Bitmap@Gdiplus@@QAE@PAUHBITMAP__@@PAUHPALETTE__@@@Z 005b6ff0 f i AGKWindows:WindowsCore.obj
 0002:000a3100       ?GetImageEncodersSize@Gdiplus@@YA?AW4Status@1@PAI0@Z 005b7100 f i AGKWindows:WindowsCore.obj
 0002:000a3120       ?GetImageEncoders@Gdiplus@@YA?AW4Status@1@IIPAVImageCodecInfo@1@@Z 005b7120 f i AGKWindows:WindowsCore.obj
 0002:000a3150       ?FindCodecForExtension@CImage@ATL@@CA?AU_GUID@@PBDPBVImageCodecInfo@Gdiplus@@I@Z 005b7150 f i AGKWindows:WindowsCore.obj
 0002:000a3520       ?FindCodecForFileType@CImage@ATL@@CA?AU_GUID@@ABU3@PBVImageCodecInfo@Gdiplus@@I@Z 005b7520 f i AGKWindows:WindowsCore.obj
 0002:000a35f0       ?UpdateBitmapInfo@CImage@ATL@@AAEXW4DIBOrientation@12@@Z 005b75f0 f i AGKWindows:WindowsCore.obj
 0002:000a3800       ?abs@@YAJJ@Z               005b7800 f i AGKWindows:WindowsCore.obj
 0002:000a3820       ?ComputePitch@CImage@ATL@@CAHHH@Z 005b7820 f i AGKWindows:WindowsCore.obj
 0002:000a3850       ?InitGDIPlus@CImage@ATL@@CA_NXZ 005b7850 f i AGKWindows:WindowsCore.obj
 0002:000a3890       ?Init@CInitGDIPlus@CImage@ATL@@QAE_NXZ 005b7890 f i AGKWindows:WindowsCore.obj
 0002:000a39b0       ??0GdiplusStartupInput@Gdiplus@@QAE@P6GXW4DebugEventLevel@1@PAD@ZHH@Z 005b79b0 f i AGKWindows:WindowsCore.obj
 0002:000a3a00       ??1?$CComPtr@UICreateDevEnum@@@ATL@@QAE@XZ 005b7a00 f i AGKWindows:WindowsCore.obj
 0002:000a3a30       ??1?$CComPtr@UIEnumMoniker@@@ATL@@QAE@XZ 005b7a30 f i AGKWindows:WindowsCore.obj
 0002:000a3a60       ??1DecodeHints@zxing@@QAE@XZ 005b7a60 f i AGKWindows:WindowsCore.obj
 0002:000a3a90       ??0DecodeHints@zxing@@QAE@ABV01@@Z 005b7a90 f i AGKWindows:WindowsCore.obj
 0002:000a3ae0       ?BitBlt@CImage@ATL@@QBEHPAUHDC__@@HHK@Z 005b7ae0 f i AGKWindows:WindowsCore.obj
 0002:000a3b40       ?BitBlt@CImage@ATL@@QBEHPAUHDC__@@HHHHHHK@Z 005b7b40 f i AGKWindows:WindowsCore.obj
 0002:000a3c70       ?GetBPP@CImage@ATL@@QBEHXZ 005b7c70 f i AGKWindows:WindowsCore.obj
 0002:000a3ce0       ?GetDC@CImage@ATL@@QBEPAUHDC__@@XZ 005b7ce0 f i AGKWindows:WindowsCore.obj
 0002:000a3db0       ?GetDC@CDCCache@CImage@ATL@@QAEPAUHDC__@@XZ 005b7db0 f i AGKWindows:WindowsCore.obj
 0002:000a3e50       ?InterlockedExchangePointer@@YGPAXPAPAXPAX@Z 005b7e50 f i AGKWindows:WindowsCore.obj
 0002:000a3e80       ?GetHeight@CImage@ATL@@QBEHXZ 005b7e80 f i AGKWindows:WindowsCore.obj
 0002:000a3ef0       ?GetWidth@CImage@ATL@@QBEHXZ 005b7ef0 f i AGKWindows:WindowsCore.obj
 0002:000a3f60       ?Load@CImage@ATL@@QAEJPBD@Z 005b7f60 f i AGKWindows:WindowsCore.obj
 0002:000a40c0       ?GetLastStatus@Image@Gdiplus@@QBE?AW4Status@2@XZ 005b80c0 f i AGKWindows:WindowsCore.obj
 0002:000a4100       ??0Bitmap@Gdiplus@@QAE@PB_WH@Z 005b8100 f i AGKWindows:WindowsCore.obj
 0002:000a4220       ?CreateFromGdiplusBitmap@CImage@ATL@@AAEJAAVBitmap@Gdiplus@@@Z 005b8220 f i AGKWindows:WindowsCore.obj
 0002:000a4900       ??0Rect@Gdiplus@@QAE@HHHH@Z 005b8900 f i AGKWindows:WindowsCore.obj
 0002:000a4950       ?GetPixelFormatSize@Gdiplus@@YAIH@Z 005b8950 f i AGKWindows:WindowsCore.obj
 0002:000a4970       ?IsIndexedPixelFormat@Gdiplus@@YAHH@Z 005b8970 f i AGKWindows:WindowsCore.obj
 0002:000a4990       ?IsAlphaPixelFormat@Gdiplus@@YAHH@Z 005b8990 f i AGKWindows:WindowsCore.obj
 0002:000a49b0       ??0Graphics@Gdiplus@@QAE@PAVImage@1@@Z 005b89b0 f i AGKWindows:WindowsCore.obj
 0002:000a4a60       ??1Graphics@Gdiplus@@QAE@XZ 005b8a60 f i AGKWindows:WindowsCore.obj
 0002:000a4a90       ?DrawImage@Graphics@Gdiplus@@QAE?AW4Status@2@PAVImage@2@HH@Z 005b8a90 f i AGKWindows:WindowsCore.obj
 0002:000a4b10       ?SetNativeGraphics@Graphics@Gdiplus@@IAEXPAVGpGraphics@2@@Z 005b8b10 f i AGKWindows:WindowsCore.obj
 0002:000a4b40       ?SetStatus@Graphics@Gdiplus@@IBE?AW4Status@2@W432@@Z 005b8b40 f i AGKWindows:WindowsCore.obj
 0002:000a4b80       ?GetWidth@Image@Gdiplus@@QAEIXZ 005b8b80 f i AGKWindows:WindowsCore.obj
 0002:000a4c20       ?GetHeight@Image@Gdiplus@@QAEIXZ 005b8c20 f i AGKWindows:WindowsCore.obj
 0002:000a4cc0       ?GetPixelFormat@Image@Gdiplus@@QAEHXZ 005b8cc0 f i AGKWindows:WindowsCore.obj
 0002:000a4d50       ?GetPaletteSize@Image@Gdiplus@@QAEHXZ 005b8d50 f i AGKWindows:WindowsCore.obj
 0002:000a4df0       ?GetPalette@Image@Gdiplus@@QAE?AW4Status@2@PAUColorPalette@2@H@Z 005b8df0 f i AGKWindows:WindowsCore.obj
 0002:000a4e40       ?LockBits@Bitmap@Gdiplus@@QAE?AW4Status@2@PBVRect@2@IHPAVBitmapData@2@@Z 005b8e40 f i AGKWindows:WindowsCore.obj
 0002:000a4ea0       ?UnlockBits@Bitmap@Gdiplus@@QAE?AW4Status@2@PAVBitmapData@2@@Z 005b8ea0 f i AGKWindows:WindowsCore.obj
 0002:000a4ef0       ?GetPitch@CImage@ATL@@QBEHXZ 005b8ef0 f i AGKWindows:WindowsCore.obj
 0002:000a4fa0       ?ReleaseDC@CImage@ATL@@QBEXXZ 005b8fa0 f i AGKWindows:WindowsCore.obj
 0002:000a50b0       ?ReleaseDC@CDCCache@CImage@ATL@@QAEXPAUHDC__@@@Z 005b90b0 f i AGKWindows:WindowsCore.obj
 0002:000a5160       ?SetColorTable@CImage@ATL@@QAEXIIPBUtagRGBQUAD@@@Z 005b9160 f i AGKWindows:WindowsCore.obj
 0002:000a5280       ?IsIndexed@CImage@ATL@@QBE_NXZ 005b9280 f i AGKWindows:WindowsCore.obj
 0002:000a5330       ??YuString@AGK@@QAEAAV01@ABV01@@Z 005b9330 f i AGKWindows:WindowsCore.obj
 0002:000a5380       ??H@YA?AUb2Vec2@@ABU0@0@Z  005b9380 f i AGKWindows:WindowsCore.obj
 0002:000a53f0       ??D@YA?AUb2Vec2@@MABU0@@Z  005b93f0 f i AGKWindows:WindowsCore.obj
 0002:000a5460       ?log10@@YAMM@Z             005b9460 f i AGKWindows:WindowsCore.obj
 0002:000a5490       _log10f                    005b9490 f i AGKWindows:WindowsCore.obj
 0002:000a54d0       ?Reset@cSoundInst@AGK@@QAEXXZ 005b94d0 f i AGKWindows:WindowsCore.obj
 0002:000a5550       ??_GcSoundInst@AGK@@QAEPAXI@Z 005b9550 f i AGKWindows:WindowsCore.obj
 0002:000a55a0       ??1cSoundInst@AGK@@QAE@XZ  005b95a0 f i AGKWindows:WindowsCore.obj
 0002:000a5610       ??0cSoundInst@AGK@@QAE@XZ  005b9610 f i AGKWindows:WindowsCore.obj
 0002:000a5680       ?EntryPoint@AGKThread@AGK@@SGIPAX@Z 005b9680 f i AGKWindows:WindowsCore.obj
 0002:000a56f0       ?Finally@AGKThread@AGK@@QAEXXZ 005b96f0 f i AGKWindows:WindowsCore.obj
 0002:000a5710       ?Prepend@uString@AGK@@QAEAAV12@ABV12@@Z 005b9710 f i AGKWindows:WindowsCore.obj
 0002:000a5750       ??0cDirectoryItem@AGK@@QAE@XZ 005b9750 f i AGKWindows:WindowsCore.obj
 0002:000a5790       ??_GcDirectoryItem@AGK@@QAEPAXI@Z 005b9790 f i AGKWindows:WindowsCore.obj
 0002:000a57e0       ??1cDirectoryItem@AGK@@QAE@XZ 005b97e0 f i AGKWindows:WindowsCore.obj
 0002:000a5810       ??0?$CAtlSafeAllocBufferManager@VCCRTAllocator@ATL@@@_ATL_SAFE_ALLOCA_IMPL@ATL@@QAE@XZ 005b9810 f i AGKWindows:WindowsCore.obj
 0002:000a5840       ?Allocate@?$CAtlSafeAllocBufferManager@VCCRTAllocator@ATL@@@_ATL_SAFE_ALLOCA_IMPL@ATL@@QAEPAXK@Z 005b9840 f i AGKWindows:WindowsCore.obj
 0002:000a58c0       ?Allocate@CCRTAllocator@ATL@@SAPAXI@Z 005b98c0 f i AGKWindows:WindowsCore.obj
 0002:000a58e0       ??1?$CAtlSafeAllocBufferManager@VCCRTAllocator@ATL@@@_ATL_SAFE_ALLOCA_IMPL@ATL@@QAE@XZ 005b98e0 f i AGKWindows:WindowsCore.obj
 0002:000a5950       ?Free@CCRTAllocator@ATL@@SAXPAX@Z 005b9950 f i AGKWindows:WindowsCore.obj
 0002:000a5970       ??0?$CStringT@_WV?$StrTraitATL@_WV?$ChTraitsCRT@_W@ATL@@@ATL@@@ATL@@QAE@PB_W@Z 005b9970 f i AGKWindows:WindowsCore.obj
 0002:000a5a20       ??1?$CStringT@_WV?$StrTraitATL@_WV?$ChTraitsCRT@_W@ATL@@@ATL@@@ATL@@QAE@XZ 005b9a20 f i AGKWindows:WindowsCore.obj
 0002:000a5a50       ?CompareNoCase@?$CStringT@_WV?$StrTraitATL@_WV?$ChTraitsCRT@_W@ATL@@@ATL@@@ATL@@QBEHPB_W@Z 005b9a50 f i AGKWindows:WindowsCore.obj
 0002:000a5b20       ?AtlIsValidString@ATL@@YAHPB_WI@Z 005b9b20 f i AGKWindows:WindowsCore.obj
 0002:000a5b40       ?StringCompareIgnore@?$ChTraitsCRT@_W@ATL@@SAHPB_W0@Z 005b9b40 f i AGKWindows:WindowsCore.obj
 0002:000a5b70       ?Tokenize@?$CStringT@_WV?$StrTraitATL@_WV?$ChTraitsCRT@_W@ATL@@@ATL@@@ATL@@QBE?AV12@PB_WAAH@Z 005b9b70 f i AGKWindows:WindowsCore.obj
 0002:000a5d90       ?StringSpanIncluding@?$ChTraitsCRT@_W@ATL@@SAHPB_W0@Z 005b9d90 f i AGKWindows:WindowsCore.obj
 0002:000a5dc0       ?StringSpanExcluding@?$ChTraitsCRT@_W@ATL@@SAHPB_W0@Z 005b9dc0 f i AGKWindows:WindowsCore.obj
 0002:000a5df0       ??B?$CSimpleStringT@_W$0A@@ATL@@QBEPB_WXZ 005b9df0 f i AGKWindows:WindowsCore.obj
 0002:000a5e10       ??0?$CA2WEX@$0IA@@ATL@@QAE@PBD@Z 005b9e10 f i AGKWindows:WindowsCore.obj
 0002:000a5e60       ??1?$CA2WEX@$0IA@@ATL@@QAE@XZ 005b9e60 f i AGKWindows:WindowsCore.obj
 0002:000a5eb0       ??B?$CA2WEX@$0IA@@ATL@@QBEPA_WXZ 005b9eb0 f i AGKWindows:WindowsCore.obj
 0002:000a5ed0       ?c_str@?$basic_string@DU?$char_traits@D@std@@V?$allocator@D@2@@std@@QBEPBDXZ 005b9ed0 f i AGKWindows:WindowsCore.obj
 0002:000a5f00       ??1?$Ref@VString@zxing@@@zxing@@QAE@XZ 005b9f00 f i AGKWindows:WindowsCore.obj
 0002:000a5f40       ?release@Counted@zxing@@QAEXXZ 005b9f40 f i AGKWindows:WindowsCore.obj
 0002:000a6020       ??C?$Ref@VString@zxing@@@zxing@@QBEPAVString@1@XZ 005ba020 f i AGKWindows:WindowsCore.obj
 0002:000a6040       ??0?$Ref@VResultPointCallback@zxing@@@zxing@@QAE@ABV01@@Z 005ba040 f i AGKWindows:WindowsCore.obj
 0002:000a6090       ??1?$Ref@VResultPointCallback@zxing@@@zxing@@QAE@XZ 005ba090 f i AGKWindows:WindowsCore.obj
 0002:000a60d0       ??0?$CComPtr@UICreateDevEnum@@@ATL@@QAE@PAUICreateDevEnum@@@Z 005ba0d0 f i AGKWindows:WindowsCore.obj
 0002:000a6110       ??1?$CComPtrBase@UICreateDevEnum@@@ATL@@QAE@XZ 005ba110 f i AGKWindows:WindowsCore.obj
 0002:000a6170       ??I?$CComPtrBase@UICreateDevEnum@@@ATL@@QAEPAPAUICreateDevEnum@@XZ 005ba170 f i AGKWindows:WindowsCore.obj
 0002:000a61d0       ??C?$CComPtrBase@UICreateDevEnum@@@ATL@@QBEPAV?$_NoAddRefReleaseOnCComPtr@UICreateDevEnum@@@1@XZ 005ba1d0 f i AGKWindows:WindowsCore.obj
 0002:000a6230       ??0?$CComPtr@UIEnumMoniker@@@ATL@@QAE@PAUIEnumMoniker@@@Z 005ba230 f i AGKWindows:WindowsCore.obj
 0002:000a6270       ??1?$CComPtrBase@UIEnumMoniker@@@ATL@@QAE@XZ 005ba270 f i AGKWindows:WindowsCore.obj
 0002:000a62d0       ??I?$CComPtrBase@UIEnumMoniker@@@ATL@@QAEPAPAUIEnumMoniker@@XZ 005ba2d0 f i AGKWindows:WindowsCore.obj
 0002:000a6330       ??C?$CComPtrBase@UIEnumMoniker@@@ATL@@QBEPAV?$_NoAddRefReleaseOnCComPtr@UIEnumMoniker@@@1@XZ 005ba330 f i AGKWindows:WindowsCore.obj
 0002:000a6390       ??7?$CComPtrBase@UIEnumMoniker@@@ATL@@QBE_NXZ 005ba390 f i AGKWindows:WindowsCore.obj
 0002:000a63c0       ??0?$Ref@VGreyscaleLuminanceSource@zxing@@@zxing@@QAE@PAVGreyscaleLuminanceSource@1@@Z 005ba3c0 f i AGKWindows:WindowsCore.obj
 0002:000a6410       ??1?$Ref@VGreyscaleLuminanceSource@zxing@@@zxing@@QAE@XZ 005ba410 f i AGKWindows:WindowsCore.obj
 0002:000a6450       ??0?$Ref@VGlobalHistogramBinarizer@zxing@@@zxing@@QAE@PAVGlobalHistogramBinarizer@1@@Z 005ba450 f i AGKWindows:WindowsCore.obj
 0002:000a64a0       ??1?$Ref@VGlobalHistogramBinarizer@zxing@@@zxing@@QAE@XZ 005ba4a0 f i AGKWindows:WindowsCore.obj
 0002:000a64e0       ??0?$Ref@VBinaryBitmap@zxing@@@zxing@@QAE@PAVBinaryBitmap@1@@Z 005ba4e0 f i AGKWindows:WindowsCore.obj
 0002:000a6530       ??0?$Ref@VBinaryBitmap@zxing@@@zxing@@QAE@ABV01@@Z 005ba530 f i AGKWindows:WindowsCore.obj
 0002:000a6580       ??1?$Ref@VBinaryBitmap@zxing@@@zxing@@QAE@XZ 005ba580 f i AGKWindows:WindowsCore.obj
 0002:000a65c0       ??1?$Ref@VResult@zxing@@@zxing@@QAE@XZ 005ba5c0 f i AGKWindows:WindowsCore.obj
 0002:000a6600       ??C?$Ref@VResult@zxing@@@zxing@@QBEPAVResult@1@XZ 005ba600 f i AGKWindows:WindowsCore.obj
 0002:000a6620       ??0?$CStringT@_WV?$StrTraitATL@_WV?$ChTraitsCRT@_W@ATL@@@ATL@@@ATL@@QAE@PAUIAtlStringMgr@1@@Z 005ba620 f i AGKWindows:WindowsCore.obj
 0002:000a6660       ??0?$CStringT@_WV?$StrTraitATL@_WV?$ChTraitsCRT@_W@ATL@@@ATL@@@ATL@@QAE@PB_WPAUIAtlStringMgr@1@@Z 005ba660 f i AGKWindows:WindowsCore.obj
 0002:000a6710       ??4?$CStringT@_WV?$StrTraitATL@_WV?$ChTraitsCRT@_W@ATL@@@ATL@@@ATL@@QAEAAV01@PB_W@Z 005ba710 f i AGKWindows:WindowsCore.obj
 0002:000a6750       ?GetManager@?$CStringT@_WV?$StrTraitATL@_WV?$ChTraitsCRT@_W@ATL@@@ATL@@@ATL@@QBEPAUIAtlStringMgr@2@XZ 005ba750 f i AGKWindows:WindowsCore.obj
 0002:000a67d0       ?Mid@?$CStringT@_WV?$StrTraitATL@_WV?$ChTraitsCRT@_W@ATL@@@ATL@@@ATL@@QBE?AV12@HH@Z 005ba7d0 f i AGKWindows:WindowsCore.obj
 0002:000a6940       ?CheckImplicitLoad@?$CStringT@_WV?$StrTraitATL@_WV?$ChTraitsCRT@_W@ATL@@@ATL@@@ATL@@AAE_NPBX@Z 005ba940 f i AGKWindows:WindowsCore.obj
 0002:000a6a00       ??0?$CSimpleStringT@_W$0A@@ATL@@QAE@PAUIAtlStringMgr@1@@Z 005baa00 f i AGKWindows:WindowsCore.obj
 0002:000a6ad0       ??1?$CSimpleStringT@_W$0A@@ATL@@QAE@XZ 005baad0 f i AGKWindows:WindowsCore.obj
 0002:000a6b20       ?Release@CStringData@ATL@@QAEXXZ 005bab20 f i AGKWindows:WindowsCore.obj
 0002:000a6bc0       ?GetLength@?$CSimpleStringT@_W$0A@@ATL@@QBEHXZ 005babc0 f i AGKWindows:WindowsCore.obj
 0002:000a6bf0       ?GetString@?$CSimpleStringT@_W$0A@@ATL@@QBEPB_WXZ 005babf0 f i AGKWindows:WindowsCore.obj
 0002:000a6c10       ?Init@?$CA2WEX@$0IA@@ATL@@AAEXPBDI@Z 005bac10 f i AGKWindows:WindowsCore.obj
 0002:000a6db0       ?AtlThrowLastWin32@ATL@@YGXXZ 005badb0 f i AGKWindows:WindowsCore.obj
 0002:000a6e00       ?reset@?$Ref@VResultPointCallback@zxing@@@zxing@@QAEXPAVResultPointCallback@2@@Z 005bae00 f i AGKWindows:WindowsCore.obj
 0002:000a6e60       ?retain@Counted@zxing@@QAEPAV12@XZ 005bae60 f i AGKWindows:WindowsCore.obj
 0002:000a6e90       ??0?$CComPtrBase@UICreateDevEnum@@@ATL@@IAE@PAUICreateDevEnum@@@Z 005bae90 f i AGKWindows:WindowsCore.obj
 0002:000a6f00       ??0?$CComPtrBase@UIEnumMoniker@@@ATL@@IAE@PAUIEnumMoniker@@@Z 005baf00 f i AGKWindows:WindowsCore.obj
 0002:000a6f70       ?reset@?$Ref@VGreyscaleLuminanceSource@zxing@@@zxing@@QAEXPAVGreyscaleLuminanceSource@2@@Z 005baf70 f i AGKWindows:WindowsCore.obj
 0002:000a6fd0       ?reset@?$Ref@VGlobalHistogramBinarizer@zxing@@@zxing@@QAEXPAVGlobalHistogramBinarizer@2@@Z 005bafd0 f i AGKWindows:WindowsCore.obj
 0002:000a7030       ?reset@?$Ref@VBinaryBitmap@zxing@@@zxing@@QAEXPAVBinaryBitmap@2@@Z 005bb030 f i AGKWindows:WindowsCore.obj
 0002:000a7090       ?GetData@CAtlSafeAllocBufferNode@?$CAtlSafeAllocBufferManager@VCCRTAllocator@ATL@@@_ATL_SAFE_ALLOCA_IMPL@ATL@@QAEPAXXZ 005bb090 f i AGKWindows:WindowsCore.obj
 0002:000a70b0       ?GetDefaultManager@?$StrTraitATL@_WV?$ChTraitsCRT@_W@ATL@@@ATL@@SAPAUIAtlStringMgr@2@XZ 005bb0b0 f i AGKWindows:WindowsCore.obj
 0002:000a70c0       ??0?$CStringT@_WV?$StrTraitATL@_WV?$ChTraitsCRT@_W@ATL@@@ATL@@@ATL@@QAE@ABV01@@Z 005bb0c0 f i AGKWindows:WindowsCore.obj
 0002:000a7100       ??0?$CStringT@_WV?$StrTraitATL@_WV?$ChTraitsCRT@_W@ATL@@@ATL@@@ATL@@QAE@PB_WHPAUIAtlStringMgr@1@@Z 005bb100 f i AGKWindows:WindowsCore.obj
 0002:000a7150       ?LoadStringA@?$CStringT@_WV?$StrTraitATL@_WV?$ChTraitsCRT@_W@ATL@@@ATL@@@ATL@@QAEHI@Z 005bb150 f i AGKWindows:WindowsCore.obj
 0002:000a71c0       ??4?$CSimpleStringT@_W$0A@@ATL@@QAEAAV01@PB_W@Z 005bb1c0 f i AGKWindows:WindowsCore.obj
 0002:000a7200       ?GetManager@?$CSimpleStringT@_W$0A@@ATL@@QBEPAUIAtlStringMgr@2@XZ 005bb200 f i AGKWindows:WindowsCore.obj
 0002:000a7280       ?Attach@?$CSimpleStringT@_W$0A@@ATL@@AAEXPAUCStringData@2@@Z 005bb280 f i AGKWindows:WindowsCore.obj
 0002:000a72c0       ?data@CStringData@ATL@@QAEPAXXZ 005bb2c0 f i AGKWindows:WindowsCore.obj
 0002:000a72e0       ?GetData@?$CSimpleStringT@_W$0A@@ATL@@ABEPAUCStringData@2@XZ 005bb2e0 f i AGKWindows:WindowsCore.obj
 0002:000a7300       ?LoadStringA@?$CStringT@_WV?$StrTraitATL@_WV?$ChTraitsCRT@_W@ATL@@@ATL@@@ATL@@QAEHPAUHINSTANCE__@@I@Z 005bb300 f i AGKWindows:WindowsCore.obj
 0002:000a73d0       ?AtlGetStringResourceImage@ATL@@YAPBUATLSTRINGRESOURCEIMAGE@1@PAUHINSTANCE__@@I@Z 005bb3d0 f i AGKWindows:WindowsCore.obj
 0002:000a7450       ?_AtlGetStringResourceImage@ATL@@YAPBUATLSTRINGRESOURCEIMAGE@1@PAUHINSTANCE__@@PAUHRSRC__@@I@Z 005bb450 f i AGKWindows:WindowsCore.obj
 0002:000a7570       ?GetBaseTypeLength@?$ChTraitsCRT@_W@ATL@@SAHPB_WH@Z 005bb570 f i AGKWindows:WindowsCore.obj
 0002:000a7580       ?ConvertToBaseType@?$ChTraitsCRT@_W@ATL@@SAXPA_WHPB_WH@Z 005bb580 f i AGKWindows:WindowsCore.obj
 0002:000a75d0       ?wmemcpy_s@Checked@ATL@@YAXPA_WIPB_WI@Z 005bb5d0 f i AGKWindows:WindowsCore.obj
 0002:000a7610       ?GetBaseTypeLength@?$ChTraitsCRT@_W@ATL@@SAHPB_W@Z 005bb610 f i AGKWindows:WindowsCore.obj
 0002:000a7630       ??0?$CSimpleStringT@_W$0A@@ATL@@QAE@ABV01@@Z 005bb630 f i AGKWindows:WindowsCore.obj
 0002:000a76a0       ??0?$CSimpleStringT@_W$0A@@ATL@@QAE@PB_WHPAUIAtlStringMgr@1@@Z 005bb6a0 f i AGKWindows:WindowsCore.obj
 0002:000a77d0       ?SetString@?$CSimpleStringT@_W$0A@@ATL@@QAEXPB_W@Z 005bb7d0 f i AGKWindows:WindowsCore.obj
 0002:000a7820       ?FindStringResourceInstance@?$StrTraitATL@_WV?$ChTraitsCRT@_W@ATL@@@ATL@@SAPAUHINSTANCE__@@I@Z 005bb820 f i AGKWindows:WindowsCore.obj
 0002:000a7840       ?AtlFindStringResourceInstance@ATL@@YAPAUHINSTANCE__@@IG@Z 005bb840 f i AGKWindows:WindowsCore.obj
 0002:000a7900       ?AtlGetStringResourceImage@ATL@@YAPBUATLSTRINGRESOURCEIMAGE@1@PAUHINSTANCE__@@IG@Z 005bb900 f i AGKWindows:WindowsCore.obj
 0002:000a7990       ?GetBuffer@?$CSimpleStringT@_W$0A@@ATL@@QAEPA_WH@Z 005bb990 f i AGKWindows:WindowsCore.obj
 0002:000a79d0       ?ReleaseBufferSetLength@?$CSimpleStringT@_W$0A@@ATL@@QAEXH@Z 005bb9d0 f i AGKWindows:WindowsCore.obj
 0002:000a7a40       ?SetString@?$CSimpleStringT@_W$0A@@ATL@@QAEXPB_WH@Z 005bba40 f i AGKWindows:WindowsCore.obj
 0002:000a7b50       ?CopyChars@?$CSimpleStringT@_W$0A@@ATL@@SAXPA_WIPB_WH@Z 005bbb50 f i AGKWindows:WindowsCore.obj
 0002:000a7b90       ?StringLength@?$CSimpleStringT@_W$0A@@ATL@@SAHPB_W@Z 005bbb90 f i AGKWindows:WindowsCore.obj
 0002:000a7bc0       ?ThrowMemoryException@?$CSimpleStringT@_W$0A@@ATL@@KAXXZ 005bbbc0 f i AGKWindows:WindowsCore.obj
 0002:000a7be0       ?SetLength@?$CSimpleStringT@_W$0A@@ATL@@AAEXH@Z 005bbbe0 f i AGKWindows:WindowsCore.obj
 0002:000a7cc0       ?CloneData@?$CSimpleStringT@_W$0A@@ATL@@CAPAUCStringData@2@PAU32@@Z 005bbcc0 f i AGKWindows:WindowsCore.obj
 0002:000a7de0       ?AddRef@CStringData@ATL@@QAEXXZ 005bbde0 f i AGKWindows:WindowsCore.obj
 0002:000a7e50       ?IsLocked@CStringData@ATL@@QBE_NXZ 005bbe50 f i AGKWindows:WindowsCore.obj
 0002:000a7e80       ?Empty@?$CSimpleStringT@_W$0A@@ATL@@QAEXXZ 005bbe80 f i AGKWindows:WindowsCore.obj
 0002:000a7f40       ?GetAllocLength@?$CSimpleStringT@_W$0A@@ATL@@QBEHXZ 005bbf40 f i AGKWindows:WindowsCore.obj
 0002:000a7f70       ?CopyCharsOverlapped@?$CSimpleStringT@_W$0A@@ATL@@SAXPA_WIPB_WH@Z 005bbf70 f i AGKWindows:WindowsCore.obj
 0002:000a7fb0       ?PrepareWrite@?$CSimpleStringT@_W$0A@@ATL@@AAEPA_WH@Z 005bbfb0 f i AGKWindows:WindowsCore.obj
 0002:000a8050       ?PrepareWrite2@?$CSimpleStringT@_W$0A@@ATL@@AAEXH@Z 005bc050 f i AGKWindows:WindowsCore.obj
 0002:000a8140       ?IsShared@CStringData@ATL@@QBE_NXZ 005bc140 f i AGKWindows:WindowsCore.obj
 0002:000a8170       ?Fork@?$CSimpleStringT@_W$0A@@ATL@@AAEXH@Z 005bc170 f i AGKWindows:WindowsCore.obj
 0002:000a82a0       ?Reallocate@?$CSimpleStringT@_W$0A@@ATL@@AAEXH@Z 005bc2a0 f i AGKWindows:WindowsCore.obj
 0002:000a8390       ??$AtlAdd@K@ATL@@YAJPAKKK@Z 005bc390 f i AGKWindows:WindowsCore.obj
 0002:000a83d0       ??$AtlAlignUp@I@ATL@@YGIIK@Z 005bc3d0 f i AGKWindows:WindowsCore.obj
 0002:000a8400       ??$?0VGreyscaleLuminanceSource@zxing@@@?$Ref@VLuminanceSource@zxing@@@zxing@@QAE@ABV?$Ref@VGreyscaleLuminanceSource@zxing@@@1@@Z 005bc400 f i AGKWindows:WindowsCore.obj
 0002:000a8450       ??$?0VGlobalHistogramBinarizer@zxing@@@?$Ref@VBinarizer@zxing@@@zxing@@QAE@ABV?$Ref@VGlobalHistogramBinarizer@zxing@@@1@@Z 005bc450 f i AGKWindows:WindowsCore.obj
 0002:000a84a0       ??$AtlAddThrow@K@ATL@@YAKKK@Z 005bc4a0 f i AGKWindows:WindowsCore.obj
 0002:000a8540       ??$AtlConvFreeMemory@_W@ATL@@YAXPA_W0H@Z 005bc540 f i AGKWindows:WindowsCore.obj
 0002:000a8590       ??$AtlAddThrow@H@ATL@@YAHHH@Z 005bc590 f i AGKWindows:WindowsCore.obj
 0002:000a8630       ??$AtlConvAllocMemory@_W@ATL@@YAXPAPA_WHPA_WH@Z 005bc630 f i AGKWindows:WindowsCore.obj
 0002:000a8840       ?reset@?$Ref@VLuminanceSource@zxing@@@zxing@@QAEXPAVLuminanceSource@2@@Z 005bc840 f i AGKWindows:WindowsCore.obj
 0002:000a88a0       ?reset@?$Ref@VBinarizer@zxing@@@zxing@@QAEXPAVBinarizer@2@@Z 005bc8a0 f i AGKWindows:WindowsCore.obj
 0002:000a8900       ??$AtlAdd@H@ATL@@YAJPAHHH@Z 005bc900 f i AGKWindows:WindowsCore.obj
 0002:000a8950       ??0uString@AGK@@QAE@XZ     005bc950 f   AGKWindows:uString.obj
 0002:000a8990       ??0uString@AGK@@QAE@PBDI@Z 005bc990 f   AGKWindows:uString.obj
 0002:000a8a10       ??0uString@AGK@@QAE@ABV01@@Z 005bca10 f   AGKWindows:uString.obj
 0002:000a8a60       ??1uString@AGK@@QAE@XZ     005bca60 f   AGKWindows:uString.obj
 0002:000a8a90       ?Reset@uString@AGK@@IAEXXZ 005bca90 f   AGKWindows:uString.obj
 0002:000a8af0       ?SetStr@uString@AGK@@QAEXPBD@Z 005bcaf0 f   AGKWindows:uString.obj
 0002:000a8bd0       ?CompareTo@uString@AGK@@QBEHPBD@Z 005bcbd0 f   AGKWindows:uString.obj
 0002:000a8c30       ?Prepend@uString@AGK@@QAEAAV12@PBD@Z 005bcc30 f   AGKWindows:uString.obj
 0002:000a8d30       ?Append@uString@AGK@@QAEAAV12@PBD@Z 005bcd30 f   AGKWindows:uString.obj
 0002:000a8e50       ?Append@uString@AGK@@QAEAAV12@D@Z 005bce50 f   AGKWindows:uString.obj
 0002:000a8f70       ?AppendN@uString@AGK@@QAEAAV12@PBDI@Z 005bcf70 f   AGKWindows:uString.obj
 0002:000a90a0       ?Append@uString@AGK@@QAEAAV12@H@Z 005bd0a0 f   AGKWindows:uString.obj
 0002:000a9140       ?Append@uString@AGK@@QAEAAV12@M@Z 005bd140 f   AGKWindows:uString.obj
 0002:000a91e0       ?Append@uString@AGK@@QAEAAV12@I@Z 005bd1e0 f   AGKWindows:uString.obj
 0002:000a9280       ?InsertCharAt@uString@AGK@@QAEAAV12@ID@Z 005bd280 f   AGKWindows:uString.obj
 0002:000a9420       ?DeleteCharAt@uString@AGK@@QAEAAV12@I@Z 005bd420 f   AGKWindows:uString.obj
 0002:000a94a0       ?Format@uString@AGK@@QAAAAV12@PBDZZ 005bd4a0 f   AGKWindows:uString.obj
 0002:000a95a0       ?Strip@uString@AGK@@QAEAAV12@PBD@Z 005bd5a0 f   AGKWindows:uString.obj
 0002:000a96f0       ?Trim@uString@AGK@@QAEAAV12@PBD@Z 005bd6f0 f   AGKWindows:uString.obj
 0002:000a9890       ?Replace@uString@AGK@@QAEAAV12@DD@Z 005bd890 f   AGKWindows:uString.obj
 0002:000a9920       ?ReplaceStr@uString@AGK@@QAEAAV12@PBD0@Z 005bd920 f   AGKWindows:uString.obj
 0002:000a9ad0       ?Upper@uString@AGK@@QAEAAV12@XZ 005bdad0 f   AGKWindows:uString.obj
 0002:000a9b50       ?Lower@uString@AGK@@QAEAAV12@XZ 005bdb50 f   AGKWindows:uString.obj
 0002:000a9bd0       ?CharAt@uString@AGK@@QBEDI@Z 005bdbd0 f   AGKWindows:uString.obj
 0002:000a9c10       ?Find@uString@AGK@@QBEHD@Z 005bdc10 f   AGKWindows:uString.obj
 0002:000a9c80       ?RevFind@uString@AGK@@QBEHD@Z 005bdc80 f   AGKWindows:uString.obj
 0002:000a9d20       ?Trunc@uString@AGK@@QAEXD@Z 005bdd20 f   AGKWindows:uString.obj
 0002:000a9dc0       ?Trunc2@uString@AGK@@QAEXH@Z 005bddc0 f   AGKWindows:uString.obj
 0002:000a9e50       ?FindStr@uString@AGK@@QBEHPBD@Z 005bde50 f   AGKWindows:uString.obj
 0002:000a9ec0       ?Count@uString@AGK@@QAEHD@Z 005bdec0 f   AGKWindows:uString.obj
 0002:000a9f40       ?SubString@uString@AGK@@QBEXAAV12@HH@Z 005bdf40 f   AGKWindows:uString.obj
 0002:000aa010       ?CountTokens@uString@AGK@@QAEHPBD@Z 005be010 f   AGKWindows:uString.obj
 0002:000aa110       ?GetToken@uString@AGK@@QAEPADPBDH@Z 005be110 f   AGKWindows:uString.obj
 0002:000aa940       ?strstr@@YAPADPADPBD@Z     005be940 f i AGKWindows:uString.obj
 0002:000aa970       ??0cMusicMgr@AGK@@QAE@XZ   005be970 f   AGKWindows:cSound.obj
 0002:000aa9f0       ??1cMusicMgr@AGK@@QAE@XZ   005be9f0 f   AGKWindows:cSound.obj
 0002:000aaa20       ?AddFile@cMusicMgr@AGK@@QAEIABVuString@2@@Z 005bea20 f   AGKWindows:cSound.obj
 0002:000aabe0       ?AddFile@cMusicMgr@AGK@@QAEXIABVuString@2@@Z 005bebe0 f   AGKWindows:cSound.obj
 0002:000aade0       ?Exists@cMusicMgr@AGK@@QAEII@Z 005bede0 f   AGKWindows:cSound.obj
 0002:000aae20       ?SetFileVolume@cMusicMgr@AGK@@QAEXIH@Z 005bee20 f   AGKWindows:cSound.obj
 0002:000aae80       ?CurrentlyPlaying@cMusicMgr@AGK@@QAEIXZ 005bee80 f   AGKWindows:cSound.obj
 0002:000aaef0       ?RemoveFile@cMusicMgr@AGK@@QAEXI@Z 005beef0 f   AGKWindows:cSound.obj
 0002:000ab040       ?ClearAll@cMusicMgr@AGK@@QAEXXZ 005bf040 f   AGKWindows:cSound.obj
 0002:000ab0d0       ??0cSoundFile@cSoundMgr@AGK@@QAE@XZ 005bf0d0 f   AGKWindows:cSound.obj
 0002:000ab140       ??1cSoundFile@cSoundMgr@AGK@@QAE@XZ 005bf140 f   AGKWindows:cSound.obj
 0002:000ab1d0       ?Init@cSoundMgr@AGK@@SAXXZ 005bf1d0 f   AGKWindows:cSound.obj
 0002:000ab230       ?UpdateSounds@cSoundMgr@AGK@@SAXXZ 005bf230 f   AGKWindows:cSound.obj
 0002:000ab250       ?SetVolume@cSoundMgr@AGK@@SAXH@Z 005bf250 f   AGKWindows:cSound.obj
 0002:000ab290       ?AddFile@cSoundMgr@AGK@@SAIABVuString@2@H@Z 005bf290 f   AGKWindows:cSound.obj
 0002:000ab3e0       ?AddFile@cSoundMgr@AGK@@SAXIABVuString@2@H@Z 005bf3e0 f   AGKWindows:cSound.obj
 0002:000abd80       ?PlayInstance@cSoundMgr@AGK@@SAXIHHH@Z 005bfd80 f   AGKWindows:cSound.obj
 0002:000abef0       ?StopAll@cSoundMgr@AGK@@SAXI@Z 005bfef0 f   AGKWindows:cSound.obj
 0002:000abfe0       ?DeleteFileA@cSoundMgr@AGK@@SAXI@Z 005bffe0 f   AGKWindows:cSound.obj
 0002:000ac190       ?CountInstances@cSoundMgr@AGK@@SAII@Z 005c0190 f   AGKWindows:cSound.obj
 0002:000ac2a0       ?Exists@cSoundMgr@AGK@@SAII@Z 005c02a0 f   AGKWindows:cSound.obj
 0002:000ac930       ??0cMusic@cMusicMgr@AGK@@QAE@XZ 005c0930 f i AGKWindows:cSound.obj
 0002:000ac970       ??_GcMusic@cMusicMgr@AGK@@QAEPAXI@Z 005c0970 f i AGKWindows:cSound.obj
 0002:000ac9c0       ??1cMusic@cMusicMgr@AGK@@QAE@XZ 005c09c0 f i AGKWindows:cSound.obj
 0002:000ac9f0       ??_GcSoundFile@cSoundMgr@AGK@@QAEPAXI@Z 005c09f0 f i AGKWindows:cSound.obj
 0002:000aca40       ??0b2World@@QAE@ABUb2Vec2@@_N@Z 005c0a40 f   AGKWindows:b2World.obj
 0002:000acbb0       ??1b2World@@QAE@XZ         005c0bb0 f   AGKWindows:b2World.obj
 0002:000acca0       ?SetDestructionListener@b2World@@QAEXPAVb2DestructionListener@@@Z 005c0ca0 f   AGKWindows:b2World.obj
 0002:000accc0       ?SetContactFilter@b2World@@QAEXPAVb2ContactFilter@@@Z 005c0cc0 f   AGKWindows:b2World.obj
 0002:000acce0       ?SetContactListener@b2World@@QAEXPAVb2ContactListener@@@Z 005c0ce0 f   AGKWindows:b2World.obj
 0002:000acd00       ?SetDebugDraw@b2World@@QAEXPAVb2Draw@@@Z 005c0d00 f   AGKWindows:b2World.obj
 0002:000acd20       ?CreateBody@b2World@@QAEPAVb2Body@@PBUb2BodyDef@@@Z 005c0d20 f   AGKWindows:b2World.obj
 0002:000ace70       ?DestroyBody@b2World@@QAEXPAVb2Body@@@Z 005c0e70 f   AGKWindows:b2World.obj
 0002:000ad0f0       ?CreateJoint@b2World@@QAEPAVb2Joint@@PBUb2JointDef@@@Z 005c10f0 f   AGKWindows:b2World.obj
 0002:000ad2d0       ?DestroyJoint@b2World@@QAEXPAVb2Joint@@@Z 005c12d0 f   AGKWindows:b2World.obj
 0002:000ad4f0       ?Solve@b2World@@AAEXABUb2TimeStep@@@Z 005c14f0 f   AGKWindows:b2World.obj
 0002:000adb20       ?SolveTOI@b2World@@AAEXABUb2TimeStep@@@Z 005c1b20 f   AGKWindows:b2World.obj
 0002:000ae690       ?Step@b2World@@QAEXMHH@Z   005c2690 f   AGKWindows:b2World.obj
 0002:000ae8f0       ?ClearForces@b2World@@QAEXXZ 005c28f0 f   AGKWindows:b2World.obj
 0002:000ae950       ?QueryAABB@b2World@@QBEXPAVb2QueryCallback@@ABUb2AABB@@@Z 005c2950 f   AGKWindows:b2World.obj
 0002:000ae9e0       ?RayCast@b2World@@QBEXPAVb2RayCastCallback@@ABUb2Vec2@@1@Z 005c29e0 f   AGKWindows:b2World.obj
 0002:000aeac0       ?DrawShape@b2World@@AAEXPAVb2Fixture@@ABUb2Transform@@ABUb2Color@@@Z 005c2ac0 f   AGKWindows:b2World.obj
 0002:000aeeb0       ?DrawJoint@b2World@@AAEXPAVb2Joint@@@Z 005c2eb0 f   AGKWindows:b2World.obj
 0002:000af1c0       ?DrawDebugData@b2World@@QAEXXZ 005c31c0 f   AGKWindows:b2World.obj
 0002:000af740       ?GetProxyCount@b2World@@QBEHXZ 005c3740 f   AGKWindows:b2World.obj
 0002:000af770       ?GetTreeHeight@b2World@@QBEHXZ 005c3770 f   AGKWindows:b2World.obj
 0002:000af7a0       ?GetTreeBalance@b2World@@QBEHXZ 005c37a0 f   AGKWindows:b2World.obj
 0002:000af7d0       ?GetTreeQuality@b2World@@QBEMXZ 005c37d0 f   AGKWindows:b2World.obj
 0002:000b0370       ??1b2ContactManager@@QAE@XZ 005c4370 f i AGKWindows:b2World.obj
 0002:000b03a0       ?IsLocked@b2World@@QBE_NXZ 005c43a0 f i AGKWindows:b2World.obj
 0002:000b03d0       ??_Gb2Body@@AAEPAXI@Z      005c43d0 f i AGKWindows:b2World.obj
 0002:000b0420       ?GetContactList@b2Body@@QAEPAUb2ContactEdge@@XZ 005c4420 f i AGKWindows:b2World.obj
 0002:000b0440       ?FlagForFiltering@b2Contact@@IAEXXZ 005c4440 f i AGKWindows:b2World.obj
 0002:000b0470       ?IsActive@b2Body@@QBE_NXZ  005c4470 f i AGKWindows:b2World.obj
 0002:000b04a0       ?Clear@b2Island@@QAEXXZ    005c44a0 f i AGKWindows:b2World.obj
 0002:000b04e0       ?Add@b2Island@@QAEXPAVb2Body@@@Z 005c44e0 f i AGKWindows:b2World.obj
 0002:000b0570       ?Add@b2Island@@QAEXPAVb2Contact@@@Z 005c4570 f i AGKWindows:b2World.obj
 0002:000b05f0       ?Add@b2Island@@QAEXPAVb2Joint@@@Z 005c45f0 f i AGKWindows:b2World.obj
 0002:000b0670       ?IsEnabled@b2Contact@@QBE_NXZ 005c4670 f i AGKWindows:b2World.obj
 0002:000b06a0       ?Advance@b2Sweep@@QAEXM@Z  005c46a0 f i AGKWindows:b2World.obj
 0002:000b07e0       ?IsBullet@b2Body@@QBE_NXZ  005c47e0 f i AGKWindows:b2World.obj
 0002:000b0810       ?SynchronizeTransform@b2Body@@AAEXXZ 005c4810 f i AGKWindows:b2World.obj
 0002:000b08b0       ?b2Mul@@YA?AUb2Vec2@@ABUb2Rot@@ABU1@@Z 005c48b0 f i AGKWindows:b2World.obj
 0002:000b0940       ?Advance@b2Body@@AAEXM@Z   005c4940 f i AGKWindows:b2World.obj
 0002:000b0a20       ?IsSensor@b2Fixture@@QBE_NXZ 005c4a20 f i AGKWindows:b2World.obj
 0002:000b0a40       ?SetEnabled@b2Contact@@QAEX_N@Z 005c4a40 f i AGKWindows:b2World.obj
 0002:000b0a90       ?GetChildIndexA@b2Contact@@QBEHXZ 005c4a90 f i AGKWindows:b2World.obj
 0002:000b0ab0       ?GetChildIndexB@b2Contact@@QBEHXZ 005c4ab0 f i AGKWindows:b2World.obj
 0002:000b0ad0       ??0b2TOIInput@@QAE@XZ      005c4ad0 f i AGKWindows:b2World.obj
 0002:000b0b30       ??0b2DistanceProxy@@QAE@XZ 005c4b30 f i AGKWindows:b2World.obj
 0002:000b0b90       ??0b2Sweep@@QAE@XZ         005c4b90 f i AGKWindows:b2World.obj
 0002:000b0be0       ?GetType@b2Fixture@@QBE?AW4Type@b2Shape@@XZ 005c4be0 f i AGKWindows:b2World.obj
 0002:000b0c10       ?GetType@b2Shape@@QBE?AW4Type@1@XZ 005c4c10 f i AGKWindows:b2World.obj
 0002:000b0c30       ?GetVertexCount@b2ChainShape@@QBEHXZ 005c4c30 f i AGKWindows:b2World.obj
 0002:000b0c50       ?GetVertices@b2ChainShape@@QBEPBUb2Vec2@@XZ 005c4c50 f i AGKWindows:b2World.obj
 0002:000b0c70       ?GetTransform@b2Body@@QBEABUb2Transform@@XZ 005c4c70 f i AGKWindows:b2World.obj
 0002:000b0c90       ?GetBodyA@b2Joint@@QAEPAVb2Body@@XZ 005c4c90 f i AGKWindows:b2World.obj
 0002:000b0cb0       ??0b2Color@@QAE@MMM@Z      005c4cb0 f i AGKWindows:b2World.obj
 0002:000b0cf0       ?GetFatAABB@b2BroadPhase@@QBEABUb2AABB@@H@Z 005c4cf0 f i AGKWindows:b2World.obj
 0002:000b0d30       ?GetFatAABB@b2DynamicTree@@QBEABUb2AABB@@H@Z 005c4d30 f i AGKWindows:b2World.obj
 0002:000b0da0       ?GetWorldCenter@b2Body@@QBEABUb2Vec2@@XZ 005c4da0 f i AGKWindows:b2World.obj
 0002:000b0dc0       ?GetNext@b2Joint@@QAEPAV1@XZ 005c4dc0 f i AGKWindows:b2World.obj
 0002:000b0de0       ?GetProxyCount@b2BroadPhase@@QBEHXZ 005c4de0 f i AGKWindows:b2World.obj
 0002:000b0e00       ?GetTreeHeight@b2BroadPhase@@QBEHXZ 005c4e00 f i AGKWindows:b2World.obj
 0002:000b0e30       ?GetTreeBalance@b2BroadPhase@@QBEHXZ 005c4e30 f i AGKWindows:b2World.obj
 0002:000b0e60       ?GetTreeQuality@b2BroadPhase@@QBEMXZ 005c4e60 f i AGKWindows:b2World.obj
 0002:000b0e90       ??$b2Min@M@@YAMMM@Z        005c4e90 f i AGKWindows:b2World.obj
 0002:000b0ed0       ??$Query@Ub2WorldQueryWrapper@@@b2BroadPhase@@QBEXPAUb2WorldQueryWrapper@@ABUb2AABB@@@Z 005c4ed0 f i AGKWindows:b2World.obj
 0002:000b0f10       ??$RayCast@Ub2WorldRayCastWrapper@@@b2BroadPhase@@QBEXPAUb2WorldRayCastWrapper@@ABUb2RayCastInput@@@Z 005c4f10 f i AGKWindows:b2World.obj
 0002:000b0f50       ??$Query@Ub2WorldQueryWrapper@@@b2DynamicTree@@QBEXPAUb2WorldQueryWrapper@@ABUb2AABB@@@Z 005c4f50 f i AGKWindows:b2World.obj
 0002:000b1160       ?b2TestOverlap@@YA_NABUb2AABB@@0@Z 005c5160 f i AGKWindows:b2World.obj
 0002:000b12a0       ?IsLeaf@b2TreeNode@@QBE_NXZ 005c52a0 f i AGKWindows:b2World.obj
 0002:000b12d0       ?QueryCallback@b2WorldQueryWrapper@@QAE_NH@Z 005c52d0 f i AGKWindows:b2World.obj
 0002:000b1350       ?GetUserData@b2BroadPhase@@QBEPAXH@Z 005c5350 f i AGKWindows:b2World.obj
 0002:000b1390       ?GetUserData@b2DynamicTree@@QBEPAXH@Z 005c5390 f i AGKWindows:b2World.obj
 0002:000b1400       ??$RayCast@Ub2WorldRayCastWrapper@@@b2DynamicTree@@QBEXPAUb2WorldRayCastWrapper@@ABUb2RayCastInput@@@Z 005c5400 f i AGKWindows:b2World.obj
 0002:000b1a60       ?LengthSquared@b2Vec2@@QBEMXZ 005c5a60 f i AGKWindows:b2World.obj
 0002:000b1ab0       ?Normalize@b2Vec2@@QAEMXZ  005c5ab0 f i AGKWindows:b2World.obj
 0002:000b1b50       ?Length@b2Vec2@@QBEMXZ     005c5b50 f i AGKWindows:b2World.obj
 0002:000b1bc0       ?b2Dot@@YAMABUb2Vec2@@0@Z  005c5bc0 f i AGKWindows:b2World.obj
 0002:000b1c00       ?b2Cross@@YA?AUb2Vec2@@MABU1@@Z 005c5c00 f i AGKWindows:b2World.obj
 0002:000b1c70       ?b2Abs@@YA?AUb2Vec2@@ABU1@@Z 005c5c70 f i AGKWindows:b2World.obj
 0002:000b1cc0       ?b2Min@@YA?AUb2Vec2@@ABU1@0@Z 005c5cc0 f i AGKWindows:b2World.obj
 0002:000b1d30       ?b2Max@@YA?AUb2Vec2@@ABU1@0@Z 005c5d30 f i AGKWindows:b2World.obj
 0002:000b1da0       ?GetCenter@b2AABB@@QBE?AUb2Vec2@@XZ 005c5da0 f i AGKWindows:b2World.obj
 0002:000b1e20       ?GetExtents@b2AABB@@QBE?AUb2Vec2@@XZ 005c5e20 f i AGKWindows:b2World.obj
 0002:000b1ea0       ?RayCastCallback@b2WorldRayCastWrapper@@QAEMABUb2RayCastInput@@H@Z 005c5ea0 f i AGKWindows:b2World.obj
 0002:000b2060       ?RayCast@b2Fixture@@QBE_NPAUb2RayCastOutput@@ABUb2RayCastInput@@H@Z 005c6060 f i AGKWindows:b2World.obj
 0002:000b20d0       ??$b2Abs@M@@YAMM@Z         005c60d0 f i AGKWindows:b2World.obj
 0002:000b2110       ??$b2Max@M@@YAMMM@Z        005c6110 f i AGKWindows:b2World.obj
 0002:000b2150       ??0b2AABB@@QAE@XZ          005c6150 f i AGKWindows:b2World.obj
 0002:000b2190       ??0?$b2GrowableStack@H$0BAA@@@QAE@XZ 005c6190 f i AGKWindows:b2World.obj
 0002:000b21e0       ??1?$b2GrowableStack@H$0BAA@@@QAE@XZ 005c61e0 f i AGKWindows:b2World.obj
 0002:000b2230       ?Push@?$b2GrowableStack@H$0BAA@@@QAEXABH@Z 005c6230 f i AGKWindows:b2World.obj
 0002:000b2340       ?Pop@?$b2GrowableStack@H$0BAA@@@QAEHXZ 005c6340 f i AGKWindows:b2World.obj
 0002:000b23c0       ?GetCount@?$b2GrowableStack@H$0BAA@@@QAEHXZ 005c63c0 f i AGKWindows:b2World.obj
 0002:000b23f0       ??0cSpriteMgr@AGK@@QAE@XZ  005c63f0 f   AGKWindows:cSpriteMgr.obj
 0002:000b24b0       ??1cSpriteMgr@AGK@@QAE@XZ  005c64b0 f   AGKWindows:cSpriteMgr.obj
 0002:000b2640       ?ClearAll@cSpriteMgr@AGK@@QAEXXZ 005c6640 f   AGKWindows:cSpriteMgr.obj
 0002:000b2830       ?SetSortTextures@cSpriteMgr@AGK@@QAEX_N@Z 005c6830 f   AGKWindows:cSpriteMgr.obj
 0002:000b2850       ?SetSortDepth@cSpriteMgr@AGK@@QAEX_N@Z 005c6850 f   AGKWindows:cSpriteMgr.obj
 0002:000b2870       ?SetSortTransparentDepth@cSpriteMgr@AGK@@QAEX_N@Z 005c6870 f   AGKWindows:cSpriteMgr.obj
 0002:000b2890       ?AddSprite@cSpriteMgr@AGK@@QAEXPAVcSprite@2@@Z 005c6890 f   AGKWindows:cSpriteMgr.obj
 0002:000b2990       ?AddParticles@cSpriteMgr@AGK@@QAEXPAVcParticleEmitter@2@@Z 005c6990 f   AGKWindows:cSpriteMgr.obj
 0002:000b2a90       ?AddText@cSpriteMgr@AGK@@QAEXPAVcText@2@@Z 005c6a90 f   AGKWindows:cSpriteMgr.obj
 0002:000b2b90       ?AddEditBox@cSpriteMgr@AGK@@QAEXPAVcEditBox@2@@Z 005c6b90 f   AGKWindows:cSpriteMgr.obj
 0002:000b2c90       ?AddContainer@cSpriteMgr@AGK@@IAE_NPAVcSpriteContainer@2@@Z 005c6c90 f   AGKWindows:cSpriteMgr.obj
 0002:000b3080       ?RemoveSprite@cSpriteMgr@AGK@@QAEXPAVcSprite@2@@Z 005c7080 f   AGKWindows:cSpriteMgr.obj
 0002:000b3290       ?RemoveParticles@cSpriteMgr@AGK@@QAEXPAVcParticleEmitter@2@@Z 005c7290 f   AGKWindows:cSpriteMgr.obj
 0002:000b34a0       ?RemoveText@cSpriteMgr@AGK@@QAEXPAVcText@2@@Z 005c74a0 f   AGKWindows:cSpriteMgr.obj
 0002:000b36b0       ?RemoveEditBox@cSpriteMgr@AGK@@QAEXPAVcEditBox@2@@Z 005c76b0 f   AGKWindows:cSpriteMgr.obj
 0002:000b38c0       ?SetQuality@cSpriteMgr@AGK@@QAEXH@Z 005c78c0 f   AGKWindows:cSpriteMgr.obj
 0002:000b38e0       ?UpdateAll@cSpriteMgr@AGK@@UAEXM@Z 005c78e0 f   AGKWindows:cSpriteMgr.obj
 0002:000b39c0       ?DrawAll@cSpriteMgr@AGK@@UAEXXZ 005c79c0 f   AGKWindows:cSpriteMgr.obj
 0002:000b4080       ?DrawList@cSpriteMgr@AGK@@IAEXPAVcSpriteContainer@2@H@Z 005c8080 f   AGKWindows:cSpriteMgr.obj
 0002:000b4560       ?DrawDebug@cSpriteMgr@AGK@@QAEXXZ 005c8560 f   AGKWindows:cSpriteMgr.obj
 0002:000b58a0       ??_GcSpriteContainer@AGK@@QAEPAXI@Z 005c98a0 f i AGKWindows:cSpriteMgr.obj
 0002:000b58f0       ??1cSpriteContainer@AGK@@QAE@XZ 005c98f0 f i AGKWindows:cSpriteMgr.obj
 0002:000b5910       ??0cSpriteContainer@AGK@@QAE@XZ 005c9910 f i AGKWindows:cSpriteMgr.obj
 0002:000b5950       ?SetSprite@cSpriteContainer@AGK@@QAEXPAVcSprite@2@@Z 005c9950 f i AGKWindows:cSpriteMgr.obj
 0002:000b5980       ?SetParticles@cSpriteContainer@AGK@@QAEXPAVcParticleEmitter@2@@Z 005c9980 f i AGKWindows:cSpriteMgr.obj
 0002:000b59b0       ?SetText@cSpriteContainer@AGK@@QAEXPAVcText@2@@Z 005c99b0 f i AGKWindows:cSpriteMgr.obj
 0002:000b59e0       ?SetEditBox@cSpriteContainer@AGK@@QAEXPAVcEditBox@2@@Z 005c99e0 f i AGKWindows:cSpriteMgr.obj
 0002:000b5a10       ?GetType@cSpriteContainer@AGK@@QAEHXZ 005c9a10 f i AGKWindows:cSpriteMgr.obj
 0002:000b5a30       ?GetDepth@cSpriteContainer@AGK@@QAEMXZ 005c9a30 f i AGKWindows:cSpriteMgr.obj
 0002:000b5af0       ?GetZ@cText@AGK@@QAEMXZ    005c9af0 f i AGKWindows:cSpriteMgr.obj
 0002:000b5b30       ?GetZ@cParticleEmitter@AGK@@QAEMXZ 005c9b30 f i AGKWindows:cSpriteMgr.obj
 0002:000b5b50       ?GetZ@cEditBox@AGK@@QAEMXZ 005c9b50 f i AGKWindows:cSpriteMgr.obj
 0002:000b5b70       ?GetDrawMode@cSpriteContainer@AGK@@QAEHXZ 005c9b70 f i AGKWindows:cSpriteMgr.obj
 0002:000b5c20       ?GetTransparency@cText@AGK@@QAEHXZ 005c9c20 f i AGKWindows:cSpriteMgr.obj
 0002:000b5c40       ?GetTextureID@cSpriteContainer@AGK@@QAEIXZ 005c9c40 f i AGKWindows:cSpriteMgr.obj
 0002:000b5d00       ?CheckDepthChanged@cSpriteContainer@AGK@@QAE_NXZ 005c9d00 f i AGKWindows:cSpriteMgr.obj
 0002:000b5dc0       ?CheckDepthChanged@cText@AGK@@QAE_NXZ 005c9dc0 f i AGKWindows:cSpriteMgr.obj
 0002:000b5e00       ?CheckDepthChanged@cParticleEmitter@AGK@@QAE_NXZ 005c9e00 f i AGKWindows:cSpriteMgr.obj
 0002:000b5e40       ?CheckDepthChanged@cEditBox@AGK@@QAE_NXZ 005c9e40 f i AGKWindows:cSpriteMgr.obj
 0002:000b5e60       ?CheckTextureChanged@cSpriteContainer@AGK@@QAE_NXZ 005c9e60 f i AGKWindows:cSpriteMgr.obj
 0002:000b5f00       ?GetSprite@cSpriteContainer@AGK@@QAEPAVcSprite@2@XZ 005c9f00 f i AGKWindows:cSpriteMgr.obj
 0002:000b5f20       ?GetParticles@cSpriteContainer@AGK@@QAEPAVcParticleEmitter@2@XZ 005c9f20 f i AGKWindows:cSpriteMgr.obj
 0002:000b5f40       ?GetText@cSpriteContainer@AGK@@QAEPAVcText@2@XZ 005c9f40 f i AGKWindows:cSpriteMgr.obj
 0002:000b5f60       ?GetEditBox@cSpriteContainer@AGK@@QAEPAVcEditBox@2@XZ 005c9f60 f i AGKWindows:cSpriteMgr.obj
 0002:000b5f80       ?GetDepthChanged@cSpriteContainer@AGK@@QAE_NXZ 005c9f80 f i AGKWindows:cSpriteMgr.obj
 0002:000b6040       ?GetDepthChanged@cText@AGK@@QAE_NXZ 005ca040 f i AGKWindows:cSpriteMgr.obj
 0002:000b6090       ?GetDepthChanged@cParticleEmitter@AGK@@QAE_NXZ 005ca090 f i AGKWindows:cSpriteMgr.obj
 0002:000b60e0       ?GetTextureChanged@cSpriteContainer@AGK@@QAE_NXZ 005ca0e0 f i AGKWindows:cSpriteMgr.obj
 0002:000b6180       ?GetTransparencyChanged@cSpriteContainer@AGK@@QAE_NXZ 005ca180 f i AGKWindows:cSpriteMgr.obj
 0002:000b6230       ?GetTextureChanged@cText@AGK@@QAE_NXZ 005ca230 f i AGKWindows:cSpriteMgr.obj
 0002:000b6280       ?Reset@cImage@AGK@@IAEXXZ  005ca280 f   AGKWindows:cImage.obj
 0002:000b63d0       ?SetCompressedPixelData@cImage@AGK@@IAEXPAEI@Z 005ca3d0 f   AGKWindows:cImage.obj
 0002:000b64f0       ??0cImage@AGK@@QAE@XZ      005ca4f0 f   AGKWindows:cImage.obj
 0002:000b6560       ??0cImage@AGK@@QAE@PBD@Z   005ca560 f   AGKWindows:cImage.obj
 0002:000b65e0       ??0cImage@AGK@@QAE@ABVuString@1@@Z 005ca5e0 f   AGKWindows:cImage.obj
 0002:000b6660       ??1cImage@AGK@@QAE@XZ      005ca660 f   AGKWindows:cImage.obj
 0002:000b6820       ?ReloadAllImages@cImage@AGK@@SAXXZ 005ca820 f   AGKWindows:cImage.obj
 0002:000b6920       ?GetTextureID@cImage@AGK@@QBEIXZ 005ca920 f   AGKWindows:cImage.obj
 0002:000b6960       ?GetTotalWidth@cImage@AGK@@QBEHXZ 005ca960 f   AGKWindows:cImage.obj
 0002:000b69a0       ?GetTotalHeight@cImage@AGK@@QBEHXZ 005ca9a0 f   AGKWindows:cImage.obj
 0002:000b69e0       ?GetTotalWidth2@cImage@AGK@@QBEHXZ 005ca9e0 f   AGKWindows:cImage.obj
 0002:000b6a20       ?GetTotalHeight2@cImage@AGK@@QBEHXZ 005caa20 f   AGKWindows:cImage.obj
 0002:000b6a60       ?GetU1@cImage@AGK@@QBEMXZ  005caa60 f   AGKWindows:cImage.obj
 0002:000b6a80       ?GetID@cImage@AGK@@QBEIXZ  005caa80 f   AGKWindows:cImage.obj
 0002:000b6aa0       ?GetV1@cImage@AGK@@QBEMXZ  005caaa0 f   AGKWindows:cImage.obj
 0002:000b6ac0       ?GetU2@cImage@AGK@@QBEMXZ  005caac0 f   AGKWindows:cImage.obj
 0002:000b6ae0       ?GetV2@cImage@AGK@@QBEMXZ  005caae0 f   AGKWindows:cImage.obj
 0002:000b6b00       ?GetWidth@cImage@AGK@@QBEHXZ 005cab00 f   AGKWindows:cImage.obj
 0002:000b6b20       ?GetHeight@cImage@AGK@@QBEHXZ 005cab20 f   AGKWindows:cImage.obj
 0002:000b6b40       ?GetPath@cImage@AGK@@QBEPBDXZ 005cab40 f   AGKWindows:cImage.obj
 0002:000b6b70       ?HasParent@cImage@AGK@@QBE_NXZ 005cab70 f   AGKWindows:cImage.obj
 0002:000b6b90       ?IsAtlas@cImage@AGK@@QBE_NXZ 005cab90 f   AGKWindows:cImage.obj
 0002:000b6bb0       ?Load@cImage@AGK@@QAE_NABVuString@2@_N@Z 005cabb0 f   AGKWindows:cImage.obj
 0002:000b6bf0       ?Load@cImage@AGK@@QAE_NPBD_N@Z 005cabf0 f   AGKWindows:cImage.obj
 0002:000b7660       ?LoadSubImage@cImage@AGK@@QAE_NPAV12@ABVuString@2@_N@Z 005cb660 f   AGKWindows:cImage.obj
 0002:000b76a0       ?LoadSubImage@cImage@AGK@@QAE_NPAV12@PBD_N@Z 005cb6a0 f   AGKWindows:cImage.obj
 0002:000b7940       ?LoadGif@cImage@AGK@@QAE_NPBD@Z 005cb940 f   AGKWindows:cImage.obj
 0002:000b8240       ?GetBoundingPoints@cImage@AGK@@QAEPBVPoint2D@2@MMMM@Z 005cc240 f   AGKWindows:cImage.obj
 0002:000b85d0       ?CreateAlphaPixels@cImage@AGK@@QAEXH@Z 005cc5d0 f   AGKWindows:cImage.obj
 0002:000b8670       ?SetAlphaPixel@cImage@AGK@@QAEXHH@Z 005cc670 f   AGKWindows:cImage.obj
 0002:000b8710       ?GetAlphaPixel@cImage@AGK@@QAEHHH@Z 005cc710 f   AGKWindows:cImage.obj
 0002:000b88b0       ?GetAlphaPixelUV@cImage@AGK@@QAEHMM@Z 005cc8b0 f   AGKWindows:cImage.obj
 0002:000b8a10       ?SetMagFilter@cImage@AGK@@QAEXI@Z 005cca10 f   AGKWindows:cImage.obj
 0002:000b8b10       ?SetMinFilter@cImage@AGK@@QAEXI@Z 005ccb10 f   AGKWindows:cImage.obj
 0002:000b8c60       ?SetWrapU@cImage@AGK@@QAEXI@Z 005ccc60 f   AGKWindows:cImage.obj
 0002:000b8dc0       ?SetWrapV@cImage@AGK@@QAEXI@Z 005ccdc0 f   AGKWindows:cImage.obj
 0002:000b9a40       ??_GcSubImage@AGK@@QAEPAXI@Z 005cda40 f i AGKWindows:cImage.obj
 0002:000b9a90       ??1cSubImage@AGK@@QAE@XZ   005cda90 f i AGKWindows:cImage.obj
 0002:000b9ac0       ??_GPoint2D@AGK@@QAEPAXI@Z 005cdac0 f i AGKWindows:cImage.obj
 0002:000b9b10       ??1Point2D@AGK@@QAE@XZ     005cdb10 f i AGKWindows:cImage.obj
 0002:000b9b30       ??0cSubImage@AGK@@QAE@XZ   005cdb30 f i AGKWindows:cImage.obj
 0002:000b9ba0       ?UpdateDepth@cSprite@AGK@@SAXXZ 005cdba0 f   AGKWindows:cSprite.obj
 0002:000b9cb0       ?Reset@cSprite@AGK@@IAEXXZ 005cdcb0 f   AGKWindows:cSprite.obj
 0002:000b9f90       ??0cSprite@AGK@@QAE@XZ     005cdf90 f   AGKWindows:cSprite.obj
 0002:000ba070       ??0cSprite@AGK@@QAE@ABVuString@1@@Z 005ce070 f   AGKWindows:cSprite.obj
 0002:000ba160       ??0cSprite@AGK@@QAE@PAVcImage@1@@Z 005ce160 f   AGKWindows:cSprite.obj
 0002:000ba250       ??0cSprite@AGK@@QAE@PBV01@@Z 005ce250 f   AGKWindows:cSprite.obj
 0002:000ba670       ??1cSprite@AGK@@QAE@XZ     005ce670 f   AGKWindows:cSprite.obj
 0002:000ba830       ?RecalcVisualRadius@cSprite@AGK@@IAEXXZ 005ce830 f   AGKWindows:cSprite.obj
 0002:000ba960       ?RecalcColRadius@cSprite@AGK@@IAEXXZ 005ce960 f   AGKWindows:cSprite.obj
 0002:000bace0       ?GetID@cSprite@AGK@@QAEIXZ 005cece0 f   AGKWindows:cSprite.obj
 0002:000bad00       ?GetX@cSprite@AGK@@QAEMXZ  005ced00 f   AGKWindows:cSprite.obj
 0002:000bad30       ?GetY@cSprite@AGK@@QAEMXZ  005ced30 f   AGKWindows:cSprite.obj
 0002:000bad60       ?GetZ@cSprite@AGK@@QAEMXZ  005ced60 f   AGKWindows:cSprite.obj
 0002:000bad80       ?GetXByOffset@cSprite@AGK@@QAEMXZ 005ced80 f   AGKWindows:cSprite.obj
 0002:000bada0       ?GetYByOffset@cSprite@AGK@@QAEMXZ 005ceda0 f   AGKWindows:cSprite.obj
 0002:000badc0       ?GetOffsetX@cSprite@AGK@@QAEMXZ 005cedc0 f   AGKWindows:cSprite.obj
 0002:000bade0       ?GetOffsetY@cSprite@AGK@@QAEMXZ 005cede0 f   AGKWindows:cSprite.obj
 0002:000bae00       ?GetAngle@cSprite@AGK@@QAEMXZ 005cee00 f   AGKWindows:cSprite.obj
 0002:000bae30       ?GetAngleRad@cSprite@AGK@@QAEMXZ 005cee30 f   AGKWindows:cSprite.obj
 0002:000bae50       ?GetWidth@cSprite@AGK@@QAEMXZ 005cee50 f   AGKWindows:cSprite.obj
 0002:000bae70       ?GetHeight@cSprite@AGK@@QAEMXZ 005cee70 f   AGKWindows:cSprite.obj
 0002:000bae90       ?GetDepth@cSprite@AGK@@QAEHXZ 005cee90 f   AGKWindows:cSprite.obj
 0002:000baee0       ?GetFrameCount@cSprite@AGK@@QAEHXZ 005ceee0 f   AGKWindows:cSprite.obj
 0002:000baf00       ?GetCurrentFrame@cSprite@AGK@@QAEHXZ 005cef00 f   AGKWindows:cSprite.obj
 0002:000baf20       ?GetTransparencyMode@cSprite@AGK@@QAEHXZ 005cef20 f   AGKWindows:cSprite.obj
 0002:000baf40       ?GetImagePtr@cSprite@AGK@@QAEPAVcImage@2@XZ 005cef40 f   AGKWindows:cSprite.obj
 0002:000baf60       ?GetDepthChanged@cSprite@AGK@@QAE_NXZ 005cef60 f   AGKWindows:cSprite.obj
 0002:000bafa0       ?CheckDepthChanged@cSprite@AGK@@QAE_NXZ 005cefa0 f   AGKWindows:cSprite.obj
 0002:000bafd0       ?GetTextureChanged@cSprite@AGK@@QAE_NXZ 005cefd0 f   AGKWindows:cSprite.obj
 0002:000bb010       ?CheckTextureChanged@cSprite@AGK@@QAE_NXZ 005cf010 f   AGKWindows:cSprite.obj
 0002:000bb040       ?GetTransparencyChanged@cSprite@AGK@@QAE_NXZ 005cf040 f   AGKWindows:cSprite.obj
 0002:000bb080       ?GetVisible@cSprite@AGK@@QAE_NXZ 005cf080 f   AGKWindows:cSprite.obj
 0002:000bb0b0       ?GetInScreen@cSprite@AGK@@QAE_NXZ 005cf0b0 f   AGKWindows:cSprite.obj
 0002:000bb280       ?GetActive@cSprite@AGK@@QAE_NXZ 005cf280 f   AGKWindows:cSprite.obj
 0002:000bb2b0       ?GetHitTest@cSprite@AGK@@QAE_NMM@Z 005cf2b0 f   AGKWindows:cSprite.obj
 0002:000bb5e0       ?GetShouldCollide@cSprite@AGK@@QAE_NPAV12@@Z 005cf5e0 f   AGKWindows:cSprite.obj
 0002:000bb6a0       ?GetColorRed@cSprite@AGK@@QAEIXZ 005cf6a0 f   AGKWindows:cSprite.obj
 0002:000bb6c0       ?GetColorGreen@cSprite@AGK@@QAEIXZ 005cf6c0 f   AGKWindows:cSprite.obj
 0002:000bb6e0       ?GetColorBlue@cSprite@AGK@@QAEIXZ 005cf6e0 f   AGKWindows:cSprite.obj
 0002:000bb700       ?GetColorAlpha@cSprite@AGK@@QAEIXZ 005cf700 f   AGKWindows:cSprite.obj
 0002:000bb720       ?GetScrollMode@cSprite@AGK@@QAEHXZ 005cf720 f   AGKWindows:cSprite.obj
 0002:000bb750       ?GetPlaying@cSprite@AGK@@QAEHXZ 005cf750 f   AGKWindows:cSprite.obj
 0002:000bb780       ?GetScissorOn@cSprite@AGK@@QAE_NXZ 005cf780 f   AGKWindows:cSprite.obj
 0002:000bb7e0       ?GetXFromPixel@cSprite@AGK@@QAEMH@Z 005cf7e0 f   AGKWindows:cSprite.obj
 0002:000bb850       ?GetYFromPixel@cSprite@AGK@@QAEMH@Z 005cf850 f   AGKWindows:cSprite.obj
 0002:000bb8c0       ?GetPixelFromX@cSprite@AGK@@QAEHM@Z 005cf8c0 f   AGKWindows:cSprite.obj
 0002:000bb930       ?GetPixelFromY@cSprite@AGK@@QAEHM@Z 005cf930 f   AGKWindows:cSprite.obj
 0002:000bb9a0       ?SetScale@cSprite@AGK@@QAEXMM@Z 005cf9a0 f   AGKWindows:cSprite.obj
 0002:000bba10       ?SetScaleByOffset@cSprite@AGK@@QAEXMM@Z 005cfa10 f   AGKWindows:cSprite.obj
 0002:000bbd10       ?SetID@cSprite@AGK@@QAEXI@Z 005cfd10 f   AGKWindows:cSprite.obj
 0002:000bbd30       ?SetVisible@cSprite@AGK@@QAEX_N@Z 005cfd30 f   AGKWindows:cSprite.obj
 0002:000bbd70       ?SetActive@cSprite@AGK@@QAEX_N@Z 005cfd70 f   AGKWindows:cSprite.obj
 0002:000bbdb0       ?SetColor@cSprite@AGK@@QAEXIIII@Z 005cfdb0 f   AGKWindows:cSprite.obj
 0002:000bbe20       ?SetRed@cSprite@AGK@@QAEXI@Z 005cfe20 f   AGKWindows:cSprite.obj
 0002:000bbe70       ?SetGreen@cSprite@AGK@@QAEXI@Z 005cfe70 f   AGKWindows:cSprite.obj
 0002:000bbec0       ?SetBlue@cSprite@AGK@@QAEXI@Z 005cfec0 f   AGKWindows:cSprite.obj
 0002:000bbf10       ?SetAlpha@cSprite@AGK@@QAEXI@Z 005cff10 f   AGKWindows:cSprite.obj
 0002:000bbf60       ?SetFlip@cSprite@AGK@@QAEXHH@Z 005cff60 f   AGKWindows:cSprite.obj
 0002:000bc3a0       ?SetSnap@cSprite@AGK@@QAEXH@Z 005d03a0 f   AGKWindows:cSprite.obj
 0002:000bc3e0       ?SetPosition@cSprite@AGK@@QAEXMM@Z 005d03e0 f   AGKWindows:cSprite.obj
 0002:000bc510       ?SetPositionByOffset@cSprite@AGK@@QAEXMM@Z 005d0510 f   AGKWindows:cSprite.obj
 0002:000bc630       ?SetX@cSprite@AGK@@QAEXM@Z 005d0630 f   AGKWindows:cSprite.obj
 0002:000bc750       ?SetY@cSprite@AGK@@QAEXM@Z 005d0750 f   AGKWindows:cSprite.obj
 0002:000bc870       ?SetZ@cSprite@AGK@@QAEXM@Z 005d0870 f   AGKWindows:cSprite.obj
 0002:000bc8a0       ?SetZShift@cSprite@AGK@@QAEXM@Z 005d08a0 f   AGKWindows:cSprite.obj
 0002:000bc930       ?SetAngle@cSprite@AGK@@QAEXM@Z 005d0930 f   AGKWindows:cSprite.obj
 0002:000bca20       ?SetAngleRad@cSprite@AGK@@QAEXM@Z 005d0a20 f   AGKWindows:cSprite.obj
 0002:000bcb00       ?SetDepth@cSprite@AGK@@QAEXH@Z 005d0b00 f   AGKWindows:cSprite.obj
 0002:000bcb60       ?SetSize@cSprite@AGK@@QAEXMM_N@Z 005d0b60 f   AGKWindows:cSprite.obj
 0002:000bcf20       ?SetImage@cSprite@AGK@@QAEXABVuString@2@_N@Z 005d0f20 f   AGKWindows:cSprite.obj
 0002:000bd0b0       ?SetImage@cSprite@AGK@@QAEXPAVcImage@2@_N@Z 005d10b0 f   AGKWindows:cSprite.obj
 0002:000bd220       ?SetUserData@cSprite@AGK@@QAEXPAX@Z 005d1220 f   AGKWindows:cSprite.obj
 0002:000bd240       ?GetUserData@cSprite@AGK@@QAEPAXXZ 005d1240 f   AGKWindows:cSprite.obj
 0002:000bd260       ?SetAnimation@cSprite@AGK@@QAEXHHH@Z 005d1260 f   AGKWindows:cSprite.obj
 0002:000bd6d0       ?AppendAnimation@cSprite@AGK@@QAEXPAVcImage@2@HHH@Z 005d16d0 f   AGKWindows:cSprite.obj
 0002:000bda10       ?AddAnimationFrame@cSprite@AGK@@QAEXPAVcImage@2@@Z 005d1a10 f   AGKWindows:cSprite.obj
 0002:000bdd80       ?SetFrame@cSprite@AGK@@QAEXH@Z 005d1d80 f   AGKWindows:cSprite.obj
 0002:000be0d0       ?ClearAnimationFrames@cSprite@AGK@@QAEXXZ 005d20d0 f   AGKWindows:cSprite.obj
 0002:000be170       ?SetSpeed@cSprite@AGK@@QAEXM@Z 005d2170 f   AGKWindows:cSprite.obj
 0002:000be1e0       ?Play@cSprite@AGK@@QAEXM_NHH@Z 005d21e0 f   AGKWindows:cSprite.obj
 0002:000be380       ?Stop@cSprite@AGK@@QAEXXZ  005d2380 f   AGKWindows:cSprite.obj
 0002:000be3b0       ?Resume@cSprite@AGK@@QAEXXZ 005d23b0 f   AGKWindows:cSprite.obj
 0002:000be3e0       ?SetTransparency@cSprite@AGK@@QAEXH@Z 005d23e0 f   AGKWindows:cSprite.obj
 0002:000be4e0       ?SetOffset@cSprite@AGK@@QAEXMM@Z 005d24e0 f   AGKWindows:cSprite.obj
 0002:000be5e0       ?SetUVBorder@cSprite@AGK@@QAEXM@Z 005d25e0 f   AGKWindows:cSprite.obj
 0002:000be620       ?SetUVOffset@cSprite@AGK@@QAEXMM@Z 005d2620 f   AGKWindows:cSprite.obj
 0002:000be650       ?SetUVScale@cSprite@AGK@@QAEXMM@Z 005d2650 f   AGKWindows:cSprite.obj
 0002:000be6b0       ?FixToScreen@cSprite@AGK@@QAEXH@Z 005d26b0 f   AGKWindows:cSprite.obj
 0002:000be6f0       ?SetScissor@cSprite@AGK@@QAEXMMMM@Z 005d26f0 f   AGKWindows:cSprite.obj
 0002:000be7d0       ?GetClipValues@cSprite@AGK@@QAEXAAH000@Z 005d27d0 f   AGKWindows:cSprite.obj
 0002:000be930       ?GetGroup@cSprite@AGK@@QAEHXZ 005d2930 f   AGKWindows:cSprite.obj
 0002:000be950       ?SetUV@cSprite@AGK@@QAEXMMMMMMMM@Z 005d2950 f   AGKWindows:cSprite.obj
 0002:000be9d0       ?ResetUV@cSprite@AGK@@QAEXXZ 005d29d0 f   AGKWindows:cSprite.obj
 0002:000be9f0       ?CheckImages@cSprite@AGK@@QAEXXZ 005d29f0 f   AGKWindows:cSprite.obj
 0002:000bea60       ?Draw@cSprite@AGK@@QAEXXZ  005d2a60 f   AGKWindows:cSprite.obj
 0002:000bf4d0       ?BatchDraw@cSprite@AGK@@QAEXPAM0PAE@Z 005d34d0 f   AGKWindows:cSprite.obj
 0002:000c0090       ?BatchDrawQuad@cSprite@AGK@@QAEXPAM0PAE@Z 005d4090 f   AGKWindows:cSprite.obj
 0002:000c0b30       ?Update@cSprite@AGK@@QAEXM@Z 005d4b30 f   AGKWindows:cSprite.obj
 0002:000c0b80       ?UpdateAnimation@cSprite@AGK@@QAEXM@Z 005d4b80 f   AGKWindows:cSprite.obj
 0002:000c0ea0       ?ReplacePhysicsShape@cSprite@AGK@@IAEXXZ 005d4ea0 f   AGKWindows:cSprite.obj
 0002:000c1050       ?CalculatePhysicsCOM@cSprite@AGK@@QAEXXZ 005d5050 f   AGKWindows:cSprite.obj
 0002:000c1090       ?SetPhysicsCOM@cSprite@AGK@@QAEXMM@Z 005d5090 f   AGKWindows:cSprite.obj
 0002:000c1180       ?InBox@cSprite@AGK@@QAE_NMMMM@Z 005d5180 f   AGKWindows:cSprite.obj
 0002:000c1a20       ?InCircle@cSprite@AGK@@QAE_NMMM@Z 005d5a20 f   AGKWindows:cSprite.obj
 0002:000c2260       ?GetCollision@cSprite@AGK@@QAE_NPAV12@@Z 005d6260 f   AGKWindows:cSprite.obj
 0002:000c2ab0       ?GetDistance@cSprite@AGK@@QAEMPAV12@@Z 005d6ab0 f   AGKWindows:cSprite.obj
 0002:000c2c60       ?GetDistancePoint1X@cSprite@AGK@@QAEMXZ 005d6c60 f   AGKWindows:cSprite.obj
 0002:000c2ca0       ?GetDistancePoint1Y@cSprite@AGK@@QAEMXZ 005d6ca0 f   AGKWindows:cSprite.obj
 0002:000c2ce0       ?GetDistancePoint2X@cSprite@AGK@@QAEMXZ 005d6ce0 f   AGKWindows:cSprite.obj
 0002:000c2d20       ?GetDistancePoint2Y@cSprite@AGK@@QAEMXZ 005d6d20 f   AGKWindows:cSprite.obj
 0002:000c2d60       ?GetPhysicsCollision@cSprite@AGK@@QAE_NPAV12@@Z 005d6d60 f   AGKWindows:cSprite.obj
 0002:000c2e20       ?GetPhysicsCollisionX@cSprite@AGK@@QAEMXZ 005d6e20 f   AGKWindows:cSprite.obj
 0002:000c2e70       ?GetPhysicsCollisionY@cSprite@AGK@@QAEMXZ 005d6e70 f   AGKWindows:cSprite.obj
 0002:000c2ec0       ?GetPhysicsCollisionWorldX@cSprite@AGK@@QAEMXZ 005d6ec0 f   AGKWindows:cSprite.obj
 0002:000c2f30       ?GetPhysicsCollisionWorldY@cSprite@AGK@@QAEMXZ 005d6f30 f   AGKWindows:cSprite.obj
 0002:000c2fa0       ?SetShape@cSprite@AGK@@QAEXW4ePhysicsShape@12@@Z 005d6fa0 f   AGKWindows:cSprite.obj
 0002:000c39c0       ?SetShapeBox@cSprite@AGK@@QAEXMMMMM@Z 005d79c0 f   AGKWindows:cSprite.obj
 0002:000c3bd0       ?SetShapeCircle@cSprite@AGK@@QAEXMMM@Z 005d7bd0 f   AGKWindows:cSprite.obj
 0002:000c3d30       ?SetShapePolygon@cSprite@AGK@@QAEXIPAM@Z 005d7d30 f   AGKWindows:cSprite.obj
 0002:000c3f80       ?SetShapePolygon@cSprite@AGK@@QAEXIIMM@Z 005d7f80 f   AGKWindows:cSprite.obj
 0002:000c41b0       ?AddShapeBox@cSprite@AGK@@QAEXMMMMM@Z 005d81b0 f   AGKWindows:cSprite.obj
 0002:000c4520       ?AddShapeCircle@cSprite@AGK@@QAEXMMM@Z 005d8520 f   AGKWindows:cSprite.obj
 0002:000c4750       ?AddShapePolygon@cSprite@AGK@@QAEXIPAM@Z 005d8750 f   AGKWindows:cSprite.obj
 0002:000c4b20       ?AddShapePolygon@cSprite@AGK@@QAEXIIMM@Z 005d8b20 f   AGKWindows:cSprite.obj
 0002:000c4d50       ?ClearShapes@cSprite@AGK@@QAEXXZ 005d8d50 f   AGKWindows:cSprite.obj
 0002:000c4ef0       ?SetPhysicsOn@cSprite@AGK@@QAEXW4ePhysicsMode@12@@Z 005d8ef0 f   AGKWindows:cSprite.obj
 0002:000c51e0       ?SetPhysicsOff@cSprite@AGK@@QAEXXZ 005d91e0 f   AGKWindows:cSprite.obj
 0002:000c5220       ?SetPhysicsDelete@cSprite@AGK@@QAEXXZ 005d9220 f   AGKWindows:cSprite.obj
 0002:000c52d0       ?SetPhysicsFriction@cSprite@AGK@@QAEXM@Z 005d92d0 f   AGKWindows:cSprite.obj
 0002:000c5370       ?SetPhysicsRestitution@cSprite@AGK@@QAEXM@Z 005d9370 f   AGKWindows:cSprite.obj
 0002:000c53e0       ?SetPhysicsCanRotate@cSprite@AGK@@QAEX_N@Z 005d93e0 f   AGKWindows:cSprite.obj
 0002:000c5430       ?SetPhysicsVelocity@cSprite@AGK@@QAEXMM@Z 005d9430 f   AGKWindows:cSprite.obj
 0002:000c54b0       ?SetPhysicsAngularVelocity@cSprite@AGK@@QAEXM@Z 005d94b0 f   AGKWindows:cSprite.obj
 0002:000c5500       ?SetPhysicsDamping@cSprite@AGK@@QAEXM@Z 005d9500 f   AGKWindows:cSprite.obj
 0002:000c5550       ?SetPhysicsAngularDamping@cSprite@AGK@@QAEXM@Z 005d9550 f   AGKWindows:cSprite.obj
 0002:000c55a0       ?SetPhysicsIsBullet@cSprite@AGK@@QAEX_N@Z 005d95a0 f   AGKWindows:cSprite.obj
 0002:000c55e0       ?SetPhysicsMass@cSprite@AGK@@QAEXM@Z 005d95e0 f   AGKWindows:cSprite.obj
 0002:000c56a0       ?SetPhysicsIsSensor@cSprite@AGK@@QAEX_N@Z 005d96a0 f   AGKWindows:cSprite.obj
 0002:000c5740       ?GetPhysicsVelocityX@cSprite@AGK@@QAEMXZ 005d9740 f   AGKWindows:cSprite.obj
 0002:000c57a0       ?GetPhysicsVelocityY@cSprite@AGK@@QAEMXZ 005d97a0 f   AGKWindows:cSprite.obj
 0002:000c5800       ?GetPhysicsAngularVelocity@cSprite@AGK@@QAEMXZ 005d9800 f   AGKWindows:cSprite.obj
 0002:000c5840       ?GetPhysicsMass@cSprite@AGK@@QAEMXZ 005d9840 f   AGKWindows:cSprite.obj
 0002:000c58f0       ?SetGroup@cSprite@AGK@@QAEXH@Z 005d98f0 f   AGKWindows:cSprite.obj
 0002:000c5a00       ?SetCategoryBits@cSprite@AGK@@QAEXI@Z 005d9a00 f   AGKWindows:cSprite.obj
 0002:000c5af0       ?SetCategoryBit@cSprite@AGK@@QAEXIH@Z 005d9af0 f   AGKWindows:cSprite.obj
 0002:000c5c40       ?SetCollideBits@cSprite@AGK@@QAEXI@Z 005d9c40 f   AGKWindows:cSprite.obj
 0002:000c5d30       ?SetCollideBit@cSprite@AGK@@QAEXIH@Z 005d9d30 f   AGKWindows:cSprite.obj
 0002:000c5e80       ?SetPhysicsForce@cSprite@AGK@@QAEXMMMM@Z 005d9e80 f   AGKWindows:cSprite.obj
 0002:000c5f50       ?SetPhysicsTorque@cSprite@AGK@@QAEXM@Z 005d9f50 f   AGKWindows:cSprite.obj
 0002:000c5fa0       ?SetPhysicsLinearImpulse@cSprite@AGK@@QAEXMMMM@Z 005d9fa0 f   AGKWindows:cSprite.obj
 0002:000c6070       ?SetPhysicsAngularImpulse@cSprite@AGK@@QAEXM@Z 005da070 f   AGKWindows:cSprite.obj
 0002:000c60c0       ?GetFirstContact@cSprite@AGK@@QAEHXZ 005da0c0 f   AGKWindows:cSprite.obj
 0002:000c6150       ?GetNextContact@cSprite@AGK@@QAEHXZ 005da150 f   AGKWindows:cSprite.obj
 0002:000c61e0       ?GetContactWorldX@cSprite@AGK@@QAEMXZ 005da1e0 f   AGKWindows:cSprite.obj
 0002:000c6260       ?GetContactWorldY@cSprite@AGK@@QAEMXZ 005da260 f   AGKWindows:cSprite.obj
 0002:000c62e0       ?GetContactSprite2@cSprite@AGK@@QAEPAV12@XZ 005da2e0 f   AGKWindows:cSprite.obj
 0002:000c6370       ?UpdatePhysics@cSprite@AGK@@QAEXXZ 005da370 f   AGKWindows:cSprite.obj
 0002:000c9670       ??0b2DistanceOutput@@QAE@XZ 005dd670 f i AGKWindows:cSprite.obj
 0002:000c96b0       ??0cSpriteFrame@AGK@@QAE@XZ 005dd6b0 f i AGKWindows:cSprite.obj
 0002:000c96f0       ??1cSpriteFrame@AGK@@QAE@XZ 005dd6f0 f i AGKWindows:cSprite.obj
 0002:000c9710       ??0b2CircleShape@@QAE@XZ   005dd710 f i AGKWindows:cSprite.obj
 0002:000c97d0       ??_Gb2CircleShape@@UAEPAXI@Z 005dd7d0 f i AGKWindows:cSprite.obj
 0002:000c97d0       ??_Eb2CircleShape@@UAEPAXI@Z 005dd7d0 f i AGKWindows:cSprite.obj
 0002:000c9820       ??1b2CircleShape@@UAE@XZ   005dd820 f i AGKWindows:cSprite.obj
 0002:000c9850       ??_EcSpriteFrame@AGK@@QAEPAXI@Z 005dd850 f i AGKWindows:cSprite.obj
 0002:000c98f0       ??4b2CircleShape@@QAEAAV0@ABV0@@Z 005dd8f0 f i AGKWindows:cSprite.obj
 0002:000c9940       ??4b2PolygonShape@@QAEAAV0@ABV0@@Z 005dd940 f i AGKWindows:cSprite.obj
 0002:000c9a50       ??4b2Shape@@QAEAAV0@ABV0@@Z 005dda50 f i AGKWindows:cSprite.obj
 0002:000c9a90       ?GetShape@b2Fixture@@QBEPBVb2Shape@@XZ 005dda90 f i AGKWindows:cSprite.obj
 0002:000c9ab0       ?GetNext@b2Fixture@@QBEPBV1@XZ 005ddab0 f i AGKWindows:cSprite.obj
 0002:000c9ad0       ??0b2FixtureDef@@QAE@XZ    005ddad0 f i AGKWindows:cSprite.obj
 0002:000c9b60       ?GetFilterData@b2Fixture@@QBEABUb2Filter@@XZ 005ddb60 f i AGKWindows:cSprite.obj
 0002:000c9b80       ?GetUserData@b2Fixture@@QBEPAXXZ 005ddb80 f i AGKWindows:cSprite.obj
 0002:000c9ba0       ?GetDensity@b2Fixture@@QBEMXZ 005ddba0 f i AGKWindows:cSprite.obj
 0002:000c9bc0       ?GetFriction@b2Fixture@@QBEMXZ 005ddbc0 f i AGKWindows:cSprite.obj
 0002:000c9be0       ?GetRestitution@b2Fixture@@QBEMXZ 005ddbe0 f i AGKWindows:cSprite.obj
 0002:000c9c00       ?GetMass@b2Body@@QBEMXZ    005ddc00 f i AGKWindows:cSprite.obj
 0002:000c9c20       ?GetInertia@b2Body@@QBEMXZ 005ddc20 f i AGKWindows:cSprite.obj
 0002:000c9c80       ??0b2MassData@@QAE@XZ      005ddc80 f i AGKWindows:cSprite.obj
 0002:000c9cc0       ?SetIdentity@b2Transform@@QAEXXZ 005ddcc0 f i AGKWindows:cSprite.obj
 0002:000c9d00       ?SetIdentity@b2Rot@@QAEXXZ 005ddd00 f i AGKWindows:cSprite.obj
 0002:000c9d30       ?b2DistanceSquared@@YAMABUb2Vec2@@0@Z 005ddd30 f i AGKWindows:cSprite.obj
 0002:000c9dc0       ?b2MulT@@YA?AUb2Vec2@@ABUb2Transform@@ABU1@@Z 005dddc0 f i AGKWindows:cSprite.obj
 0002:000c9e70       ??0b2Manifold@@QAE@XZ      005dde70 f i AGKWindows:cSprite.obj
 0002:000c9ed0       ??0b2ManifoldPoint@@QAE@XZ 005dded0 f i AGKWindows:cSprite.obj
 0002:000c9f00       ??0b2DistanceInput@@QAE@XZ 005ddf00 f i AGKWindows:cSprite.obj
 0002:000c9f60       ?SetFriction@b2Fixture@@QAEXM@Z 005ddf60 f i AGKWindows:cSprite.obj
 0002:000c9f90       ?ResetFriction@b2Contact@@QAEXXZ 005ddf90 f i AGKWindows:cSprite.obj
 0002:000c9ff0       ?b2MixFriction@@YAMMM@Z    005ddff0 f i AGKWindows:cSprite.obj
 0002:000ca030       ?SetRestitution@b2Fixture@@QAEXM@Z 005de030 f i AGKWindows:cSprite.obj
 0002:000ca060       ?SetFixedRotation@b2Body@@QAEX_N@Z 005de060 f i AGKWindows:cSprite.obj
 0002:000ca0d0       ?SetLinearVelocity@b2Body@@QAEXABUb2Vec2@@@Z 005de0d0 f i AGKWindows:cSprite.obj
 0002:000ca150       ?SetAngularVelocity@b2Body@@QAEXM@Z 005de150 f i AGKWindows:cSprite.obj
 0002:000ca1c0       ?SetLinearDamping@b2Body@@QAEXM@Z 005de1c0 f i AGKWindows:cSprite.obj
 0002:000ca1f0       ?SetAngularDamping@b2Body@@QAEXM@Z 005de1f0 f i AGKWindows:cSprite.obj
 0002:000ca220       ?SetBullet@b2Body@@QAEX_N@Z 005de220 f i AGKWindows:cSprite.obj
 0002:000ca270       ?GetMassData@b2Body@@QBEXPAUb2MassData@@@Z 005de270 f i AGKWindows:cSprite.obj
 0002:000ca2f0       ?GetLinearVelocity@b2Body@@QBE?AUb2Vec2@@XZ 005de2f0 f i AGKWindows:cSprite.obj
 0002:000ca330       ?GetAngularVelocity@b2Body@@QBEMXZ 005de330 f i AGKWindows:cSprite.obj
 0002:000ca350       ?ApplyTorque@b2Body@@QAEXM@Z 005de350 f i AGKWindows:cSprite.obj
 0002:000ca3c0       ?ApplyLinearImpulse@b2Body@@QAEXABUb2Vec2@@0@Z 005de3c0 f i AGKWindows:cSprite.obj
 0002:000ca4a0       ?ApplyAngularImpulse@b2Body@@QAEXM@Z 005de4a0 f i AGKWindows:cSprite.obj
 0002:000ca510       ?GetAngle@b2Body@@QBEMXZ   005de510 f i AGKWindows:cSprite.obj
 0002:000ca540       ?GetAngle@b2Rot@@QBEMXZ    005de540 f i AGKWindows:cSprite.obj
 0002:000ca590       ?atan2@@YAMMM@Z            005de590 f i AGKWindows:cSprite.obj
 0002:000ca5c0       _atan2f                    005de5c0 f i AGKWindows:cSprite.obj
 0002:000ca610       ?SetDefaultMinFilter@cText@AGK@@SAXI@Z 005de610 f   AGKWindows:cText.obj
 0002:000ca640       ?SetDefaultMagFilter@cText@AGK@@SAXI@Z 005de640 f   AGKWindows:cText.obj
 0002:000ca670       ?SetDefaultFontImage@cText@AGK@@SAXPAVcImage@2@@Z 005de670 f   AGKWindows:cText.obj
 0002:000ca940       ?SetDefaultExtendedFontImage@cText@AGK@@SAXPAVcImage@2@@Z 005de940 f   AGKWindows:cText.obj
 0002:000cac10       ??0cText@AGK@@QAE@H@Z      005dec10 f   AGKWindows:cText.obj
 0002:000cb6e0       ??1cText@AGK@@QAE@XZ       005df6e0 f   AGKWindows:cText.obj
 0002:000cb960       ?SetSpriteManager@cText@AGK@@QAEXPAVcSpriteMgr@2@@Z 005df960 f   AGKWindows:cText.obj
 0002:000cb9d0       ?UpdateManager@cText@AGK@@IAEXXZ 005df9d0 f   AGKWindows:cText.obj
 0002:000cba50       ?SetString@cText@AGK@@QAEXPBD@Z 005dfa50 f   AGKWindows:cText.obj
 0002:000cc350       ?InternalRefresh@cText@AGK@@IAEXXZ 005e0350 f   AGKWindows:cText.obj
 0002:000cc820       ?Refresh@cText@AGK@@QAEXXZ 005e0820 f   AGKWindows:cText.obj
 0002:000cc860       ?SetPosition@cText@AGK@@QAEXMM@Z 005e0860 f   AGKWindows:cText.obj
 0002:000cdb70       ?SetX@cText@AGK@@QAEXM@Z   005e1b70 f   AGKWindows:cText.obj
 0002:000cdbc0       ?SetY@cText@AGK@@QAEXM@Z   005e1bc0 f   AGKWindows:cText.obj
 0002:000cdc10       ?SetAngle@cText@AGK@@QAEXM@Z 005e1c10 f   AGKWindows:cText.obj
 0002:000cdc60       ?SetAngleRad@cText@AGK@@QAEXM@Z 005e1c60 f   AGKWindows:cText.obj
 0002:000cdcb0       ?ChangedAspect@cText@AGK@@QAEXXZ 005e1cb0 f   AGKWindows:cText.obj
 0002:000cdce0       ?SetSize@cText@AGK@@QAEXM@Z 005e1ce0 f   AGKWindows:cText.obj
 0002:000cdd90       ?SetMaxWidth@cText@AGK@@QAEXM@Z 005e1d90 f   AGKWindows:cText.obj
 0002:000cddf0       ?SetSpacing@cText@AGK@@QAEXM@Z 005e1df0 f   AGKWindows:cText.obj
 0002:000cde40       ?SetLineSpacing@cText@AGK@@QAEXM@Z 005e1e40 f   AGKWindows:cText.obj
 0002:000cde90       ?SetAlignment@cText@AGK@@QAEXH@Z 005e1e90 f   AGKWindows:cText.obj
 0002:000cdef0       ?SetDepth@cText@AGK@@QAEXH@Z 005e1ef0 f   AGKWindows:cText.obj
 0002:000cdf70       ?SetVisible@cText@AGK@@QAEX_N@Z 005e1f70 f   AGKWindows:cText.obj
 0002:000cdfe0       ?SetColor@cText@AGK@@QAEXIIII@Z 005e1fe0 f   AGKWindows:cText.obj
 0002:000ce0c0       ?SetRed@cText@AGK@@QAEXI@Z 005e20c0 f   AGKWindows:cText.obj
 0002:000ce140       ?SetGreen@cText@AGK@@QAEXI@Z 005e2140 f   AGKWindows:cText.obj
 0002:000ce1c0       ?SetBlue@cText@AGK@@QAEXI@Z 005e21c0 f   AGKWindows:cText.obj
 0002:000ce240       ?SetAlpha@cText@AGK@@QAEXI@Z 005e2240 f   AGKWindows:cText.obj
 0002:000ce2c0       ?SetTransparency@cText@AGK@@QAEXH@Z 005e22c0 f   AGKWindows:cText.obj
 0002:000ce320       ?SetFontImage@cText@AGK@@QAEXPAVcImage@2@@Z 005e2320 f   AGKWindows:cText.obj
 0002:000ce5c0       ?SetExtendedFontImage@cText@AGK@@QAEXPAVcImage@2@@Z 005e25c0 f   AGKWindows:cText.obj
 0002:000ce850       ?SetCharPosition@cText@AGK@@QAEXIMM@Z 005e2850 f   AGKWindows:cText.obj
 0002:000ce8d0       ?SetCharX@cText@AGK@@QAEXIM@Z 005e28d0 f   AGKWindows:cText.obj
 0002:000ce930       ?SetCharY@cText@AGK@@QAEXIM@Z 005e2930 f   AGKWindows:cText.obj
 0002:000ce990       ?SetCharAngle@cText@AGK@@QAEXIM@Z 005e2990 f   AGKWindows:cText.obj
 0002:000ce9e0       ?SetCharAngleRad@cText@AGK@@QAEXIM@Z 005e29e0 f   AGKWindows:cText.obj
 0002:000cea30       ?SetCharColor@cText@AGK@@QAEXIIIII@Z 005e2a30 f   AGKWindows:cText.obj
 0002:000cea80       ?SetCharRed@cText@AGK@@QAEXII@Z 005e2a80 f   AGKWindows:cText.obj
 0002:000ceac0       ?SetCharGreen@cText@AGK@@QAEXII@Z 005e2ac0 f   AGKWindows:cText.obj
 0002:000ceb00       ?SetCharBlue@cText@AGK@@QAEXII@Z 005e2b00 f   AGKWindows:cText.obj
 0002:000ceb40       ?SetCharAlpha@cText@AGK@@QAEXII@Z 005e2b40 f   AGKWindows:cText.obj
 0002:000ceb80       ?GetCharX@cText@AGK@@QAEMI@Z 005e2b80 f   AGKWindows:cText.obj
 0002:000cebe0       ?GetCharY@cText@AGK@@QAEMI@Z 005e2be0 f   AGKWindows:cText.obj
 0002:000cec40       ?GetCharWidthA@cText@AGK@@QAEMI@Z 005e2c40 f   AGKWindows:cText.obj
 0002:000cec80       ?GetCharAngle@cText@AGK@@QAEMI@Z 005e2c80 f   AGKWindows:cText.obj
 0002:000cecc0       ?GetCharAngleRad@cText@AGK@@QAEMI@Z 005e2cc0 f   AGKWindows:cText.obj
 0002:000ced00       ?GetCharRed@cText@AGK@@QAEII@Z 005e2d00 f   AGKWindows:cText.obj
 0002:000ced40       ?GetCharGreen@cText@AGK@@QAEII@Z 005e2d40 f   AGKWindows:cText.obj
 0002:000ced80       ?GetCharBlue@cText@AGK@@QAEII@Z 005e2d80 f   AGKWindows:cText.obj
 0002:000cedc0       ?GetCharAlpha@cText@AGK@@QAEII@Z 005e2dc0 f   AGKWindows:cText.obj
 0002:000cee00       ?GetChar@cText@AGK@@QAEEI@Z 005e2e00 f   AGKWindows:cText.obj
 0002:000cee40       ?FixToScreen@cText@AGK@@QAEXH@Z 005e2e40 f   AGKWindows:cText.obj
 0002:000ceeb0       ?GetX@cText@AGK@@QAEMXZ    005e2eb0 f   AGKWindows:cText.obj
 0002:000ceed0       ?GetY@cText@AGK@@QAEMXZ    005e2ed0 f   AGKWindows:cText.obj
 0002:000ceef0       ?GetAngle@cText@AGK@@QAEMXZ 005e2ef0 f   AGKWindows:cText.obj
 0002:000cef30       ?GetAngleRad@cText@AGK@@QAEMXZ 005e2f30 f   AGKWindows:cText.obj
 0002:000cef50       ?GetLength@cText@AGK@@QAEIXZ 005e2f50 f   AGKWindows:cText.obj
 0002:000cef80       ?GetHitTest@cText@AGK@@QAE_NMM@Z 005e2f80 f   AGKWindows:cText.obj
 0002:000cf1a0       ?SetScissor@cText@AGK@@QAEXMMMM@Z 005e31a0 f   AGKWindows:cText.obj
 0002:000cf280       ?GetClipValues@cText@AGK@@QAEXAAH000@Z 005e3280 f   AGKWindows:cText.obj
 0002:000cf3d0       ?Update@cText@AGK@@QAEXM@Z 005e33d0 f   AGKWindows:cText.obj
 0002:000cf430       ?Draw@cText@AGK@@QAEXXZ    005e3430 f   AGKWindows:cText.obj
 0002:000d0960       ??0cForce@AGK@@QAE@XZ      005e4960 f   AGKWindows:cForce.obj
 0002:000d09b0       ??0cForce@AGK@@QAE@MMMMM_N@Z 005e49b0 f   AGKWindows:cForce.obj
 0002:000d0a00       ??1cForce@AGK@@QAE@XZ      005e4a00 f   AGKWindows:cForce.obj
 0002:000d0a40       ??0UDPManager@AGK@@QAE@I@Z 005e4a40 f   AGKWindows:WindowsNetwork.obj
 0002:000d0bc0       ??1UDPManager@AGK@@QAE@XZ  005e4bc0 f   AGKWindows:WindowsNetwork.obj
 0002:000d0c00       ?SendPacket@UDPManager@AGK@@QAE_NPBDPBVAGKPacket@2@@Z 005e4c00 f   AGKWindows:WindowsNetwork.obj
 0002:000d0d50       ?RecvPacket@UDPManager@AGK@@QAE_NPADPAVAGKPacket@2@@Z 005e4d50 f   AGKWindows:WindowsNetwork.obj
 0002:000d0f60       ?Run@AGKSocket@AGK@@MAEIXZ 005e4f60 f   AGKWindows:WindowsNetwork.obj
 0002:000d0fd0       ?Reset@AGKSocket@AGK@@IAEXXZ 005e4fd0 f   AGKWindows:WindowsNetwork.obj
 0002:000d1060       ??0AGKSocket@AGK@@QAE@XZ   005e5060 f   AGKWindows:WindowsNetwork.obj
 0002:000d10d0       ??0AGKSocket@AGK@@QAE@I@Z  005e50d0 f   AGKWindows:WindowsNetwork.obj
 0002:000d11f0       ??1AGKSocket@AGK@@UAE@XZ   005e51f0 f   AGKWindows:WindowsNetwork.obj
 0002:000d1270       ?Close@AGKSocket@AGK@@QAEX_N@Z 005e5270 f   AGKWindows:WindowsNetwork.obj
 0002:000d1370       ?Connect@AGKSocket@AGK@@QAE_NPBDII@Z 005e5370 f   AGKWindows:WindowsNetwork.obj
 0002:000d16e0       ?SetTimeout@AGKSocket@AGK@@QAEXH@Z 005e56e0 f   AGKWindows:WindowsNetwork.obj
 0002:000d1700       ?SendFile@AGKSocket@AGK@@QAE_NPBD@Z 005e5700 f   AGKWindows:WindowsNetwork.obj
 0002:000d1b10       ?SendData@AGKSocket@AGK@@QAE_NPBDH@Z 005e5b10 f   AGKWindows:WindowsNetwork.obj
 0002:000d1d60       ?SendString@AGKSocket@AGK@@QAE_NPBD@Z 005e5d60 f   AGKWindows:WindowsNetwork.obj
 0002:000d1e60       ?SendChar@AGKSocket@AGK@@QAE_ND@Z 005e5e60 f   AGKWindows:WindowsNetwork.obj
 0002:000d1f90       ?SendUInt@AGKSocket@AGK@@QAE_NI@Z 005e5f90 f   AGKWindows:WindowsNetwork.obj
 0002:000d20d0       ?SendInt@AGKSocket@AGK@@QAE_NH@Z 005e60d0 f   AGKWindows:WindowsNetwork.obj
 0002:000d2210       ?SendFloat@AGKSocket@AGK@@QAE_NM@Z 005e6210 f   AGKWindows:WindowsNetwork.obj
 0002:000d2350       ?Flush@AGKSocket@AGK@@QAE_NXZ 005e6350 f   AGKWindows:WindowsNetwork.obj
 0002:000d2450       ?GetBytes@AGKSocket@AGK@@QAEHXZ 005e6450 f   AGKWindows:WindowsNetwork.obj
 0002:000d2590       ?RecvData@AGKSocket@AGK@@QAEHPADH@Z 005e6590 f   AGKWindows:WindowsNetwork.obj
 0002:000d26e0       ?RecvString@AGKSocket@AGK@@QAEHAAVuString@2@@Z 005e66e0 f   AGKWindows:WindowsNetwork.obj
 0002:000d2870       ?RecvChar@AGKSocket@AGK@@QAEDXZ 005e6870 f   AGKWindows:WindowsNetwork.obj
 0002:000d2980       ?RecvInt@AGKSocket@AGK@@QAEHXZ 005e6980 f   AGKWindows:WindowsNetwork.obj
 0002:000d2aa0       ?RecvUInt@AGKSocket@AGK@@QAEIXZ 005e6aa0 f   AGKWindows:WindowsNetwork.obj
 0002:000d2bc0       ?RecvFloat@AGKSocket@AGK@@QAEMXZ 005e6bc0 f   AGKWindows:WindowsNetwork.obj
 0002:000d2cd0       ?Run@cNetworkListener@AGK@@MAEIXZ 005e6cd0 f   AGKWindows:WindowsNetwork.obj
 0002:000d2ec0       ??0cNetworkListener@AGK@@QAE@XZ 005e6ec0 f   AGKWindows:WindowsNetwork.obj
 0002:000d2f50       ??1cNetworkListener@AGK@@UAE@XZ 005e6f50 f   AGKWindows:WindowsNetwork.obj
 0002:000d2fe0       ?Stop@cNetworkListener@AGK@@UAEXXZ 005e6fe0 f   AGKWindows:WindowsNetwork.obj
 0002:000d3040       ?GetNewConnection@cNetworkListener@AGK@@QAEPAVAGKSocket@2@XZ 005e7040 f   AGKWindows:WindowsNetwork.obj
 0002:000d30f0       ?AcceptConnections@cNetworkListener@AGK@@QAEXI@Z 005e70f0 f   AGKWindows:WindowsNetwork.obj
 0002:000d3330       ??0BroadcastListener@AGK@@QAE@XZ 005e7330 f   AGKWindows:WindowsNetwork.obj
 0002:000d3350       ??1BroadcastListener@AGK@@QAE@XZ 005e7350 f   AGKWindows:WindowsNetwork.obj
 0002:000d3390       ?Close@BroadcastListener@AGK@@QAEXXZ 005e7390 f   AGKWindows:WindowsNetwork.obj
 0002:000d33e0       ?SetListenPort@BroadcastListener@AGK@@QAE_NI@Z 005e73e0 f   AGKWindows:WindowsNetwork.obj
 0002:000d3550       ?ReceivedBroadcast@BroadcastListener@AGK@@QAE_NXZ 005e7550 f   AGKWindows:WindowsNetwork.obj
 0002:000d35e0       ?GetPacket@BroadcastListener@AGK@@QAE_NAAVAGKPacket@2@AAIPAD@Z 005e75e0 f   AGKWindows:WindowsNetwork.obj
 0002:000d3720       ?Run@Broadcaster@AGK@@MAEIXZ 005e7720 f   AGKWindows:WindowsNetwork.obj
 0002:000d3990       ??0Broadcaster@AGK@@QAE@XZ 005e7990 f   AGKWindows:WindowsNetwork.obj
 0002:000d3a20       ?SetData@Broadcaster@AGK@@QAEXIPBVAGKPacket@2@IH@Z 005e7a20 f   AGKWindows:WindowsNetwork.obj
 0002:000d3b10       ??0cHTTPConnection@AGK@@QAE@XZ 005e7b10 f   AGKWindows:WindowsNetwork.obj
 0002:000d3c00       ??1cHTTPConnection@AGK@@UAE@XZ 005e7c00 f   AGKWindows:WindowsNetwork.obj
 0002:000d3ce0       ?Run@cHTTPConnection@AGK@@MAEIXZ 005e7ce0 f   AGKWindows:WindowsNetwork.obj
 0002:000d3d30       ?Stop@cHTTPConnection@AGK@@UAEXXZ 005e7d30 f   AGKWindows:WindowsNetwork.obj
 0002:000d3d80       ?SetHost@cHTTPConnection@AGK@@QAE_NPBDH00@Z 005e7d80 f   AGKWindows:WindowsNetwork.obj
 0002:000d3fe0       ?Close@cHTTPConnection@AGK@@QAEXXZ 005e7fe0 f   AGKWindows:WindowsNetwork.obj
 0002:000d4060       ?SendFileInternal@cHTTPConnection@AGK@@IAEPADXZ 005e8060 f   AGKWindows:WindowsNetwork.obj
 0002:000d5700       ?SendRequestInternal@cHTTPConnection@AGK@@IAEPADXZ 005e9700 f   AGKWindows:WindowsNetwork.obj
 0002:000d61c0       ?SendRequest@cHTTPConnection@AGK@@QAEPADPBD0@Z 005ea1c0 f   AGKWindows:WindowsNetwork.obj
 0002:000d62b0       ?SendRequestASync@cHTTPConnection@AGK@@QAE_NPBD0@Z 005ea2b0 f   AGKWindows:WindowsNetwork.obj
 0002:000d6420       ?SendFile@cHTTPConnection@AGK@@QAE_NPBD00@Z 005ea420 f   AGKWindows:WindowsNetwork.obj
 0002:000d65a0       ?GetResponseReady@cHTTPConnection@AGK@@QAEHXZ 005ea5a0 f   AGKWindows:WindowsNetwork.obj
 0002:000d65d0       ?GetResponse@cHTTPConnection@AGK@@QAEPBDXZ 005ea5d0 f   AGKWindows:WindowsNetwork.obj
 0002:000d65f0       ?GetContentType@cHTTPConnection@AGK@@QAEPBDXZ 005ea5f0 f   AGKWindows:WindowsNetwork.obj
 0002:000d6610       ?DownloadFile@cHTTPConnection@AGK@@QAE_NPBD00@Z 005ea610 f   AGKWindows:WindowsNetwork.obj
 0002:000d6790       ?DownloadComplete@cHTTPConnection@AGK@@QAE_NXZ 005ea790 f   AGKWindows:WindowsNetwork.obj
 0002:000d7f20       ?GetBuffer@AGKPacket@AGK@@QBEPBDXZ 005ebf20 f i AGKWindows:WindowsNetwork.obj
 0002:000d7f40       ?GetRaw@AGKPacket@AGK@@QAEPADXZ 005ebf40 f i AGKWindows:WindowsNetwork.obj
 0002:000d7f60       ?SleepSafe@AGKThread@AGK@@QAEXI@Z 005ebf60 f i AGKWindows:WindowsNetwork.obj
 0002:000d7fa0       ??0AGKThread@AGK@@QAE@XZ   005ebfa0 f i AGKWindows:WindowsNetwork.obj
 0002:000d8020       ??1AGKThread@AGK@@UAE@XZ   005ec020 f i AGKWindows:WindowsNetwork.obj
 0002:000d8070       ?Start@AGKThread@AGK@@UAEXXZ 005ec070 f i AGKWindows:WindowsNetwork.obj
 0002:000d80c0       ?Stop@AGKThread@AGK@@UAEXXZ 005ec0c0 f i AGKWindows:WindowsNetwork.obj
 0002:000d8100       ??_EAGKThread@AGK@@UAEPAXI@Z 005ec100 f i AGKWindows:WindowsNetwork.obj
 0002:000d8100       ??_GAGKThread@AGK@@UAEPAXI@Z 005ec100 f i AGKWindows:WindowsNetwork.obj
 0002:000d8150       ??_GAGKSocket@AGK@@UAEPAXI@Z 005ec150 f i AGKWindows:WindowsNetwork.obj
 0002:000d8150       ??_EAGKSocket@AGK@@UAEPAXI@Z 005ec150 f i AGKWindows:WindowsNetwork.obj
 0002:000d81a0       ?Join@AGKThread@AGK@@QAEXXZ 005ec1a0 f i AGKWindows:WindowsNetwork.obj
 0002:000d81f0       ??_GcNetworkListener@AGK@@UAEPAXI@Z 005ec1f0 f i AGKWindows:WindowsNetwork.obj
 0002:000d81f0       ??_EcNetworkListener@AGK@@UAEPAXI@Z 005ec1f0 f i AGKWindows:WindowsNetwork.obj
 0002:000d8240       ??1cLock@AGK@@QAE@XZ       005ec240 f i AGKWindows:WindowsNetwork.obj
 0002:000d8280       ??_GBroadcaster@AGK@@UAEPAXI@Z 005ec280 f i AGKWindows:WindowsNetwork.obj
 0002:000d8280       ??_EBroadcaster@AGK@@UAEPAXI@Z 005ec280 f i AGKWindows:WindowsNetwork.obj
 0002:000d82d0       ??1Broadcaster@AGK@@UAE@XZ 005ec2d0 f i AGKWindows:WindowsNetwork.obj
 0002:000d8360       ??_GcHTTPConnection@AGK@@UAEPAXI@Z 005ec360 f i AGKWindows:WindowsNetwork.obj
 0002:000d8360       ??_EcHTTPConnection@AGK@@UAEPAXI@Z 005ec360 f i AGKWindows:WindowsNetwork.obj
 0002:000d83b0       ??0cParticle@AGK@@QAE@XZ   005ec3b0 f   AGKWindows:Particles.obj
 0002:000d8400       ??0cParticleEmitter@AGK@@QAE@XZ 005ec400 f   AGKWindows:Particles.obj
 0002:000d8670       ??1cParticleEmitter@AGK@@QAE@XZ 005ec670 f   AGKWindows:Particles.obj
 0002:000d8820       ?UpdateNumParticles@cParticleEmitter@AGK@@IAEXXZ 005ec820 f   AGKWindows:Particles.obj
 0002:000d8a70       ?SetSpriteManager@cParticleEmitter@AGK@@QAEXPAVcSpriteMgr@2@@Z 005eca70 f   AGKWindows:Particles.obj
 0002:000d8af0       ?UpdateManager@cParticleEmitter@AGK@@IAEXXZ 005ecaf0 f   AGKWindows:Particles.obj
 0002:000d8b90       ?FixToScreen@cParticleEmitter@AGK@@QAEX_N@Z 005ecb90 f   AGKWindows:Particles.obj
 0002:000d8bb0       ?SetPosition@cParticleEmitter@AGK@@QAEXMM@Z 005ecbb0 f   AGKWindows:Particles.obj
 0002:000d8be0       ?SetDepth@cParticleEmitter@AGK@@QAEXH@Z 005ecbe0 f   AGKWindows:Particles.obj
 0002:000d8c40       ?SetFrequency@cParticleEmitter@AGK@@QAEXM@Z 005ecc40 f   AGKWindows:Particles.obj
 0002:000d8cb0       ?SetStartZone@cParticleEmitter@AGK@@QAEXMMMM@Z 005eccb0 f   AGKWindows:Particles.obj
 0002:000d8d40       ?SetDirection@cParticleEmitter@AGK@@QAEXMM@Z 005ecd40 f   AGKWindows:Particles.obj
 0002:000d8d70       ?SetVelocityRange@cParticleEmitter@AGK@@QAEXMM@Z 005ecd70 f   AGKWindows:Particles.obj
 0002:000d8e00       ?SetAngle@cParticleEmitter@AGK@@QAEXM@Z 005ece00 f   AGKWindows:Particles.obj
 0002:000d8e60       ?SetAngleRad@cParticleEmitter@AGK@@QAEXM@Z 005ece60 f   AGKWindows:Particles.obj
 0002:000d8eb0       ?SetSize@cParticleEmitter@AGK@@QAEXM@Z 005eceb0 f   AGKWindows:Particles.obj
 0002:000d8ef0       ?SetLife@cParticleEmitter@AGK@@QAEXM@Z 005ecef0 f   AGKWindows:Particles.obj
 0002:000d8f60       ?SetImage@cParticleEmitter@AGK@@QAEXPAVcImage@2@@Z 005ecf60 f   AGKWindows:Particles.obj
 0002:000d9060       ?SetColorInterpolation@cParticleEmitter@AGK@@QAEXH@Z 005ed060 f   AGKWindows:Particles.obj
 0002:000d9090       ?SetMaxParticles@cParticleEmitter@AGK@@QAEXH@Z 005ed090 f   AGKWindows:Particles.obj
 0002:000d90b0       ?ResetParticleCount@cParticleEmitter@AGK@@QAEXXZ 005ed0b0 f   AGKWindows:Particles.obj
 0002:000d90d0       ?GetDepth@cParticleEmitter@AGK@@QAEHXZ 005ed0d0 f   AGKWindows:Particles.obj
 0002:000d9120       ?GetMaxParticlesReached@cParticleEmitter@AGK@@QAEHXZ 005ed120 f   AGKWindows:Particles.obj
 0002:000d9180       ?AddForce@cParticleEmitter@AGK@@QAEXMMMM@Z 005ed180 f   AGKWindows:Particles.obj
 0002:000d9250       ?ClearForces@cParticleEmitter@AGK@@QAEXXZ 005ed250 f   AGKWindows:Particles.obj
 0002:000d92c0       ?AddColorKeyFrame@cParticleEmitter@AGK@@QAEXMIIII@Z 005ed2c0 f   AGKWindows:Particles.obj
 0002:000d93d0       ?ClearColors@cParticleEmitter@AGK@@QAEXXZ 005ed3d0 f   AGKWindows:Particles.obj
 0002:000d9440       ?Update@cParticleEmitter@AGK@@QAEXM@Z 005ed440 f   AGKWindows:Particles.obj
 0002:000d9c70       ?DrawAll@cParticleEmitter@AGK@@QAEXXZ 005edc70 f   AGKWindows:Particles.obj
 0002:000dbb70       ??_GcParticle@AGK@@QAEPAXI@Z 005efb70 f i AGKWindows:Particles.obj
 0002:000dbbc0       ??1cParticle@AGK@@QAE@XZ   005efbc0 f i AGKWindows:Particles.obj
 0002:000dbbe0       ?SetColor@cParticle@AGK@@QAEXIIII@Z 005efbe0 f i AGKWindows:Particles.obj
 0002:000dbc70       ?GetRed@cParticle@AGK@@QAEIXZ 005efc70 f i AGKWindows:Particles.obj
 0002:000dbc90       ?GetGreen@cParticle@AGK@@QAEIXZ 005efc90 f i AGKWindows:Particles.obj
 0002:000dbcc0       ?GetBlue@cParticle@AGK@@QAEIXZ 005efcc0 f i AGKWindows:Particles.obj
 0002:000dbcf0       ?GetAlpha@cParticle@AGK@@QAEIXZ 005efcf0 f i AGKWindows:Particles.obj
 0002:000dbd20       ??0cEditBox@AGK@@QAE@XZ    005efd20 f   AGKWindows:cTextEntry.obj
 0002:000dc090       ??1cEditBox@AGK@@QAE@XZ    005f0090 f   AGKWindows:cTextEntry.obj
 0002:000dc1d0       ?SetID@cEditBox@AGK@@QAEXI@Z 005f01d0 f   AGKWindows:cTextEntry.obj
 0002:000dc1f0       ?SetPosition@cEditBox@AGK@@QAEXMM@Z 005f01f0 f   AGKWindows:cTextEntry.obj
 0002:000dc230       ?SetSize@cEditBox@AGK@@QAEXMM@Z 005f0230 f   AGKWindows:cTextEntry.obj
 0002:000dc270       ?SetDepth@cEditBox@AGK@@QAEXH@Z 005f0270 f   AGKWindows:cTextEntry.obj
 0002:000dc2e0       ?SetBorderSize@cEditBox@AGK@@QAEXM@Z 005f02e0 f   AGKWindows:cTextEntry.obj
 0002:000dc330       ?SetBorderColor@cEditBox@AGK@@QAEXIIII@Z 005f0330 f   AGKWindows:cTextEntry.obj
 0002:000dc370       ?SetBackgroundColor@cEditBox@AGK@@QAEXIIII@Z 005f0370 f   AGKWindows:cTextEntry.obj
 0002:000dc3b0       ?SetTextColor@cEditBox@AGK@@QAEXIII@Z 005f03b0 f   AGKWindows:cTextEntry.obj
 0002:000dc3f0       ?SetCursorColor@cEditBox@AGK@@QAEXIII@Z 005f03f0 f   AGKWindows:cTextEntry.obj
 0002:000dc430       ?SetFontImage@cEditBox@AGK@@QAEXPAVcImage@2@@Z 005f0430 f   AGKWindows:cTextEntry.obj
 0002:000dc480       ?SetTextSize@cEditBox@AGK@@QAEXM@Z 005f0480 f   AGKWindows:cTextEntry.obj
 0002:000dc500       ?SetFocus@cEditBox@AGK@@QAEX_N@Z 005f0500 f   AGKWindows:cTextEntry.obj
 0002:000dc540       ?SetActive@cEditBox@AGK@@QAEX_N@Z 005f0540 f   AGKWindows:cTextEntry.obj
 0002:000dc560       ?SetVisible@cEditBox@AGK@@QAEX_N@Z 005f0560 f   AGKWindows:cTextEntry.obj
 0002:000dc580       ?SetBorderImage@cEditBox@AGK@@QAEXPAVcImage@2@@Z 005f0580 f   AGKWindows:cTextEntry.obj
 0002:000dc5b0       ?SetBackgroundImage@cEditBox@AGK@@QAEXPAVcImage@2@@Z 005f05b0 f   AGKWindows:cTextEntry.obj
 0002:000dc5e0       ?SetCursorBlinkTime@cEditBox@AGK@@QAEXM@Z 005f05e0 f   AGKWindows:cTextEntry.obj
 0002:000dc620       ?SetCursorWidth@cEditBox@AGK@@QAEXM@Z 005f0620 f   AGKWindows:cTextEntry.obj
 0002:000dc680       ?SetText@cEditBox@AGK@@QAEXPBD@Z 005f0680 f   AGKWindows:cTextEntry.obj
 0002:000dc6c0       ?SetCursorLocation@cEditBox@AGK@@QAEXMM@Z 005f06c0 f   AGKWindows:cTextEntry.obj
 0002:000dc990       ?SetMaxChars@cEditBox@AGK@@QAEXI@Z 005f0990 f   AGKWindows:cTextEntry.obj
 0002:000dc9c0       ?SetMultiLine@cEditBox@AGK@@QAEX_N@Z 005f09c0 f   AGKWindows:cTextEntry.obj
 0002:000dca40       ?SetMaxLines@cEditBox@AGK@@QAEXI@Z 005f0a40 f   AGKWindows:cTextEntry.obj
 0002:000dca70       ?SetScissor@cEditBox@AGK@@QAEXMMMM@Z 005f0a70 f   AGKWindows:cTextEntry.obj
 0002:000dcb50       ?FixToScreen@cEditBox@AGK@@QAEX_N@Z 005f0b50 f   AGKWindows:cTextEntry.obj
 0002:000dcbc0       ?GetDepthChanged@cEditBox@AGK@@QAE_NXZ 005f0bc0 f   AGKWindows:cTextEntry.obj
 0002:000dcbf0       ?GetText@cEditBox@AGK@@QAEPADXZ 005f0bf0 f   AGKWindows:cTextEntry.obj
 0002:000dccf0       ?GetHitTest@cEditBox@AGK@@QAE_NMM@Z 005f0cf0 f   AGKWindows:cTextEntry.obj
 0002:000dcda0       ?ParametersChanged@cEditBox@AGK@@IAEXXZ 005f0da0 f   AGKWindows:cTextEntry.obj
 0002:000dcf10       ?Update@cEditBox@AGK@@QAEXXZ 005f0f10 f   AGKWindows:cTextEntry.obj
 0002:000dd730       ?Draw@cEditBox@AGK@@QAEXXZ 005f1730 f   AGKWindows:cTextEntry.obj
 0002:000de7c0       ??0ZipFile@AGK@@QAE@XZ     005f27c0 f   AGKWindows:ZipFile.obj
 0002:000de7e0       ??1ZipFile@AGK@@QAE@XZ     005f27e0 f   AGKWindows:ZipFile.obj
 0002:000de820       ?Create@ZipFile@AGK@@QAEXPBD@Z 005f2820 f   AGKWindows:ZipFile.obj
 0002:000de950       ?AddEntry@ZipFile@AGK@@QAE_NPBD0@Z 005f2950 f   AGKWindows:ZipFile.obj
 0002:000dec10       ?Close@ZipFile@AGK@@QAEXXZ 005f2c10 f   AGKWindows:ZipFile.obj
 0002:000dec50       ?ExtractAll@ZipFile@AGK@@SA_NPBD0@Z 005f2c50 f   AGKWindows:ZipFile.obj
 0002:000df3e0       ?Reset@cTouch@AGK@@QAEXXZ  005f33e0 f   AGKWindows:cTouch.obj
 0002:000df480       ?Moved@cTouch@AGK@@QAEXMM@Z 005f3480 f   AGKWindows:cTouch.obj
 0002:000df530       ?Pressed@cTouch@AGK@@QAEXMM@Z 005f3530 f   AGKWindows:cTouch.obj
 0002:000df5d0       ?Released@cTouch@AGK@@QAEXMM@Z 005f35d0 f   AGKWindows:cTouch.obj
 0002:000df660       ?SetData@cTouch@AGK@@QAEXH@Z 005f3660 f   AGKWindows:cTouch.obj
 0002:000df680       ?GetData@cTouch@AGK@@QAEHXZ 005f3680 f   AGKWindows:cTouch.obj
 0002:000df6a0       ?GetAnyX@cTouch@AGK@@SAMXZ 005f36a0 f   AGKWindows:cTouch.obj
 0002:000df6b0       ?GetAnyY@cTouch@AGK@@SAMXZ 005f36b0 f   AGKWindows:cTouch.obj
 0002:000df6c0       ?GetAny@cTouch@AGK@@SA_NXZ 005f36c0 f   AGKWindows:cTouch.obj
 0002:000df730       ?GetCount@cTouch@AGK@@SAI_N@Z 005f3730 f   AGKWindows:cTouch.obj
 0002:000df7b0       ?GetFirstEvent@cTouch@AGK@@SAPAV12@_N@Z 005f37b0 f   AGKWindows:cTouch.obj
 0002:000df850       ?GetNextEvent@cTouch@AGK@@SAPAV12@XZ 005f3850 f   AGKWindows:cTouch.obj
 0002:000df8f0       ?UpdateEvents@cTouch@AGK@@SAXXZ 005f38f0 f   AGKWindows:cTouch.obj
 0002:000dfa80       ?NewPoint@cTouch@AGK@@SAPAV12@I@Z 005f3a80 f   AGKWindows:cTouch.obj
 0002:000dfb20       ?GetEvent@cTouch@AGK@@SAPAV12@I@Z 005f3b20 f   AGKWindows:cTouch.obj
 0002:000dfba0       ?ClearAll@cTouch@AGK@@SAXXZ 005f3ba0 f   AGKWindows:cTouch.obj
 0002:000dfdf0       ?IsCaptured@cTouch@AGK@@QAE_NXZ 005f3df0 f i AGKWindows:cTouch.obj
 0002:000dfe10       ??0cTouch@AGK@@QAE@XZ      005f3e10 f i AGKWindows:cTouch.obj
 0002:000dfe40       ??1cTouch@AGK@@QAE@XZ      005f3e40 f i AGKWindows:cTouch.obj
 0002:000dfe60       ?Zero@cVirtualButton@AGK@@IAEXXZ 005f3e60 f   AGKWindows:Joystick.obj
 0002:000dff00       ??0cVirtualButton@AGK@@QAE@MMM@Z 005f3f00 f   AGKWindows:Joystick.obj
 0002:000e0180       ??1cVirtualButton@AGK@@QAE@XZ 005f4180 f   AGKWindows:Joystick.obj
 0002:000e0250       ?SetPosition@cVirtualButton@AGK@@QAEXMM@Z 005f4250 f   AGKWindows:Joystick.obj
 0002:000e0280       ?SetSize@cVirtualButton@AGK@@QAEXM@Z 005f4280 f   AGKWindows:Joystick.obj
 0002:000e02c0       ?SetColor@cVirtualButton@AGK@@QAEXIII@Z 005f42c0 f   AGKWindows:Joystick.obj
 0002:000e0320       ?SetAlpha@cVirtualButton@AGK@@QAEXI@Z 005f4320 f   AGKWindows:Joystick.obj
 0002:000e0350       ?SetActive@cVirtualButton@AGK@@QAEX_N@Z 005f4350 f   AGKWindows:Joystick.obj
 0002:000e0370       ?SetVisible@cVirtualButton@AGK@@QAEX_N@Z 005f4370 f   AGKWindows:Joystick.obj
 0002:000e0390       ?SetUpImage@cVirtualButton@AGK@@QAEXPAVcImage@2@@Z 005f4390 f   AGKWindows:Joystick.obj
 0002:000e0500       ?SetDownImage@cVirtualButton@AGK@@QAEXPAVcImage@2@@Z 005f4500 f   AGKWindows:Joystick.obj
 0002:000e0670       ?SetText@cVirtualButton@AGK@@QAEXPBD@Z 005f4670 f   AGKWindows:Joystick.obj
 0002:000e0730       ?Update@cVirtualButton@AGK@@QAEXXZ 005f4730 f   AGKWindows:Joystick.obj
 0002:000e07e0       ?GetHitTest@cVirtualButton@AGK@@QAE_NMM@Z 005f47e0 f   AGKWindows:Joystick.obj
 0002:000e08a0       ?Draw@cVirtualButton@AGK@@QAEXXZ 005f48a0 f   AGKWindows:Joystick.obj
 0002:000e0a00       ?Zero@cVirtualJoystick@AGK@@IAEXXZ 005f4a00 f   AGKWindows:Joystick.obj
 0002:000e0a90       ??0cVirtualJoystick@AGK@@QAE@MMM@Z 005f4a90 f   AGKWindows:Joystick.obj
 0002:000e0d00       ??1cVirtualJoystick@AGK@@QAE@XZ 005f4d00 f   AGKWindows:Joystick.obj
 0002:000e0da0       ?SetPosition@cVirtualJoystick@AGK@@QAEXMM@Z 005f4da0 f   AGKWindows:Joystick.obj
 0002:000e0dd0       ?SetSize@cVirtualJoystick@AGK@@QAEXM@Z 005f4dd0 f   AGKWindows:Joystick.obj
 0002:000e0e10       ?SetAlpha@cVirtualJoystick@AGK@@QAEXII@Z 005f4e10 f   AGKWindows:Joystick.obj
 0002:000e0e60       ?SetActive@cVirtualJoystick@AGK@@QAEX_N@Z 005f4e60 f   AGKWindows:Joystick.obj
 0002:000e0e80       ?SetVisible@cVirtualJoystick@AGK@@QAEX_N@Z 005f4e80 f   AGKWindows:Joystick.obj
 0002:000e0ea0       ?SetInnerImage@cVirtualJoystick@AGK@@QAEXPAVcImage@2@@Z 005f4ea0 f   AGKWindows:Joystick.obj
 0002:000e1010       ?SetOuterImage@cVirtualJoystick@AGK@@QAEXPAVcImage@2@@Z 005f5010 f   AGKWindows:Joystick.obj
 0002:000e1180       ?Update@cVirtualJoystick@AGK@@QAEXXZ 005f5180 f   AGKWindows:Joystick.obj
 0002:000e1310       ?GetX@cVirtualJoystick@AGK@@QAEMXZ 005f5310 f   AGKWindows:Joystick.obj
 0002:000e1360       ?GetY@cVirtualJoystick@AGK@@QAEMXZ 005f5360 f   AGKWindows:Joystick.obj
 0002:000e13b0       ?GetHitTest@cVirtualJoystick@AGK@@QAE_NMM@Z 005f53b0 f   AGKWindows:Joystick.obj
 0002:000e1470       ?Draw@cVirtualJoystick@AGK@@QAEXXZ 005f5470 f   AGKWindows:Joystick.obj
 0002:000e1600       ?Zero@cJoystick@AGK@@IAEXXZ 005f5600 f   AGKWindows:Joystick.obj
 0002:000e16b0       ??0cJoystick@AGK@@QAE@PAX@Z 005f56b0 f   AGKWindows:Joystick.obj
 0002:000e16f0       ?GetX@cJoystick@AGK@@QAEMXZ 005f56f0 f   AGKWindows:Joystick.obj
 0002:000e1740       ?GetY@cJoystick@AGK@@QAEMXZ 005f5740 f   AGKWindows:Joystick.obj
 0002:000e1790       ?GetZ@cJoystick@AGK@@QAEMXZ 005f5790 f   AGKWindows:Joystick.obj
 0002:000e17e0       ?GetRX@cJoystick@AGK@@QAEMXZ 005f57e0 f   AGKWindows:Joystick.obj
 0002:000e1830       ?GetRY@cJoystick@AGK@@QAEMXZ 005f5830 f   AGKWindows:Joystick.obj
 0002:000e1880       ?GetRZ@cJoystick@AGK@@QAEMXZ 005f5880 f   AGKWindows:Joystick.obj
 0002:000e18d0       ?Update@cJoystick@AGK@@QAEXXZ 005f58d0 f   AGKWindows:Joystick.obj
 0002:000e1fe0       ?GetLeftTrue@cMouse@AGK@@IAE_NXZ 005f5fe0 f i AGKWindows:Joystick.obj
 0002:000e2010       ??0b2Body@@AAE@PBUb2BodyDef@@PAVb2World@@@Z 005f6010 f   AGKWindows:b2Body.obj
 0002:000e23a0       ??1b2Body@@AAE@XZ          005f63a0 f   AGKWindows:b2Body.obj
 0002:000e23c0       ?SetType@b2Body@@QAEXW4b2BodyType@@@Z 005f63c0 f   AGKWindows:b2Body.obj
 0002:000e24d0       ?CreateFixture@b2Body@@QAEPAVb2Fixture@@PBUb2FixtureDef@@@Z 005f64d0 f   AGKWindows:b2Body.obj
 0002:000e2680       ?CreateFixture@b2Body@@QAEPAVb2Fixture@@PBVb2Shape@@M@Z 005f6680 f   AGKWindows:b2Body.obj
 0002:000e2700       ?DestroyFixture@b2Body@@QAEXPAVb2Fixture@@@Z 005f6700 f   AGKWindows:b2Body.obj
 0002:000e28f0       ?ResetMassData@b2Body@@QAEXXZ 005f68f0 f   AGKWindows:b2Body.obj
 0002:000e2c20       ?SetMassData@b2Body@@QAEXPBUb2MassData@@@Z 005f6c20 f   AGKWindows:b2Body.obj
 0002:000e2e40       ?ShouldCollide@b2Body@@ABE_NPBV1@@Z 005f6e40 f   AGKWindows:b2Body.obj
 0002:000e2eb0       ?SetTransform@b2Body@@QAEXABUb2Vec2@@M@Z 005f6eb0 f   AGKWindows:b2Body.obj
 0002:000e2ff0       ?SynchronizeFixtures@b2Body@@AAEXXZ 005f6ff0 f   AGKWindows:b2Body.obj
 0002:000e30e0       ?SetActive@b2Body@@QAEX_N@Z 005f70e0 f   AGKWindows:b2Body.obj
 0002:000e36d0       ?b2IsValid@@YA_NM@Z        005f76d0 f i AGKWindows:b2Body.obj
 0002:000e3750       ?IsValid@b2Vec2@@QBE_NXZ   005f7750 f i AGKWindows:b2Body.obj
 0002:000e37e0       ??Xb2Vec2@@QAEXM@Z         005f77e0 f i AGKWindows:b2Body.obj
 0002:000e3820       ?GetMassData@b2Fixture@@QBEXPAUb2MassData@@@Z 005f7820 f i AGKWindows:b2Body.obj
 0002:000e3880       ?Clone@b2PolygonShape@@UBEPAVb2Shape@@PAVb2BlockAllocator@@@Z 005f7880 f   AGKWindows:b2PolygonShape.obj
 0002:000e3950       ?SetAsBox@b2PolygonShape@@QAEXMM@Z 005f7950 f   AGKWindows:b2PolygonShape.obj
 0002:000e3a60       ?SetAsBox@b2PolygonShape@@QAEXMMABUb2Vec2@@M@Z 005f7a60 f   AGKWindows:b2PolygonShape.obj
 0002:000e3c50       ?GetChildCount@b2PolygonShape@@UBEHXZ 005f7c50 f   AGKWindows:b2PolygonShape.obj
 0002:000e3c70       ?Set@b2PolygonShape@@QAEXPBUb2Vec2@@H@Z 005f7c70 f   AGKWindows:b2PolygonShape.obj
 0002:000e4220       ?TestPoint@b2PolygonShape@@UBE_NABUb2Transform@@ABUb2Vec2@@@Z 005f8220 f   AGKWindows:b2PolygonShape.obj
 0002:000e4310       ?RayCast@b2PolygonShape@@UBE_NPAUb2RayCastOutput@@ABUb2RayCastInput@@ABUb2Transform@@H@Z 005f8310 f   AGKWindows:b2PolygonShape.obj
 0002:000e4590       ?ComputeAABB@b2PolygonShape@@UBEXPAUb2AABB@@ABUb2Transform@@H@Z 005f8590 f   AGKWindows:b2PolygonShape.obj
 0002:000e4720       ?ComputeMass@b2PolygonShape@@UBEXPAUb2MassData@@M@Z 005f8720 f   AGKWindows:b2PolygonShape.obj
 0002:000e4f50       ?b2Cross@@YA?AUb2Vec2@@ABU1@M@Z 005f8f50 f i AGKWindows:b2PolygonShape.obj
 0002:000e4fc0       ?b2MulT@@YA?AUb2Vec2@@ABUb2Rot@@ABU1@@Z 005f8fc0 f i AGKWindows:b2PolygonShape.obj
 0002:000e5050       ??0b2Draw@@QAE@XZ          005f9050 f   AGKWindows:b2Draw.obj
 0002:000e5080       ?SetFlags@b2Draw@@QAEXI@Z  005f9080 f   AGKWindows:b2Draw.obj
 0002:000e50a0       ?GetFlags@b2Draw@@QBEIXZ   005f90a0 f   AGKWindows:b2Draw.obj
 0002:000e50c0       ?AppendFlags@b2Draw@@QAEXI@Z 005f90c0 f   AGKWindows:b2Draw.obj
 0002:000e50f0       ?ClearFlags@b2Draw@@QAEXI@Z 005f90f0 f   AGKWindows:b2Draw.obj
 0002:000e5150       ?Initialize@b2DistanceJointDef@@QAEXPAVb2Body@@0ABUb2Vec2@@1@Z 005f9150 f   AGKWindows:b2DistanceJoint.obj
 0002:000e5230       ??0b2DistanceJoint@@IAE@PBUb2DistanceJointDef@@@Z 005f9230 f   AGKWindows:b2DistanceJoint.obj
 0002:000e5360       ?InitVelocityConstraints@b2DistanceJoint@@MAEXABUb2SolverData@@@Z 005f9360 f   AGKWindows:b2DistanceJoint.obj
 0002:000e5a20       ?SolveVelocityConstraints@b2DistanceJoint@@MAEXABUb2SolverData@@@Z 005f9a20 f   AGKWindows:b2DistanceJoint.obj
 0002:000e5cf0       ?SolvePositionConstraints@b2DistanceJoint@@MAE_NABUb2SolverData@@@Z 005f9cf0 f   AGKWindows:b2DistanceJoint.obj
 0002:000e60b0       ?GetAnchorA@b2DistanceJoint@@UBE?AUb2Vec2@@XZ 005fa0b0 f   AGKWindows:b2DistanceJoint.obj
 0002:000e60f0       ?GetAnchorB@b2DistanceJoint@@UBE?AUb2Vec2@@XZ 005fa0f0 f   AGKWindows:b2DistanceJoint.obj
 0002:000e6130       ?GetReactionForce@b2DistanceJoint@@UBE?AUb2Vec2@@M@Z 005fa130 f   AGKWindows:b2DistanceJoint.obj
 0002:000e61c0       ?GetReactionTorque@b2DistanceJoint@@UBEMM@Z 005fa1c0 f   AGKWindows:b2DistanceJoint.obj
 0002:000e6600       ?GetLocalPoint@b2Body@@QBE?AUb2Vec2@@ABU2@@Z 005fa600 f i AGKWindows:b2DistanceJoint.obj
 0002:000e6650       ??1b2Joint@@MAE@XZ         005fa650 f i AGKWindows:b2DistanceJoint.obj
 0002:000e6680       ??_Eb2Joint@@MAEPAXI@Z     005fa680 f i AGKWindows:b2DistanceJoint.obj
 0002:000e6680       ??_Gb2Joint@@MAEPAXI@Z     005fa680 f i AGKWindows:b2DistanceJoint.obj
 0002:000e66d0       ??_Gb2DistanceJoint@@UAEPAXI@Z 005fa6d0 f i AGKWindows:b2DistanceJoint.obj
 0002:000e66d0       ??_Eb2DistanceJoint@@UAEPAXI@Z 005fa6d0 f i AGKWindows:b2DistanceJoint.obj
 0002:000e6720       ??1b2DistanceJoint@@UAE@XZ 005fa720 f i AGKWindows:b2DistanceJoint.obj
 0002:000e6750       ??Zb2Vec2@@QAEXABU0@@Z     005fa750 f i AGKWindows:b2DistanceJoint.obj
 0002:000e67a0       ??0b2Rot@@QAE@M@Z          005fa7a0 f i AGKWindows:b2DistanceJoint.obj
 0002:000e6800       ??$b2Clamp@M@@YAMMMM@Z     005fa800 f i AGKWindows:b2DistanceJoint.obj
 0002:000e6850       ?Initialize@b2RevoluteJointDef@@QAEXPAVb2Body@@0ABUb2Vec2@@@Z 005fa850 f   AGKWindows:b2RevoluteJoint.obj
 0002:000e6900       ??0b2RevoluteJoint@@IAE@PBUb2RevoluteJointDef@@@Z 005fa900 f   AGKWindows:b2RevoluteJoint.obj
 0002:000e6a70       ?InitVelocityConstraints@b2RevoluteJoint@@MAEXABUb2SolverData@@@Z 005faa70 f   AGKWindows:b2RevoluteJoint.obj
 0002:000e71f0       ?SolveVelocityConstraints@b2RevoluteJoint@@MAEXABUb2SolverData@@@Z 005fb1f0 f   AGKWindows:b2RevoluteJoint.obj
 0002:000e7a50       ?SolvePositionConstraints@b2RevoluteJoint@@MAE_NABUb2SolverData@@@Z 005fba50 f   AGKWindows:b2RevoluteJoint.obj
 0002:000e80b0       ?GetAnchorA@b2RevoluteJoint@@UBE?AUb2Vec2@@XZ 005fc0b0 f   AGKWindows:b2RevoluteJoint.obj
 0002:000e80f0       ?GetAnchorB@b2RevoluteJoint@@UBE?AUb2Vec2@@XZ 005fc0f0 f   AGKWindows:b2RevoluteJoint.obj
 0002:000e8130       ?GetReactionForce@b2RevoluteJoint@@UBE?AUb2Vec2@@M@Z 005fc130 f   AGKWindows:b2RevoluteJoint.obj
 0002:000e81c0       ?GetReactionTorque@b2RevoluteJoint@@UBEMM@Z 005fc1c0 f   AGKWindows:b2RevoluteJoint.obj
 0002:000e81f0       ?GetJointAngle@b2RevoluteJoint@@QBEMXZ 005fc1f0 f   AGKWindows:b2RevoluteJoint.obj
 0002:000e8240       ?GetJointSpeed@b2RevoluteJoint@@QBEMXZ 005fc240 f   AGKWindows:b2RevoluteJoint.obj
 0002:000e8290       ?IsMotorEnabled@b2RevoluteJoint@@QBE_NXZ 005fc290 f   AGKWindows:b2RevoluteJoint.obj
 0002:000e82b0       ?EnableMotor@b2RevoluteJoint@@QAEX_N@Z 005fc2b0 f   AGKWindows:b2RevoluteJoint.obj
 0002:000e8300       ?GetMotorTorque@b2RevoluteJoint@@QBEMM@Z 005fc300 f   AGKWindows:b2RevoluteJoint.obj
 0002:000e8330       ?SetMotorSpeed@b2RevoluteJoint@@QAEXM@Z 005fc330 f   AGKWindows:b2RevoluteJoint.obj
 0002:000e8380       ?SetMaxMotorTorque@b2RevoluteJoint@@QAEXM@Z 005fc380 f   AGKWindows:b2RevoluteJoint.obj
 0002:000e83d0       ?IsLimitEnabled@b2RevoluteJoint@@QBE_NXZ 005fc3d0 f   AGKWindows:b2RevoluteJoint.obj
 0002:000e83f0       ?EnableLimit@b2RevoluteJoint@@QAEX_N@Z 005fc3f0 f   AGKWindows:b2RevoluteJoint.obj
 0002:000e8450       ?GetLowerLimit@b2RevoluteJoint@@QBEMXZ 005fc450 f   AGKWindows:b2RevoluteJoint.obj
 0002:000e8470       ?GetUpperLimit@b2RevoluteJoint@@QBEMXZ 005fc470 f   AGKWindows:b2RevoluteJoint.obj
 0002:000e8490       ?SetLimits@b2RevoluteJoint@@QAEXMM@Z 005fc490 f   AGKWindows:b2RevoluteJoint.obj
 0002:000e8c70       ??0b2Vec3@@QAE@XZ          005fcc70 f i AGKWindows:b2RevoluteJoint.obj
 0002:000e8c90       ?SetZero@b2Vec3@@QAEXXZ    005fcc90 f i AGKWindows:b2RevoluteJoint.obj
 0002:000e8cd0       ??0b2Mat33@@QAE@XZ         005fccd0 f i AGKWindows:b2RevoluteJoint.obj
 0002:000e8d20       ??_Gb2RevoluteJoint@@UAEPAXI@Z 005fcd20 f i AGKWindows:b2RevoluteJoint.obj
 0002:000e8d20       ??_Eb2RevoluteJoint@@UAEPAXI@Z 005fcd20 f i AGKWindows:b2RevoluteJoint.obj
 0002:000e8d70       ??1b2RevoluteJoint@@UAE@XZ 005fcd70 f i AGKWindows:b2RevoluteJoint.obj
 0002:000e8da0       ??Xb2Vec3@@QAEXM@Z         005fcda0 f i AGKWindows:b2RevoluteJoint.obj
 0002:000e8df0       ??Gb2Vec2@@QBE?AU0@XZ      005fcdf0 f i AGKWindows:b2RevoluteJoint.obj
 0002:000e8eb0       ??0b2Vec3@@QAE@MMM@Z       005fceb0 f i AGKWindows:b2RevoluteJoint.obj
 0002:000e8ef0       ??Gb2Vec3@@QBE?AU0@XZ      005fcef0 f i AGKWindows:b2RevoluteJoint.obj
 0002:000e8fc0       ?Set@b2Vec3@@QAEXMMM@Z     005fcfc0 f i AGKWindows:b2RevoluteJoint.obj
 0002:000e9000       ??Yb2Vec3@@QAEXABU0@@Z     005fd000 f i AGKWindows:b2RevoluteJoint.obj
 0002:000e9060       ??0b2Mat22@@QAE@XZ         005fd060 f i AGKWindows:b2RevoluteJoint.obj
 0002:000e90a0       ?Solve@b2Mat22@@QBE?AUb2Vec2@@ABU2@@Z 005fd0a0 f i AGKWindows:b2RevoluteJoint.obj
 0002:000e91d0       ?Initialize@b2PrismaticJointDef@@QAEXPAVb2Body@@0ABUb2Vec2@@1@Z 005fd1d0 f   AGKWindows:b2PrismaticJoint.obj
 0002:000e92a0       ??0b2PrismaticJoint@@IAE@PBUb2PrismaticJointDef@@@Z 005fd2a0 f   AGKWindows:b2PrismaticJoint.obj
 0002:000e94a0       ?InitVelocityConstraints@b2PrismaticJoint@@MAEXABUb2SolverData@@@Z 005fd4a0 f   AGKWindows:b2PrismaticJoint.obj
 0002:000e9e70       ?SolveVelocityConstraints@b2PrismaticJoint@@MAEXABUb2SolverData@@@Z 005fde70 f   AGKWindows:b2PrismaticJoint.obj
 0002:000ea6d0       ?SolvePositionConstraints@b2PrismaticJoint@@MAE_NABUb2SolverData@@@Z 005fe6d0 f   AGKWindows:b2PrismaticJoint.obj
 0002:000eb180       ?GetAnchorA@b2PrismaticJoint@@UBE?AUb2Vec2@@XZ 005ff180 f   AGKWindows:b2PrismaticJoint.obj
 0002:000eb1c0       ?GetAnchorB@b2PrismaticJoint@@UBE?AUb2Vec2@@XZ 005ff1c0 f   AGKWindows:b2PrismaticJoint.obj
 0002:000eb200       ?GetReactionForce@b2PrismaticJoint@@UBE?AUb2Vec2@@M@Z 005ff200 f   AGKWindows:b2PrismaticJoint.obj
 0002:000eb2b0       ?GetReactionTorque@b2PrismaticJoint@@UBEMM@Z 005ff2b0 f   AGKWindows:b2PrismaticJoint.obj
 0002:000eb2e0       ?GetJointTranslation@b2PrismaticJoint@@QBEMXZ 005ff2e0 f   AGKWindows:b2PrismaticJoint.obj
 0002:000eb3d0       ?GetJointSpeed@b2PrismaticJoint@@QBEMXZ 005ff3d0 f   AGKWindows:b2PrismaticJoint.obj
 0002:000eb670       ?IsLimitEnabled@b2PrismaticJoint@@QBE_NXZ 005ff670 f   AGKWindows:b2PrismaticJoint.obj
 0002:000eb690       ?EnableLimit@b2PrismaticJoint@@QAEX_N@Z 005ff690 f   AGKWindows:b2PrismaticJoint.obj
 0002:000eb6f0       ?GetLowerLimit@b2PrismaticJoint@@QBEMXZ 005ff6f0 f   AGKWindows:b2PrismaticJoint.obj
 0002:000eb710       ?GetUpperLimit@b2PrismaticJoint@@QBEMXZ 005ff710 f   AGKWindows:b2PrismaticJoint.obj
 0002:000eb730       ?SetLimits@b2PrismaticJoint@@QAEXMM@Z 005ff730 f   AGKWindows:b2PrismaticJoint.obj
 0002:000eb7d0       ?IsMotorEnabled@b2PrismaticJoint@@QBE_NXZ 005ff7d0 f   AGKWindows:b2PrismaticJoint.obj
 0002:000eb7f0       ?EnableMotor@b2PrismaticJoint@@QAEX_N@Z 005ff7f0 f   AGKWindows:b2PrismaticJoint.obj
 0002:000eb840       ?SetMotorSpeed@b2PrismaticJoint@@QAEXM@Z 005ff840 f   AGKWindows:b2PrismaticJoint.obj
 0002:000eb890       ?SetMaxMotorForce@b2PrismaticJoint@@QAEXM@Z 005ff890 f   AGKWindows:b2PrismaticJoint.obj
 0002:000eb8e0       ?GetMotorForce@b2PrismaticJoint@@QBEMM@Z 005ff8e0 f   AGKWindows:b2PrismaticJoint.obj
 0002:000ec2e0       ?GetLocalVector@b2Body@@QBE?AUb2Vec2@@ABU2@@Z 006002e0 f i AGKWindows:b2PrismaticJoint.obj
 0002:000ec330       ??_Eb2PrismaticJoint@@UAEPAXI@Z 00600330 f i AGKWindows:b2PrismaticJoint.obj
 0002:000ec330       ??_Gb2PrismaticJoint@@UAEPAXI@Z 00600330 f i AGKWindows:b2PrismaticJoint.obj
 0002:000ec380       ??1b2PrismaticJoint@@UAE@XZ 00600380 f i AGKWindows:b2PrismaticJoint.obj
 0002:000ec3b0       ??G@YA?AUb2Vec3@@ABU0@0@Z  006003b0 f i AGKWindows:b2PrismaticJoint.obj
 0002:000ec450       ?GetWorldVector@b2Body@@QBE?AUb2Vec2@@ABU2@@Z 00600450 f i AGKWindows:b2PrismaticJoint.obj
 0002:000ec4a0       ?Initialize@b2PulleyJointDef@@QAEXPAVb2Body@@0ABUb2Vec2@@111M@Z 006004a0 f   AGKWindows:b2PulleyJoint.obj
 0002:000ec5f0       ??0b2PulleyJoint@@IAE@PBUb2PulleyJointDef@@@Z 006005f0 f   AGKWindows:b2PulleyJoint.obj
 0002:000ec780       ?InitVelocityConstraints@b2PulleyJoint@@MAEXABUb2SolverData@@@Z 00600780 f   AGKWindows:b2PulleyJoint.obj
 0002:000ecde0       ?SolveVelocityConstraints@b2PulleyJoint@@MAEXABUb2SolverData@@@Z 00600de0 f   AGKWindows:b2PulleyJoint.obj
 0002:000ed100       ?SolvePositionConstraints@b2PulleyJoint@@MAE_NABUb2SolverData@@@Z 00601100 f   AGKWindows:b2PulleyJoint.obj
 0002:000ed650       ?GetAnchorA@b2PulleyJoint@@UBE?AUb2Vec2@@XZ 00601650 f   AGKWindows:b2PulleyJoint.obj
 0002:000ed690       ?GetAnchorB@b2PulleyJoint@@UBE?AUb2Vec2@@XZ 00601690 f   AGKWindows:b2PulleyJoint.obj
 0002:000ed6d0       ?GetReactionForce@b2PulleyJoint@@UBE?AUb2Vec2@@M@Z 006016d0 f   AGKWindows:b2PulleyJoint.obj
 0002:000ed760       ?GetReactionTorque@b2PulleyJoint@@UBEMM@Z 00601760 f   AGKWindows:b2PulleyJoint.obj
 0002:000ed780       ?GetGroundAnchorA@b2PulleyJoint@@QBE?AUb2Vec2@@XZ 00601780 f   AGKWindows:b2PulleyJoint.obj
 0002:000ed7b0       ?GetGroundAnchorB@b2PulleyJoint@@QBE?AUb2Vec2@@XZ 006017b0 f   AGKWindows:b2PulleyJoint.obj
 0002:000ed7e0       ?GetLengthA@b2PulleyJoint@@QBEMXZ 006017e0 f   AGKWindows:b2PulleyJoint.obj
 0002:000ed890       ?GetLengthB@b2PulleyJoint@@QBEMXZ 00601890 f   AGKWindows:b2PulleyJoint.obj
 0002:000ed940       ?GetRatio@b2PulleyJoint@@QBEMXZ 00601940 f   AGKWindows:b2PulleyJoint.obj
 0002:000ede90       ??_Eb2PulleyJoint@@UAEPAXI@Z 00601e90 f i AGKWindows:b2PulleyJoint.obj
 0002:000ede90       ??_Gb2PulleyJoint@@UAEPAXI@Z 00601e90 f i AGKWindows:b2PulleyJoint.obj
 0002:000edee0       ??1b2PulleyJoint@@UAE@XZ   00601ee0 f i AGKWindows:b2PulleyJoint.obj
 0002:000edf10       ?Initialize@b2WheelJointDef@@QAEXPAVb2Body@@0ABUb2Vec2@@1@Z 00601f10 f   AGKWindows:b2WheelJoint.obj
 0002:000edfc0       ??0b2WheelJoint@@IAE@PBUb2WheelJointDef@@@Z 00601fc0 f   AGKWindows:b2WheelJoint.obj
 0002:000ee1b0       ?InitVelocityConstraints@b2WheelJoint@@MAEXABUb2SolverData@@@Z 006021b0 f   AGKWindows:b2WheelJoint.obj
 0002:000eeac0       ?SolveVelocityConstraints@b2WheelJoint@@MAEXABUb2SolverData@@@Z 00602ac0 f   AGKWindows:b2WheelJoint.obj
 0002:000eef20       ?SolvePositionConstraints@b2WheelJoint@@MAE_NABUb2SolverData@@@Z 00602f20 f   AGKWindows:b2WheelJoint.obj
 0002:000ef390       ?GetAnchorA@b2WheelJoint@@UBE?AUb2Vec2@@XZ 00603390 f   AGKWindows:b2WheelJoint.obj
 0002:000ef3d0       ?GetAnchorB@b2WheelJoint@@UBE?AUb2Vec2@@XZ 006033d0 f   AGKWindows:b2WheelJoint.obj
 0002:000ef410       ?GetReactionForce@b2WheelJoint@@UBE?AUb2Vec2@@M@Z 00603410 f   AGKWindows:b2WheelJoint.obj
 0002:000ef4b0       ?GetReactionTorque@b2WheelJoint@@UBEMM@Z 006034b0 f   AGKWindows:b2WheelJoint.obj
 0002:000ef4e0       ?GetJointTranslation@b2WheelJoint@@QBEMXZ 006034e0 f   AGKWindows:b2WheelJoint.obj
 0002:000ef5e0       ?GetJointSpeed@b2WheelJoint@@QBEMXZ 006035e0 f   AGKWindows:b2WheelJoint.obj
 0002:000ef630       ?IsMotorEnabled@b2WheelJoint@@QBE_NXZ 00603630 f   AGKWindows:b2WheelJoint.obj
 0002:000ef650       ?EnableMotor@b2WheelJoint@@QAEX_N@Z 00603650 f   AGKWindows:b2WheelJoint.obj
 0002:000ef6a0       ?SetMotorSpeed@b2WheelJoint@@QAEXM@Z 006036a0 f   AGKWindows:b2WheelJoint.obj
 0002:000ef6f0       ?SetMaxMotorTorque@b2WheelJoint@@QAEXM@Z 006036f0 f   AGKWindows:b2WheelJoint.obj
 0002:000ef740       ?GetMotorTorque@b2WheelJoint@@QBEMM@Z 00603740 f   AGKWindows:b2WheelJoint.obj
 0002:000efd90       ??_Gb2WheelJoint@@UAEPAXI@Z 00603d90 f i AGKWindows:b2WheelJoint.obj
 0002:000efd90       ??_Eb2WheelJoint@@UAEPAXI@Z 00603d90 f i AGKWindows:b2WheelJoint.obj
 0002:000efde0       ??1b2WheelJoint@@UAE@XZ    00603de0 f i AGKWindows:b2WheelJoint.obj
 0002:000efe10       ?Initialize@b2WeldJointDef@@QAEXPAVb2Body@@0ABUb2Vec2@@@Z 00603e10 f   AGKWindows:b2WeldJoint.obj
 0002:000efec0       ??0b2WeldJoint@@IAE@PBUb2WeldJointDef@@@Z 00603ec0 f   AGKWindows:b2WeldJoint.obj
 0002:000effd0       ?InitVelocityConstraints@b2WeldJoint@@MAEXABUb2SolverData@@@Z 00603fd0 f   AGKWindows:b2WeldJoint.obj
 0002:000f0530       ?SolveVelocityConstraints@b2WeldJoint@@MAEXABUb2SolverData@@@Z 00604530 f   AGKWindows:b2WeldJoint.obj
 0002:000f0850       ?SolvePositionConstraints@b2WeldJoint@@MAE_NABUb2SolverData@@@Z 00604850 f   AGKWindows:b2WeldJoint.obj
 0002:000f0d50       ?GetAnchorA@b2WeldJoint@@UBE?AUb2Vec2@@XZ 00604d50 f   AGKWindows:b2WeldJoint.obj
 0002:000f0d90       ?GetAnchorB@b2WeldJoint@@UBE?AUb2Vec2@@XZ 00604d90 f   AGKWindows:b2WeldJoint.obj
 0002:000f0dd0       ?GetReactionForce@b2WeldJoint@@UBE?AUb2Vec2@@M@Z 00604dd0 f   AGKWindows:b2WeldJoint.obj
 0002:000f0e60       ?GetReactionTorque@b2WeldJoint@@UBEMM@Z 00604e60 f   AGKWindows:b2WeldJoint.obj
 0002:000f12b0       ??_Gb2WeldJoint@@UAEPAXI@Z 006052b0 f i AGKWindows:b2WeldJoint.obj
 0002:000f12b0       ??_Eb2WeldJoint@@UAEPAXI@Z 006052b0 f i AGKWindows:b2WeldJoint.obj
 0002:000f1300       ??1b2WeldJoint@@UAE@XZ     00605300 f i AGKWindows:b2WeldJoint.obj
 0002:000f1330       ??0b2MouseJoint@@IAE@PBUb2MouseJointDef@@@Z 00605330 f   AGKWindows:b2MouseJoint.obj
 0002:000f1570       ?SetTarget@b2MouseJoint@@QAEXABUb2Vec2@@@Z 00605570 f   AGKWindows:b2MouseJoint.obj
 0002:000f15c0       ?GetTarget@b2MouseJoint@@QBEABUb2Vec2@@XZ 006055c0 f   AGKWindows:b2MouseJoint.obj
 0002:000f15e0       ?SetMaxForce@b2MouseJoint@@QAEXM@Z 006055e0 f   AGKWindows:b2MouseJoint.obj
 0002:000f1600       ?GetMaxForce@b2MouseJoint@@QBEMXZ 00605600 f   AGKWindows:b2MouseJoint.obj
 0002:000f1620       ?SetFrequency@b2MouseJoint@@QAEXM@Z 00605620 f   AGKWindows:b2MouseJoint.obj
 0002:000f1640       ?GetFrequency@b2MouseJoint@@QBEMXZ 00605640 f   AGKWindows:b2MouseJoint.obj
 0002:000f1660       ?SetDampingRatio@b2MouseJoint@@QAEXM@Z 00605660 f   AGKWindows:b2MouseJoint.obj
 0002:000f1680       ?GetDampingRatio@b2MouseJoint@@QBEMXZ 00605680 f   AGKWindows:b2MouseJoint.obj
 0002:000f16a0       ?InitVelocityConstraints@b2MouseJoint@@MAEXABUb2SolverData@@@Z 006056a0 f   AGKWindows:b2MouseJoint.obj
 0002:000f1aa0       ?SolveVelocityConstraints@b2MouseJoint@@MAEXABUb2SolverData@@@Z 00605aa0 f   AGKWindows:b2MouseJoint.obj
 0002:000f1d10       ?SolvePositionConstraints@b2MouseJoint@@MAE_NABUb2SolverData@@@Z 00605d10 f   AGKWindows:b2MouseJoint.obj
 0002:000f1d30       ?GetAnchorA@b2MouseJoint@@UBE?AUb2Vec2@@XZ 00605d30 f   AGKWindows:b2MouseJoint.obj
 0002:000f1d60       ?GetAnchorB@b2MouseJoint@@UBE?AUb2Vec2@@XZ 00605d60 f   AGKWindows:b2MouseJoint.obj
 0002:000f1da0       ?GetReactionForce@b2MouseJoint@@UBE?AUb2Vec2@@M@Z 00605da0 f   AGKWindows:b2MouseJoint.obj
 0002:000f1de0       ?GetReactionTorque@b2MouseJoint@@UBEMM@Z 00605de0 f   AGKWindows:b2MouseJoint.obj
 0002:000f20d0       ??_Eb2MouseJoint@@UAEPAXI@Z 006060d0 f i AGKWindows:b2MouseJoint.obj
 0002:000f20d0       ??_Gb2MouseJoint@@UAEPAXI@Z 006060d0 f i AGKWindows:b2MouseJoint.obj
 0002:000f2120       ??1b2MouseJoint@@UAE@XZ    00606120 f i AGKWindows:b2MouseJoint.obj
 0002:000f2150       ?GetInverse@b2Mat22@@QBE?AU1@XZ 00606150 f i AGKWindows:b2MouseJoint.obj
 0002:000f2280       ?b2Mul@@YA?AUb2Vec2@@ABUb2Mat22@@ABU1@@Z 00606280 f i AGKWindows:b2MouseJoint.obj
 0002:000f2310       ?DrawString@DebugDraw@AGK@@QAAXHHPBDZZ 00606310 f   AGKWindows:DebugDraw.obj
 0002:000f2320       ?DrawAABB@DebugDraw@AGK@@QAEXPAUb2AABB@@ABUb2Color@@@Z 00606320 f   AGKWindows:DebugDraw.obj
 0002:000f2340       ?SayGoodbye@MyDestructionListener@AGK@@EAEXPAVb2Joint@@@Z 00606340 f   AGKWindows:DebugDraw.obj
 0002:000f2370       ??0MyRayCastCallback@AGK@@QAE@XZ 00606370 f   AGKWindows:DebugDraw.obj
 0002:000f2400       ?Reset@MyRayCastCallback@AGK@@QAEXXZ 00606400 f   AGKWindows:DebugDraw.obj
 0002:000f2450       ?ReportFixture@MyRayCastCallback@AGK@@UAEMPAVb2Fixture@@ABUb2Vec2@@1M@Z 00606450 f   AGKWindows:DebugDraw.obj
 0002:000f2580       ??_GMyRayCastCallback@AGK@@UAEPAXI@Z 00606580 f i AGKWindows:DebugDraw.obj
 0002:000f2580       ??_EMyRayCastCallback@AGK@@UAEPAXI@Z 00606580 f i AGKWindows:DebugDraw.obj
 0002:000f25d0       ??0b2RayCastCallback@@QAE@XZ 006065d0 f i AGKWindows:DebugDraw.obj
 0002:000f2600       ??0cFileSender@AGK@@QAE@I@Z 00606600 f   AGKWindows:Network.obj
 0002:000f2800       ??1cFileSender@AGK@@UAE@XZ 00606800 f   AGKWindows:Network.obj
 0002:000f2940       ?GetProgress@cFileSender@AGK@@QAEMXZ 00606940 f   AGKWindows:Network.obj
 0002:000f2a10       ?GetRemoteName@cFileSender@AGK@@QAEHAAVuString@2@@Z 00606a10 f   AGKWindows:Network.obj
 0002:000f2af0       ?GetCurrentFile@cFileSender@AGK@@QAEHAAVuString@2@@Z 00606af0 f   AGKWindows:Network.obj
 0002:000f2b60       ?Reset@cFileSender@AGK@@QAEXI@Z 00606b60 f   AGKWindows:Network.obj
 0002:000f2d60       ?ConnectTo@cFileSender@AGK@@QAE_NPBDII@Z 00606d60 f   AGKWindows:Network.obj
 0002:000f2ee0       ?SetReceiver@cFileSender@AGK@@QAEXPAVAGKSocket@2@@Z 00606ee0 f   AGKWindows:Network.obj
 0002:000f3020       ?AddFile@cFileSender@AGK@@QAE_NPBD@Z 00607020 f   AGKWindows:Network.obj
 0002:000f3130       ?Stop@cFileSender@AGK@@UAEXXZ 00607130 f   AGKWindows:Network.obj
 0002:000f3170       ?Run@cFileSender@AGK@@MAEIXZ 00607170 f   AGKWindows:Network.obj
 0002:000f39a0       ??0cFileBroadcaster@AGK@@QAE@IPBDII@Z 006079a0 f   AGKWindows:Network.obj
 0002:000f3c50       ??1cFileBroadcaster@AGK@@UAE@XZ 00607c50 f   AGKWindows:Network.obj
 0002:000f3d70       ?GetNumClients@cFileBroadcaster@AGK@@QAEIXZ 00607d70 f   AGKWindows:Network.obj
 0002:000f3e40       ?GetProgress@cFileBroadcaster@AGK@@QAEHIPAVuString@2@0PAM@Z 00607e40 f   AGKWindows:Network.obj
 0002:000f3f80       ?Start@cFileBroadcaster@AGK@@UAEXXZ 00607f80 f   AGKWindows:Network.obj
 0002:000f4060       ?Stop@cFileBroadcaster@AGK@@UAEXXZ 00608060 f   AGKWindows:Network.obj
 0002:000f41b0       ?StopBroadcasting@cFileBroadcaster@AGK@@QAEXXZ 006081b0 f   AGKWindows:Network.obj
 0002:000f4200       ?ResumeBroadcasting@cFileBroadcaster@AGK@@QAEXXZ 00608200 f   AGKWindows:Network.obj
 0002:000f4250       ?AddFile@cFileBroadcaster@AGK@@QAE_NPBD@Z 00608250 f   AGKWindows:Network.obj
 0002:000f4370       ?Run@cFileBroadcaster@AGK@@MAEIXZ 00608370 f   AGKWindows:Network.obj
 0002:000f4630       ??0cFileReceiver@AGK@@QAE@XZ 00608630 f   AGKWindows:Network.obj
 0002:000f46a0       ??1cFileReceiver@AGK@@UAE@XZ 006086a0 f   AGKWindows:Network.obj
 0002:000f4770       ?Stop@cFileReceiver@AGK@@UAEXXZ 00608770 f   AGKWindows:Network.obj
 0002:000f47b0       ?GetProgress@cFileReceiver@AGK@@QAEMXZ 006087b0 f   AGKWindows:Network.obj
 0002:000f4850       ?ConnectTo@cFileReceiver@AGK@@QAE_NPBDII@Z 00608850 f   AGKWindows:Network.obj
 0002:000f49d0       ?SetSender@cFileReceiver@AGK@@QAEXPAVAGKSocket@2@@Z 006089d0 f   AGKWindows:Network.obj
 0002:000f4b10       ?Reset@cFileReceiver@AGK@@QAEXXZ 00608b10 f   AGKWindows:Network.obj
 0002:000f4c10       ?Run@cFileReceiver@AGK@@MAEIXZ 00608c10 f   AGKWindows:Network.obj
 0002:000f55f0       ??0AGKPacket@AGK@@QAE@XZ   006095f0 f   AGKWindows:Network.obj
 0002:000f5620       ?Copy@AGKPacket@AGK@@QAEXPBV12@@Z 00609620 f   AGKWindows:Network.obj
 0002:000f5680       ?AddData@AGKPacket@AGK@@QAEXPBDI@Z 00609680 f   AGKWindows:Network.obj
 0002:000f5760       ?AddString@AGKPacket@AGK@@QAEXPBD@Z 00609760 f   AGKWindows:Network.obj
 0002:000f5830       ?AddChar@AGKPacket@AGK@@QAEXD@Z 00609830 f   AGKWindows:Network.obj
 0002:000f5900       ?AddUInt@AGKPacket@AGK@@QAEXI@Z 00609900 f   AGKWindows:Network.obj
 0002:000f59d0       ?AddInt@AGKPacket@AGK@@QAEXH@Z 006099d0 f   AGKWindows:Network.obj
 0002:000f5aa0       ?AddFloat@AGKPacket@AGK@@QAEXM@Z 00609aa0 f   AGKWindows:Network.obj
 0002:000f5b70       ?GetPos@AGKPacket@AGK@@QBEIXZ 00609b70 f   AGKWindows:Network.obj
 0002:000f5b90       ?SetPos@AGKPacket@AGK@@QAEXI@Z 00609b90 f   AGKWindows:Network.obj
 0002:000f5c30       ?GetData@AGKPacket@AGK@@QAEIPADI@Z 00609c30 f   AGKWindows:Network.obj
 0002:000f5cd0       ?GetString@AGKPacket@AGK@@QAEHAAVuString@2@@Z 00609cd0 f   AGKWindows:Network.obj
 0002:000f5d90       ?GetChar@AGKPacket@AGK@@QAEDXZ 00609d90 f   AGKWindows:Network.obj
 0002:000f5df0       ?GetInt@AGKPacket@AGK@@QAEHXZ 00609df0 f   AGKWindows:Network.obj
 0002:000f5e60       ?GetUInt@AGKPacket@AGK@@QAEIXZ 00609e60 f   AGKWindows:Network.obj
 0002:000f5ed0       ?GetFloat@AGKPacket@AGK@@QAEMXZ 00609ed0 f   AGKWindows:Network.obj
 0002:000f5f40       ??0cNetworkClient@AGK@@QAE@XZ 00609f40 f   AGKWindows:Network.obj
 0002:000f60a0       ??1cNetworkClient@AGK@@QAE@XZ 0060a0a0 f   AGKWindows:Network.obj
 0002:000f61e0       ?GetVariableI@cNetworkClient@AGK@@QAEHPBD_N@Z 0060a1e0 f   AGKWindows:Network.obj
 0002:000f6350       ?GetVariableF@cNetworkClient@AGK@@QAEMPBD_N@Z 0060a350 f   AGKWindows:Network.obj
 0002:000f64c0       ?GetVariableType@cNetworkClient@AGK@@QAEIPBD@Z 0060a4c0 f   AGKWindows:Network.obj
 0002:000f65b0       ?GetVariableExists@cNetworkClient@AGK@@QAEIPBD@Z 0060a5b0 f   AGKWindows:Network.obj
 0002:000f66a0       ?GetVariableType@cNetworkClient@AGK@@QAEII@Z 0060a6a0 f   AGKWindows:Network.obj
 0002:000f6790       ?SetVariableI@cNetworkClient@AGK@@QAEXPBDHH@Z 0060a790 f   AGKWindows:Network.obj
 0002:000f6a30       ?SetVariableF@cNetworkClient@AGK@@QAEXPBDMH@Z 0060aa30 f   AGKWindows:Network.obj
 0002:000f6cd0       ?SetVariableI@cNetworkClient@AGK@@QAEXIHH@Z 0060acd0 f   AGKWindows:Network.obj
 0002:000f6e70       ?SetVariableF@cNetworkClient@AGK@@QAEXIMH@Z 0060ae70 f   AGKWindows:Network.obj
 0002:000f7010       ??0cNetwork@AGK@@QAE@XZ    0060b010 f   AGKWindows:Network.obj
 0002:000f7230       ??1cNetwork@AGK@@UAE@XZ    0060b230 f   AGKWindows:Network.obj
 0002:000f7770       ?Reset@cNetwork@AGK@@QAEXXZ 0060b770 f   AGKWindows:Network.obj
 0002:000f7c10       ?NewClient@cNetwork@AGK@@IAEXPAVAGKSocket@2@@Z 0060bc10 f   AGKWindows:Network.obj
 0002:000f8250       ?CheckMessagesServer@cNetwork@AGK@@IAEXXZ 0060c250 f   AGKWindows:Network.obj
 0002:000f88e0       ?SendChangesServer@cNetwork@AGK@@IAEXXZ 0060c8e0 f   AGKWindows:Network.obj
 0002:000f9080       ?SendDisconnects@cNetwork@AGK@@IAEXXZ 0060d080 f   AGKWindows:Network.obj
 0002:000f9480       ?UpdateServer@cNetwork@AGK@@IAEXXZ 0060d480 f   AGKWindows:Network.obj
 0002:000f9540       ?ConnectClient@cNetwork@AGK@@IAEXXZ 0060d540 f   AGKWindows:Network.obj
 0002:000f9eb0       ?CheckMessagesClient@cNetwork@AGK@@IAEXXZ 0060deb0 f   AGKWindows:Network.obj
 0002:000faca0       ?SendChangesClient@cNetwork@AGK@@IAEXXZ 0060eca0 f   AGKWindows:Network.obj
 0002:000fb190       ?UpdateClient@cNetwork@AGK@@IAEXXZ 0060f190 f   AGKWindows:Network.obj
 0002:000fb1d0       ?Stop@cNetwork@AGK@@UAEXXZ 0060f1d0 f   AGKWindows:Network.obj
 0002:000fb2c0       ?Run@cNetwork@AGK@@MAEIXZ  0060f2c0 f   AGKWindows:Network.obj
 0002:000fb480       ?HostNetwork@cNetwork@AGK@@QAEXPBD0I@Z 0060f480 f   AGKWindows:Network.obj
 0002:000fb7f0       ?NoMoreConnections@cNetwork@AGK@@QAEXXZ 0060f7f0 f   AGKWindows:Network.obj
 0002:000fb860       ?JoinCommon@cNetwork@AGK@@IAEXXZ 0060f860 f   AGKWindows:Network.obj
 0002:000fb970       ?JoinNetwork@cNetwork@AGK@@QAEXPBD0@Z 0060f970 f   AGKWindows:Network.obj
 0002:000fba40       ?JoinNetwork@cNetwork@AGK@@QAEXPBDI0@Z 0060fa40 f   AGKWindows:Network.obj
 0002:000fbab0       ?CloseNetwork@cNetwork@AGK@@QAEXXZ 0060fab0 f   AGKWindows:Network.obj
 0002:000fbb10       ?SetLatency@cNetwork@AGK@@QAEXI@Z 0060fb10 f   AGKWindows:Network.obj
 0002:000fbb50       ?GetNumClients@cNetwork@AGK@@QAEIXZ 0060fb50 f   AGKWindows:Network.obj
 0002:000fbba0       ?GetNumActiveClients@cNetwork@AGK@@QAEIXZ 0060fba0 f   AGKWindows:Network.obj
 0002:000fbca0       ?GetFirstClient@cNetwork@AGK@@QAEIXZ 0060fca0 f   AGKWindows:Network.obj
 0002:000fbda0       ?GetNextClient@cNetwork@AGK@@QAEIXZ 0060fda0 f   AGKWindows:Network.obj
 0002:000fbe30       ?GetClientDisconnected@cNetwork@AGK@@QAEII@Z 0060fe30 f   AGKWindows:Network.obj
 0002:000fbf70       ?DeleteDisconnectedClient@cNetwork@AGK@@QAEXI@Z 0060ff70 f   AGKWindows:Network.obj
 0002:000fc0e0       ?GetClientName@cNetwork@AGK@@QAEHIAAVuString@2@@Z 006100e0 f   AGKWindows:Network.obj
 0002:000fc230       ?GetClientPing@cNetwork@AGK@@QAEMI@Z 00610230 f   AGKWindows:Network.obj
 0002:000fc360       ?SetLocalVariableI@cNetwork@AGK@@QAEXPBDHH@Z 00610360 f   AGKWindows:Network.obj
 0002:000fc3b0       ?SetLocalVariableF@cNetwork@AGK@@QAEXPBDMH@Z 006103b0 f   AGKWindows:Network.obj
 0002:000fc400       ?GetClientVariableI@cNetwork@AGK@@QAEHIPBD@Z 00610400 f   AGKWindows:Network.obj
 0002:000fc550       ?GetClientVariableF@cNetwork@AGK@@QAEMIPBD@Z 00610550 f   AGKWindows:Network.obj
 0002:000fc690       ?SendMessage@cNetwork@AGK@@QAEXIPAVcNetworkMessage@2@@Z 00610690 f   AGKWindows:Network.obj
 0002:000fc850       ?GetMessage@cNetwork@AGK@@QAEPAVcNetworkMessage@2@XZ 00610850 f   AGKWindows:Network.obj
 0002:000fc920       ?SetClientUserData@cNetwork@AGK@@QAEXIIH@Z 00610920 f   AGKWindows:Network.obj
 0002:000fca80       ?GetClientUserData@cNetwork@AGK@@QAEHII@Z 00610a80 f   AGKWindows:Network.obj
 0002:000fcbf0       ?Update@cNetwork@AGK@@QAEXXZ 00610bf0 f   AGKWindows:Network.obj
 0002:000ff670       ??_EcFileSender@AGK@@UAEPAXI@Z 00613670 f i AGKWindows:Network.obj
 0002:000ff670       ??_GcFileSender@AGK@@UAEPAXI@Z 00613670 f i AGKWindows:Network.obj
 0002:000ff6c0       ??_EuString@AGK@@QAEPAXI@Z 006136c0 f i AGKWindows:Network.obj
 0002:000ff760       ??_GcLock@AGK@@QAEPAXI@Z   00613760 f i AGKWindows:Network.obj
 0002:000ff7b0       ?GetProgress@AGKSocket@AGK@@QAEMXZ 006137b0 f i AGKWindows:Network.obj
 0002:000ff7d0       ?IsFinished@cFileSender@AGK@@QAE_NXZ 006137d0 f i AGKWindows:Network.obj
 0002:000ff810       ??_GcFileBroadcaster@AGK@@UAEPAXI@Z 00613810 f i AGKWindows:Network.obj
 0002:000ff810       ??_EcFileBroadcaster@AGK@@UAEPAXI@Z 00613810 f i AGKWindows:Network.obj
 0002:000ff860       ??_GcFileReceiver@AGK@@UAEPAXI@Z 00613860 f i AGKWindows:Network.obj
 0002:000ff860       ??_EcFileReceiver@AGK@@UAEPAXI@Z 00613860 f i AGKWindows:Network.obj
 0002:000ff8b0       ??_GcNetworkVariable@AGK@@QAEPAXI@Z 006138b0 f i AGKWindows:Network.obj
 0002:000ff900       ??1cNetworkVariable@AGK@@QAE@XZ 00613900 f i AGKWindows:Network.obj
 0002:000ff930       ??0cNetworkVariable@AGK@@QAE@XZ 00613930 f i AGKWindows:Network.obj
 0002:000ff9a0       ??_EcNetwork@AGK@@UAEPAXI@Z 006139a0 f i AGKWindows:Network.obj
 0002:000ff9a0       ??_GcNetwork@AGK@@UAEPAXI@Z 006139a0 f i AGKWindows:Network.obj
 0002:000ff9f0       ??_GcNetworkClient@AGK@@QAEPAXI@Z 006139f0 f i AGKWindows:Network.obj
 0002:000ffa40       ?GetDisconnected@AGKSocket@AGK@@QAE_NXZ 00613a40 f i AGKWindows:Network.obj
 0002:000ffa60       ?GetVarLock@cNetworkClient@AGK@@QAEPAVcLock@2@XZ 00613a60 f i AGKWindows:Network.obj
 0002:000ffa80       ?GetNumVars@cNetworkClient@AGK@@QAEIXZ 00613a80 f i AGKWindows:Network.obj
 0002:000ffaa0       ?GetVars@cNetworkClient@AGK@@QAEPAPAVcNetworkVariable@2@XZ 00613aa0 f i AGKWindows:Network.obj
 0002:000ffac0       ?CompareTo@uString@AGK@@QBEHABV12@@Z 00613ac0 f i AGKWindows:Network.obj
 0002:000ffb00       ??0?$cHashedList@VcNetworkVariable@AGK@@@AGK@@QAE@I@Z 00613b00 f i AGKWindows:Network.obj
 0002:000ffc30       ??1?$cHashedList@VcNetworkVariable@AGK@@@AGK@@QAE@XZ 00613c30 f i AGKWindows:Network.obj
 0002:000ffc90       ?AddItem@?$cHashedList@VcNetworkVariable@AGK@@@AGK@@QAEXPAVcNetworkVariable@2@PBD@Z 00613c90 f i AGKWindows:Network.obj
 0002:000ffe30       ?GetItem@?$cHashedList@VcNetworkVariable@AGK@@@AGK@@QAEPAVcNetworkVariable@2@PBD@Z 00613e30 f i AGKWindows:Network.obj
 0002:000ffef0       ?ClearAll@?$cHashedList@VcNetworkVariable@AGK@@@AGK@@QAEXXZ 00613ef0 f i AGKWindows:Network.obj
 0002:000ffff0       ??0?$cHashedList@I@AGK@@QAE@I@Z 00613ff0 f i AGKWindows:Network.obj
 0002:00100120       ??1?$cHashedList@I@AGK@@QAE@XZ 00614120 f i AGKWindows:Network.obj
 0002:00100180       ?AddItem@?$cHashedList@I@AGK@@QAEXPAII@Z 00614180 f i AGKWindows:Network.obj
 0002:001002e0       ?GetItem@?$cHashedList@I@AGK@@QAEPAII@Z 006142e0 f i AGKWindows:Network.obj
 0002:00100370       ?RemoveItem@?$cHashedList@I@AGK@@QAEPAII@Z 00614370 f i AGKWindows:Network.obj
 0002:00100570       ??_GcHashedItem@?$cHashedList@VcNetworkVariable@AGK@@@AGK@@QAEPAXI@Z 00614570 f i AGKWindows:Network.obj
 0002:001005c0       ??_GcHashedItem@?$cHashedList@I@AGK@@QAEPAXI@Z 006145c0 f i AGKWindows:Network.obj
 0002:00100610       ??0cHashedItem@?$cHashedList@VcNetworkVariable@AGK@@@AGK@@QAE@XZ 00614610 f i AGKWindows:Network.obj
 0002:00100660       ??1cHashedItem@?$cHashedList@VcNetworkVariable@AGK@@@AGK@@QAE@XZ 00614660 f i AGKWindows:Network.obj
 0002:001006c0       ??0cHashedItem@?$cHashedList@I@AGK@@QAE@XZ 006146c0 f i AGKWindows:Network.obj
 0002:00100710       ??1cHashedItem@?$cHashedList@I@AGK@@QAE@XZ 00614710 f i AGKWindows:Network.obj
 0002:00100770       ?HashIndex@?$cHashedList@VcNetworkVariable@AGK@@@AGK@@IAEIPBD@Z 00614770 f i AGKWindows:Network.obj
 0002:00100810       ?HashIndex@?$cHashedList@I@AGK@@IAEII@Z 00614810 f i AGKWindows:Network.obj
 0002:00100840       ?ClearAll@?$cHashedList@I@AGK@@QAEXXZ 00614840 f i AGKWindows:Network.obj
 0002:00100934       _DirectInput8Create@20     00614934 f   AGKWindows:DINPUT8.dll
 0002:0010093a       _WSAStartup@8              0061493a f   AGKWindows:WSOCK32.dll
 0002:00100940       _WSACleanup@0              00614940 f   AGKWindows:WSOCK32.dll
 0002:00100950       ??0CInitGDIPlus@CImage@ATL@@QAE@XZ 00614950 f i AGKWindows:atlimage2.obj
 0002:001009c0       _HRESULT_FROM_WIN32        006149c0 f i AGKWindows:atlimage2.obj
 0002:00100a00       ??1CInitGDIPlus@CImage@ATL@@QAE@XZ 00614a00 f i AGKWindows:atlimage2.obj
 0002:00100a30       ??0CTraceCategory@ATL@@QAE@PBDI@Z 00614a30 f i AGKWindows:atltrace.obj
 0002:00100a90       ?ChangeCategory@CTrace@ATL@@QAE_NKIW4ATLTRACESTATUS@2@@Z 00614a90 f i AGKWindows:atltrace.obj
 0002:00100ad0       ?RegisterCategory@CTrace@ATL@@QAEKPBD@Z 00614ad0 f i AGKWindows:atltrace.obj
 0002:00100b00       ??0CAtlAllocator@@QAE@XZ   00614b00 f i AGKWindows:Externs.obj
 0002:00100b60       ??0CTraceSnapshot@@QAE@XZ  00614b60 f i AGKWindows:Externs.obj
 0002:00100b90       ??0?$CSimpleArray@UCModuleInfo@CTraceSnapshot@@V?$CSimpleArrayEqualHelper@UCModuleInfo@CTraceSnapshot@@@ATL@@@ATL@@QAE@XZ 00614b90 f i AGKWindows:Externs.obj
 0002:00100bd0       ??0?$CSimpleArray@KV?$CSimpleArrayEqualHelper@K@ATL@@@ATL@@QAE@XZ 00614bd0 f i AGKWindows:Externs.obj
 0002:00100d40       ?_AtlRaiseException@ATL@@YAXKK@Z 00614d40 f i AGKWindows:Externs.obj
 0002:00100d60       ??0CTrace@ATL@@AAE@P6AHHPBDH00ZZ@Z 00614d60 f i AGKWindows:Externs.obj
 0002:00100db0       ??1CAtlAllocator@@QAE@XZ   00614db0 f i AGKWindows:Externs.obj
 0002:00100de0       ??1CTraceSnapshot@@QAE@XZ  00614de0 f i AGKWindows:Externs.obj
 0002:00100e10       ??1?$CSimpleArray@UCModuleInfo@CTraceSnapshot@@V?$CSimpleArrayEqualHelper@UCModuleInfo@CTraceSnapshot@@@ATL@@@ATL@@QAE@XZ 00614e10 f i AGKWindows:Externs.obj
 0002:00100e30       ??1?$CSimpleArray@KV?$CSimpleArrayEqualHelper@K@ATL@@@ATL@@QAE@XZ 00614e30 f i AGKWindows:Externs.obj
 0002:00100e50       ?RemoveAll@?$CSimpleArray@UCModuleInfo@CTraceSnapshot@@V?$CSimpleArrayEqualHelper@UCModuleInfo@CTraceSnapshot@@@ATL@@@ATL@@QAEXXZ 00614e50 f i AGKWindows:Externs.obj
 0002:00100ed0       ?RemoveAll@?$CSimpleArray@KV?$CSimpleArrayEqualHelper@K@ATL@@@ATL@@QAEXXZ 00614ed0 f i AGKWindows:Externs.obj
 0002:00100f50       ??1CTrace@ATL@@AAE@XZ      00614f50 f i AGKWindows:Externs.obj
 0002:00100f70       ?NotifyTool@ATL@@YGXXZ     00614f70 f   AGKWindows:AtlDebugAPI.obj
 0002:00100fc0       _AtlTraceRegister@8        00614fc0 f   AGKWindows:AtlDebugAPI.obj
 0002:00101050       _AtlTraceUnregister@4      00615050 f   AGKWindows:AtlDebugAPI.obj
 0002:00101090       _AtlTraceRegisterCategoryA@8 00615090 f   AGKWindows:AtlDebugAPI.obj
 0002:00101110       _AtlTraceRegisterCategoryU@8 00615110 f   AGKWindows:AtlDebugAPI.obj
 0002:00101170       _AtlTraceModifyProcess@20  00615170 f   AGKWindows:AtlDebugAPI.obj
 0002:00101240       ?GetProcess@CAtlAllocator@@QBEPAVCAtlTraceProcess@@XZ 00615240 f i AGKWindows:AtlDebugAPI.obj
 0002:00101260       _AtlTraceModifyModule@16   00615260 f   AGKWindows:AtlDebugAPI.obj
 0002:00101380       _AtlTraceModifyCategory@16 00615380 f   AGKWindows:AtlDebugAPI.obj
 0002:00101460       _AtlTraceGetProcess@20     00615460 f   AGKWindows:AtlDebugAPI.obj
 0002:00101570       _AtlTraceGetModule@16      00615570 f   AGKWindows:AtlDebugAPI.obj
 0002:001016c0       _AtlTraceGetCategory@16    006156c0 f   AGKWindows:AtlDebugAPI.obj
 0002:001017e0       _AtlTraceGetUpdateEventNameA@4 006157e0 f   AGKWindows:AtlDebugAPI.obj
 0002:00101820       _AtlTraceGetUpdateEventNameA_s@8 00615820 f   AGKWindows:AtlDebugAPI.obj
 0002:00101860       _AtlTraceGetUpdateEventNameU@4 00615860 f   AGKWindows:AtlDebugAPI.obj
 0002:001018e0       _AtlTraceGetUpdateEventNameU_s@8 006158e0 f   AGKWindows:AtlDebugAPI.obj
 0002:00101970       _AtlTraceVA                00615970 f   AGKWindows:AtlDebugAPI.obj
 0002:00101d50       ?Name@CAtlTraceCategory@@QBEPB_WXZ 00615d50 f i AGKWindows:AtlDebugAPI.obj
 0002:00101d70       _AtlTraceVU                00615d70 f   AGKWindows:AtlDebugAPI.obj
 0002:00102190       _AtlTraceOpenProcess@4     00616190 f   AGKWindows:AtlDebugAPI.obj
 0002:001022c0       ??_GCAtlAllocator@@QAEPAXI@Z 006162c0 f i AGKWindows:AtlDebugAPI.obj
 0002:00102300       _AtlTraceCloseProcess@4    00616300 f   AGKWindows:AtlDebugAPI.obj
 0002:001023c0       _AtlTraceSnapshotProcess@4 006163c0 f   AGKWindows:AtlDebugAPI.obj
 0002:00102450       _AtlTraceGetProcessInfo@8  00616450 f   AGKWindows:AtlDebugAPI.obj
 0002:00102660       ?Path@CAtlTraceModuleInfo@@QBEPB_WXZ 00616660 f i AGKWindows:AtlDebugAPI.obj
 0002:00102680       ?Name@CAtlTraceModuleInfo@@QBEPB_WXZ 00616680 f i AGKWindows:AtlDebugAPI.obj
 0002:001026a0       ?Id@CAtlTraceProcess@@QBEKXZ 006166a0 f i AGKWindows:AtlDebugAPI.obj
 0002:001026c0       _AtlTraceGetModuleInfo@12  006166c0 f   AGKWindows:AtlDebugAPI.obj
 0002:001028c0       _AtlTraceGetCategoryInfo@16 006168c0 f   AGKWindows:AtlDebugAPI.obj
 0002:00102d20       ?CrtDbgReport@CAtlTraceModule@@QBEP6AHHPBDH00ZZXZ 00616d20 f i AGKWindows:AtlDebugAPI.obj
 0002:00102d40       ?_IsTracingEnabled@ATL@@YA_NKKI@Z 00616d40 f   AGKWindows:AtlDebugAPI.obj
 0002:00102d80       ?GetSize@?$CSimpleArray@UCModuleInfo@CTraceSnapshot@@V?$CSimpleArrayEqualHelper@UCModuleInfo@CTraceSnapshot@@@ATL@@@ATL@@QBEHXZ 00616d80 f i AGKWindows:AtlDebugAPI.obj
 0002:00102da0       ??A?$CSimpleArray@UCModuleInfo@CTraceSnapshot@@V?$CSimpleArrayEqualHelper@UCModuleInfo@CTraceSnapshot@@@ATL@@@ATL@@QAEAAUCModuleInfo@CTraceSnapshot@@H@Z 00616da0 f i AGKWindows:AtlDebugAPI.obj
 0002:00102e30       ?strcpy_s@Checked@ATL@@YAXPADIPBD@Z 00616e30 f i AGKWindows:AtlDebugAPI.obj
 0002:00102e60       ?wcscpy_s@Checked@ATL@@YAXPA_WIPB_W@Z 00616e60 f i AGKWindows:AtlDebugAPI.obj
 0002:00102e8e       _gluBuild2DMipmaps@28      00616e8e f   AGKWindows:GLU32.dll
 0002:00102ea0       ??0CSize@@QAE@XZ           00616ea0 f   AGKWindows:atltypes.obj
 0002:00102ed0       ??0CSize@@QAE@HH@Z         00616ed0 f   AGKWindows:atltypes.obj
 0002:00102f00       ??0CSize@@QAE@UtagSIZE@@@Z 00616f00 f   AGKWindows:atltypes.obj
 0002:00102f30       ??0CSize@@QAE@UtagPOINT@@@Z 00616f30 f   AGKWindows:atltypes.obj
 0002:00102f60       ??0CSize@@QAE@K@Z          00616f60 f   AGKWindows:atltypes.obj
 0002:00102fb0       ??8CSize@@QBEHUtagSIZE@@@Z 00616fb0 f   AGKWindows:atltypes.obj
 0002:00103000       ??9CSize@@QBEHUtagSIZE@@@Z 00617000 f   AGKWindows:atltypes.obj
 0002:00103050       ??YCSize@@QAEXUtagSIZE@@@Z 00617050 f   AGKWindows:atltypes.obj
 0002:00103090       ??ZCSize@@QAEXUtagSIZE@@@Z 00617090 f   AGKWindows:atltypes.obj
 0002:001030d0       ?SetSize@CSize@@QAEXHH@Z   006170d0 f   AGKWindows:atltypes.obj
 0002:00103100       ??HCSize@@QBE?AV0@UtagSIZE@@@Z 00617100 f   AGKWindows:atltypes.obj
 0002:00103140       ??GCSize@@QBE?AV0@UtagSIZE@@@Z 00617140 f   AGKWindows:atltypes.obj
 0002:00103180       ??GCSize@@QBE?AV0@XZ       00617180 f   AGKWindows:atltypes.obj
 0002:001031c0       ??HCSize@@QBE?AVCPoint@@UtagPOINT@@@Z 006171c0 f   AGKWindows:atltypes.obj
 0002:00103200       ??GCSize@@QBE?AVCPoint@@UtagPOINT@@@Z 00617200 f   AGKWindows:atltypes.obj
 0002:00103240       ??HCSize@@QBE?AVCRect@@PBUtagRECT@@@Z 00617240 f   AGKWindows:atltypes.obj
 0002:001032b0       ??GCSize@@QBE?AVCRect@@PBUtagRECT@@@Z 006172b0 f   AGKWindows:atltypes.obj
 0002:00103320       ??0CPoint@@QAE@XZ          00617320 f   AGKWindows:atltypes.obj
 0002:00103350       ??0CPoint@@QAE@HH@Z        00617350 f   AGKWindows:atltypes.obj
 0002:00103380       ??0CPoint@@QAE@UtagPOINT@@@Z 00617380 f   AGKWindows:atltypes.obj
 0002:001033b0       ??0CPoint@@QAE@UtagSIZE@@@Z 006173b0 f   AGKWindows:atltypes.obj
 0002:001033e0       ??0CPoint@@QAE@J@Z         006173e0 f   AGKWindows:atltypes.obj
 0002:00103430       ?Offset@CPoint@@QAEXHH@Z   00617430 f   AGKWindows:atltypes.obj
 0002:00103470       ?Offset@CPoint@@QAEXUtagPOINT@@@Z 00617470 f   AGKWindows:atltypes.obj
 0002:001034b0       ?Offset@CPoint@@QAEXUtagSIZE@@@Z 006174b0 f   AGKWindows:atltypes.obj
 0002:001034f0       ?SetPoint@CPoint@@QAEXHH@Z 006174f0 f   AGKWindows:atltypes.obj
 0002:00103520       ??8CPoint@@QBEHUtagPOINT@@@Z 00617520 f   AGKWindows:atltypes.obj
 0002:00103570       ??9CPoint@@QBEHUtagPOINT@@@Z 00617570 f   AGKWindows:atltypes.obj
 0002:001035c0       ??YCPoint@@QAEXUtagSIZE@@@Z 006175c0 f   AGKWindows:atltypes.obj
 0002:00103600       ??ZCPoint@@QAEXUtagSIZE@@@Z 00617600 f   AGKWindows:atltypes.obj
 0002:00103640       ??YCPoint@@QAEXUtagPOINT@@@Z 00617640 f   AGKWindows:atltypes.obj
 0002:00103680       ??ZCPoint@@QAEXUtagPOINT@@@Z 00617680 f   AGKWindows:atltypes.obj
 0002:001036c0       ??HCPoint@@QBE?AV0@UtagSIZE@@@Z 006176c0 f   AGKWindows:atltypes.obj
 0002:00103700       ??GCPoint@@QBE?AV0@UtagSIZE@@@Z 00617700 f   AGKWindows:atltypes.obj
 0002:00103740       ??GCPoint@@QBE?AV0@XZ      00617740 f   AGKWindows:atltypes.obj
 0002:00103780       ??HCPoint@@QBE?AV0@UtagPOINT@@@Z 00617780 f   AGKWindows:atltypes.obj
 0002:001037c0       ??GCPoint@@QBE?AVCSize@@UtagPOINT@@@Z 006177c0 f   AGKWindows:atltypes.obj
 0002:00103800       ??HCPoint@@QBE?AVCRect@@PBUtagRECT@@@Z 00617800 f   AGKWindows:atltypes.obj
 0002:00103870       ??GCPoint@@QBE?AVCRect@@PBUtagRECT@@@Z 00617870 f   AGKWindows:atltypes.obj
 0002:001038e0       ??0CRect@@QAE@XZ           006178e0 f   AGKWindows:atltypes.obj
 0002:00103930       ??0CRect@@QAE@HHHH@Z       00617930 f   AGKWindows:atltypes.obj
 0002:00103980       ??0CRect@@QAE@ABUtagRECT@@@Z 00617980 f   AGKWindows:atltypes.obj
 0002:001039b0       ??0CRect@@QAE@PBUtagRECT@@@Z 006179b0 f   AGKWindows:atltypes.obj
 0002:001039e0       ??0CRect@@QAE@UtagPOINT@@UtagSIZE@@@Z 006179e0 f   AGKWindows:atltypes.obj
 0002:00103a30       ??0CRect@@QAE@UtagPOINT@@0@Z 00617a30 f   AGKWindows:atltypes.obj
 0002:00103a80       ?Width@CRect@@QBEHXZ       00617a80 f   AGKWindows:atltypes.obj
 0002:00103aa0       ?Height@CRect@@QBEHXZ      00617aa0 f   AGKWindows:atltypes.obj
 0002:00103ac0       ?Size@CRect@@QBE?AVCSize@@XZ 00617ac0 f   AGKWindows:atltypes.obj
 0002:00103b00       ?TopLeft@CRect@@QAEAAVCPoint@@XZ 00617b00 f   AGKWindows:atltypes.obj
 0002:00103b20       ?BottomRight@CRect@@QAEAAVCPoint@@XZ 00617b20 f   AGKWindows:atltypes.obj
 0002:00103b40       ?TopLeft@CRect@@QBEABVCPoint@@XZ 00617b40 f   AGKWindows:atltypes.obj
 0002:00103b60       ?BottomRight@CRect@@QBEABVCPoint@@XZ 00617b60 f   AGKWindows:atltypes.obj
 0002:00103b80       ?CenterPoint@CRect@@QBE?AVCPoint@@XZ 00617b80 f   AGKWindows:atltypes.obj
 0002:00103bd0       ?SwapLeftRight@CRect@@QAEXXZ 00617bd0 f   AGKWindows:atltypes.obj
 0002:00103bf0       ?SwapLeftRight@CRect@@SGXPAUtagRECT@@@Z 00617bf0 f   AGKWindows:atltypes.obj
 0002:00103c30       ??BCRect@@QAEPAUtagRECT@@XZ 00617c30 f   AGKWindows:atltypes.obj
 0002:00103c50       ??BCRect@@QBEPBUtagRECT@@XZ 00617c50 f   AGKWindows:atltypes.obj
 0002:00103c70       ?IsRectEmpty@CRect@@QBEHXZ 00617c70 f   AGKWindows:atltypes.obj
 0002:00103c90       ?IsRectNull@CRect@@QBEHXZ  00617c90 f   AGKWindows:atltypes.obj
 0002:00103cf0       ?PtInRect@CRect@@QBEHUtagPOINT@@@Z 00617cf0 f   AGKWindows:atltypes.obj
 0002:00103d20       ?SetRect@CRect@@QAEXHHHH@Z 00617d20 f   AGKWindows:atltypes.obj
 0002:00103d60       ?SetRect@CRect@@QAEXUtagPOINT@@0@Z 00617d60 f   AGKWindows:atltypes.obj
 0002:00103da0       ?SetRectEmpty@CRect@@QAEXXZ 00617da0 f   AGKWindows:atltypes.obj
 0002:00103dc0       ?CopyRect@CRect@@QAEXPBUtagRECT@@@Z 00617dc0 f   AGKWindows:atltypes.obj
 0002:00103df0       ?EqualRect@CRect@@QBEHPBUtagRECT@@@Z 00617df0 f   AGKWindows:atltypes.obj
 0002:00103e20       ?InflateRect@CRect@@QAEXHH@Z 00617e20 f   AGKWindows:atltypes.obj
 0002:00103e50       ?InflateRect@CRect@@QAEXUtagSIZE@@@Z 00617e50 f   AGKWindows:atltypes.obj
 0002:00103e80       ?DeflateRect@CRect@@QAEXHH@Z 00617e80 f   AGKWindows:atltypes.obj
 0002:00103eb0       ?DeflateRect@CRect@@QAEXUtagSIZE@@@Z 00617eb0 f   AGKWindows:atltypes.obj
 0002:00103ee0       ?OffsetRect@CRect@@QAEXHH@Z 00617ee0 f   AGKWindows:atltypes.obj
 0002:00103f10       ?OffsetRect@CRect@@QAEXUtagPOINT@@@Z 00617f10 f   AGKWindows:atltypes.obj
 0002:00103f40       ?OffsetRect@CRect@@QAEXUtagSIZE@@@Z 00617f40 f   AGKWindows:atltypes.obj
 0002:00103f70       ?MoveToY@CRect@@QAEXH@Z    00617f70 f   AGKWindows:atltypes.obj
 0002:00103fb0       ?MoveToX@CRect@@QAEXH@Z    00617fb0 f   AGKWindows:atltypes.obj
 0002:00103ff0       ?MoveToXY@CRect@@QAEXHH@Z  00617ff0 f   AGKWindows:atltypes.obj
 0002:00104020       ?MoveToXY@CRect@@QAEXUtagPOINT@@@Z 00618020 f   AGKWindows:atltypes.obj
 0002:00104050       ?IntersectRect@CRect@@QAEHPBUtagRECT@@0@Z 00618050 f   AGKWindows:atltypes.obj
 0002:00104080       ?UnionRect@CRect@@QAEHPBUtagRECT@@0@Z 00618080 f   AGKWindows:atltypes.obj
 0002:001040b0       ??4CRect@@QAEXABUtagRECT@@@Z 006180b0 f   AGKWindows:atltypes.obj
 0002:001040e0       ??8CRect@@QBEHABUtagRECT@@@Z 006180e0 f   AGKWindows:atltypes.obj
 0002:00104110       ??9CRect@@QBEHABUtagRECT@@@Z 00618110 f   AGKWindows:atltypes.obj
 0002:00104140       ??YCRect@@QAEXUtagPOINT@@@Z 00618140 f   AGKWindows:atltypes.obj
 0002:00104170       ??YCRect@@QAEXUtagSIZE@@@Z 00618170 f   AGKWindows:atltypes.obj
 0002:001041a0       ??YCRect@@QAEXPBUtagRECT@@@Z 006181a0 f   AGKWindows:atltypes.obj
 0002:001041d0       ??ZCRect@@QAEXUtagPOINT@@@Z 006181d0 f   AGKWindows:atltypes.obj
 0002:00104200       ??ZCRect@@QAEXUtagSIZE@@@Z 00618200 f   AGKWindows:atltypes.obj
 0002:00104230       ??ZCRect@@QAEXPBUtagRECT@@@Z 00618230 f   AGKWindows:atltypes.obj
 0002:00104260       ??_4CRect@@QAEXABUtagRECT@@@Z 00618260 f   AGKWindows:atltypes.obj
 0002:00104290       ??_5CRect@@QAEXABUtagRECT@@@Z 00618290 f   AGKWindows:atltypes.obj
 0002:001042c0       ??HCRect@@QBE?AV0@UtagPOINT@@@Z 006182c0 f   AGKWindows:atltypes.obj
 0002:00104350       ??GCRect@@QBE?AV0@UtagPOINT@@@Z 00618350 f   AGKWindows:atltypes.obj
 0002:001043e0       ??HCRect@@QBE?AV0@UtagSIZE@@@Z 006183e0 f   AGKWindows:atltypes.obj
 0002:00104470       ??GCRect@@QBE?AV0@UtagSIZE@@@Z 00618470 f   AGKWindows:atltypes.obj
 0002:00104500       ??HCRect@@QBE?AV0@PBUtagRECT@@@Z 00618500 f   AGKWindows:atltypes.obj
 0002:00104570       ??GCRect@@QBE?AV0@PBUtagRECT@@@Z 00618570 f   AGKWindows:atltypes.obj
 0002:001045e0       ??ICRect@@QBE?AV0@ABUtagRECT@@@Z 006185e0 f   AGKWindows:atltypes.obj
 0002:00104660       ??UCRect@@QBE?AV0@ABUtagRECT@@@Z 00618660 f   AGKWindows:atltypes.obj
 0002:001046e0       ?SubtractRect@CRect@@QAEHPBUtagRECT@@0@Z 006186e0 f   AGKWindows:atltypes.obj
 0002:00104710       ?NormalizeRect@CRect@@QAEXXZ 00618710 f   AGKWindows:atltypes.obj
 0002:00104790       ?InflateRect@CRect@@QAEXPBUtagRECT@@@Z 00618790 f   AGKWindows:atltypes.obj
 0002:00104800       ?InflateRect@CRect@@QAEXHHHH@Z 00618800 f   AGKWindows:atltypes.obj
 0002:00104860       ?DeflateRect@CRect@@QAEXPBUtagRECT@@@Z 00618860 f   AGKWindows:atltypes.obj
 0002:001048d0       ?DeflateRect@CRect@@QAEXHHHH@Z 006188d0 f   AGKWindows:atltypes.obj
 0002:00104930       ?MulDiv@CRect@@QBE?AV1@HH@Z 00618930 f   AGKWindows:atltypes.obj
 0002:001049c0       ??0QRCodeReader@qrcode@zxing@@QAE@XZ 006189c0 f   AGKWindows:QRCodeReader.obj
 0002:00104a40       ?decode@QRCodeReader@qrcode@zxing@@UAE?AV?$Ref@VResult@zxing@@@3@V?$Ref@VBinaryBitmap@zxing@@@3@VDecodeHints@3@@Z 00618a40 f   AGKWindows:QRCodeReader.obj
 0002:00104d20       ??1QRCodeReader@qrcode@zxing@@UAE@XZ 00618d20 f   AGKWindows:QRCodeReader.obj
 0002:00104d90       ?getDecoder@QRCodeReader@qrcode@zxing@@IAEAAVDecoder@23@XZ 00618d90 f   AGKWindows:QRCodeReader.obj
 0002:00104eb0       ??0Reader@zxing@@IAE@XZ    00618eb0 f i AGKWindows:QRCodeReader.obj
 0002:00104ef0       ??0Counted@zxing@@QAE@XZ   00618ef0 f i AGKWindows:QRCodeReader.obj
 0002:00104f30       ??_ECounted@zxing@@UAEPAXI@Z 00618f30 f i AGKWindows:QRCodeReader.obj
 0002:00104f30       ??_GCounted@zxing@@UAEPAXI@Z 00618f30 f i AGKWindows:QRCodeReader.obj
 0002:00104f80       ??1Counted@zxing@@UAE@XZ   00618f80 f i AGKWindows:QRCodeReader.obj
 0002:00104fb0       ??_EReader@zxing@@UAEPAXI@Z 00618fb0 f i AGKWindows:QRCodeReader.obj
 0002:00104fb0       ??_GReader@zxing@@UAEPAXI@Z 00618fb0 f i AGKWindows:QRCodeReader.obj
 0002:00105000       ??_EQRCodeReader@qrcode@zxing@@UAEPAXI@Z 00619000 f i AGKWindows:QRCodeReader.obj
 0002:00105000       ??_GQRCodeReader@qrcode@zxing@@UAEPAXI@Z 00619000 f i AGKWindows:QRCodeReader.obj
 0002:00105050       ??1Detector@qrcode@zxing@@UAE@XZ 00619050 f i AGKWindows:QRCodeReader.obj
 0002:001050f0       ??1Decoder@qrcode@zxing@@QAE@XZ 006190f0 f i AGKWindows:QRCodeReader.obj
 0002:00105120       ??1?$ArrayRef@E@zxing@@UAE@XZ 00619120 f i AGKWindows:QRCodeReader.obj
 0002:001051d0       ??0?$vector@V?$Ref@VResultPoint@zxing@@@zxing@@V?$allocator@V?$Ref@VResultPoint@zxing@@@zxing@@@std@@@std@@QAE@ABV01@@Z 006191d0 f i AGKWindows:QRCodeReader.obj
 0002:00105350       ??1?$vector@V?$Ref@VResultPoint@zxing@@@zxing@@V?$allocator@V?$Ref@VResultPoint@zxing@@@zxing@@@std@@@std@@QAE@XZ 00619350 f i AGKWindows:QRCodeReader.obj
 0002:001053d0       ??1?$Ref@VBitMatrix@zxing@@@zxing@@QAE@XZ 006193d0 f i AGKWindows:QRCodeReader.obj
 0002:00105410       ??0?$Ref@VResult@zxing@@@zxing@@QAE@PAVResult@1@@Z 00619410 f i AGKWindows:QRCodeReader.obj
 0002:00105460       ??0?$Ref@VResult@zxing@@@zxing@@QAE@ABV01@@Z 00619460 f i AGKWindows:QRCodeReader.obj
 0002:001054b0       ??C?$Ref@VBinaryBitmap@zxing@@@zxing@@QBEPAVBinaryBitmap@1@XZ 006194b0 f i AGKWindows:QRCodeReader.obj
 0002:001054d0       ??1?$Ref@VDetectorResult@zxing@@@zxing@@QAE@XZ 006194d0 f i AGKWindows:QRCodeReader.obj
 0002:00105510       ??C?$Ref@VDetectorResult@zxing@@@zxing@@QBEPAVDetectorResult@1@XZ 00619510 f i AGKWindows:QRCodeReader.obj
 0002:00105530       ??1?$Ref@VDecoderResult@zxing@@@zxing@@QAE@XZ 00619530 f i AGKWindows:QRCodeReader.obj
 0002:00105570       ??C?$Ref@VDecoderResult@zxing@@@zxing@@QBEPAVDecoderResult@1@XZ 00619570 f i AGKWindows:QRCodeReader.obj
 0002:00105590       ??_G?$ArrayRef@E@zxing@@UAEPAXI@Z 00619590 f i AGKWindows:QRCodeReader.obj
 0002:00105590       ??_E?$ArrayRef@E@zxing@@UAEPAXI@Z 00619590 f i AGKWindows:QRCodeReader.obj
 0002:001055e0       ??1?$_Vector_const_iterator@V?$_Vector_val@V?$Ref@VResultPoint@zxing@@@zxing@@V?$allocator@V?$Ref@VResultPoint@zxing@@@zxing@@@std@@@std@@@std@@QAE@XZ 006195e0 f i AGKWindows:QRCodeReader.obj
 0002:00105610       ??1?$_Iterator012@Urandom_access_iterator_tag@std@@V?$Ref@VResultPoint@zxing@@@zxing@@HPBV34@ABV34@U_Iterator_base12@2@@std@@QAE@XZ 00619610 f i AGKWindows:QRCodeReader.obj
 0002:00105640       ??1_Iterator_base12@std@@QAE@XZ 00619640 f i AGKWindows:QRCodeReader.obj
 0002:00105710       ?_Orphan_me@_Iterator_base12@std@@QAEXXZ 00619710 f i AGKWindows:QRCodeReader.obj
 0002:001057c0       ?begin@?$vector@V?$Ref@VResultPoint@zxing@@@zxing@@V?$allocator@V?$Ref@VResultPoint@zxing@@@zxing@@@std@@@std@@QBE?AV?$_Vector_const_iterator@V?$_Vector_val@V?$Ref@VResultPoint@zxing@@@zxing@@V?$allocator@V?$Ref@VResultPoint@zxing@@@zxing@@@std@@@std@@@2@XZ 006197c0 f i AGKWindows:QRCodeReader.obj
 0002:00105820       ?end@?$vector@V?$Ref@VResultPoint@zxing@@@zxing@@V?$allocator@V?$Ref@VResultPoint@zxing@@@zxing@@@std@@@std@@QBE?AV?$_Vector_const_iterator@V?$_Vector_val@V?$Ref@VResultPoint@zxing@@@zxing@@V?$allocator@V?$Ref@VResultPoint@zxing@@@zxing@@@std@@@std@@@2@XZ 00619820 f i AGKWindows:QRCodeReader.obj
 0002:00105880       ?size@?$vector@V?$Ref@VResultPoint@zxing@@@zxing@@V?$allocator@V?$Ref@VResultPoint@zxing@@@zxing@@@std@@@std@@QBEIXZ 00619880 f i AGKWindows:QRCodeReader.obj
 0002:001058b0       ?_Buy@?$vector@V?$Ref@VResultPoint@zxing@@@zxing@@V?$allocator@V?$Ref@VResultPoint@zxing@@@zxing@@@std@@@std@@IAE_NI@Z 006198b0 f i AGKWindows:QRCodeReader.obj
 0002:00105970       ?_Tidy@?$vector@V?$Ref@VResultPoint@zxing@@@zxing@@V?$allocator@V?$Ref@VResultPoint@zxing@@@zxing@@@std@@@std@@IAEXXZ 00619970 f i AGKWindows:QRCodeReader.obj
 0002:00105a20       ??0?$_Vector_val@V?$Ref@VResultPoint@zxing@@@zxing@@V?$allocator@V?$Ref@VResultPoint@zxing@@@zxing@@@std@@@std@@QAE@V?$allocator@V?$Ref@VResultPoint@zxing@@@zxing@@@1@@Z 00619a20 f i AGKWindows:QRCodeReader.obj
 0002:00105b80       ??1?$_Vector_val@V?$Ref@VResultPoint@zxing@@@zxing@@V?$allocator@V?$Ref@VResultPoint@zxing@@@zxing@@@std@@@std@@QAE@XZ 00619b80 f i AGKWindows:QRCodeReader.obj
 0002:00105c90       ??0?$allocator@V?$Ref@VResultPoint@zxing@@@zxing@@@std@@QAE@ABV01@@Z 00619c90 f i AGKWindows:QRCodeReader.obj
 0002:00105cb0       ?reset@?$Ref@VResult@zxing@@@zxing@@QAEXPAVResult@2@@Z 00619cb0 f i AGKWindows:QRCodeReader.obj
 0002:00105d10       ?max_size@?$vector@V?$Ref@VResultPoint@zxing@@@zxing@@V?$allocator@V?$Ref@VResultPoint@zxing@@@zxing@@@std@@@std@@QBEIXZ 00619d10 f i AGKWindows:QRCodeReader.obj
 0002:00105d40       ?_Destroy@?$vector@V?$Ref@VResultPoint@zxing@@@zxing@@V?$allocator@V?$Ref@VResultPoint@zxing@@@zxing@@@std@@@std@@IAEXPAV?$Ref@VResultPoint@zxing@@@zxing@@0@Z 00619d40 f i AGKWindows:QRCodeReader.obj
 0002:00105d90       ?_Xlen@?$vector@V?$Ref@VResultPoint@zxing@@@zxing@@V?$allocator@V?$Ref@VResultPoint@zxing@@@zxing@@@std@@@std@@IBEXXZ 00619d90 f i AGKWindows:QRCodeReader.obj
 0002:00105dc0       ?deallocate@?$allocator@V?$Ref@VResultPoint@zxing@@@zxing@@@std@@QAEXPAV?$Ref@VResultPoint@zxing@@@zxing@@I@Z 00619dc0 f i AGKWindows:QRCodeReader.obj
 0002:00105e00       ?allocate@?$allocator@V?$Ref@VResultPoint@zxing@@@zxing@@@std@@QAEPAV?$Ref@VResultPoint@zxing@@@zxing@@I@Z 00619e00 f i AGKWindows:QRCodeReader.obj
 0002:00105e40       ??0?$_Vector_const_iterator@V?$_Vector_val@V?$Ref@VResultPoint@zxing@@@zxing@@V?$allocator@V?$Ref@VResultPoint@zxing@@@zxing@@@std@@@std@@@std@@QAE@PAV?$Ref@VResultPoint@zxing@@@zxing@@PBU_Container_base12@1@@Z 00619e40 f i AGKWindows:QRCodeReader.obj
 0002:00105ee0       ?_Adopt@_Iterator_base12@std@@QAEXPBU_Container_base12@2@@Z 00619ee0 f i AGKWindows:QRCodeReader.obj
 0002:00106000       ??0?$_Iterator012@Urandom_access_iterator_tag@std@@V?$Ref@VResultPoint@zxing@@@zxing@@HPBV34@ABV34@U_Iterator_base12@2@@std@@QAE@XZ 0061a000 f i AGKWindows:QRCodeReader.obj
 0002:00106030       ??0_Iterator_base12@std@@QAE@XZ 0061a030 f i AGKWindows:QRCodeReader.obj
 0002:00106070       ?max_size@?$allocator@V?$Ref@VResultPoint@zxing@@@zxing@@@std@@QBEIXZ 0061a070 f i AGKWindows:QRCodeReader.obj
 0002:001060d0       ??$_Ucopy@V?$_Vector_const_iterator@V?$_Vector_val@V?$Ref@VResultPoint@zxing@@@zxing@@V?$allocator@V?$Ref@VResultPoint@zxing@@@zxing@@@std@@@std@@@std@@@?$vector@V?$Ref@VResultPoint@zxing@@@zxing@@V?$allocator@V?$Ref@VResultPoint@zxing@@@zxing@@@std@@@std@@IAEPAV?$Ref@VResultPoint@zxing@@@zxing@@V?$_Vector_const_iterator@V?$_Vector_val@V?$Ref@VResultPoint@zxing@@@zxing@@V?$allocator@V?$Ref@VResultPoint@zxing@@@zxing@@@std@@@std@@@1@0PAV23@@Z 0061a0d0 f i AGKWindows:QRCodeReader.obj
 0002:001061e0       ??$?0V?$Ref@VResultPoint@zxing@@@zxing@@@?$allocator@U_Container_proxy@std@@@std@@QAE@ABV?$allocator@V?$Ref@VResultPoint@zxing@@@zxing@@@1@@Z 0061a1e0 f i AGKWindows:QRCodeReader.obj
 0002:00106200       ??$_Destroy_range@V?$allocator@V?$Ref@VResultPoint@zxing@@@zxing@@@std@@@std@@YAXPAV?$Ref@VResultPoint@zxing@@@zxing@@0AAV?$allocator@V?$Ref@VResultPoint@zxing@@@zxing@@@0@@Z 0061a200 f i AGKWindows:QRCodeReader.obj
 0002:00106260       ??$_Allocate@V?$Ref@VResultPoint@zxing@@@zxing@@@std@@YAPAV?$Ref@VResultPoint@zxing@@@zxing@@IPAV12@@Z 0061a260 f i AGKWindows:QRCodeReader.obj
 0002:00106300       ??0?$_Vector_const_iterator@V?$_Vector_val@V?$Ref@VResultPoint@zxing@@@zxing@@V?$allocator@V?$Ref@VResultPoint@zxing@@@zxing@@@std@@@std@@@std@@QAE@ABV01@@Z 0061a300 f i AGKWindows:QRCodeReader.obj
 0002:00106350       ??0?$_Iterator012@Urandom_access_iterator_tag@std@@V?$Ref@VResultPoint@zxing@@@zxing@@HPBV34@ABV34@U_Iterator_base12@2@@std@@QAE@ABU01@@Z 0061a350 f i AGKWindows:QRCodeReader.obj
 0002:00106390       ??0_Iterator_base12@std@@QAE@ABU01@@Z 0061a390 f i AGKWindows:QRCodeReader.obj
 0002:001063e0       ??4_Iterator_base12@std@@QAEAAU01@ABU01@@Z 0061a3e0 f i AGKWindows:QRCodeReader.obj
 0002:00106430       ??$_Uninitialized_copy@V?$_Vector_const_iterator@V?$_Vector_val@V?$Ref@VResultPoint@zxing@@@zxing@@V?$allocator@V?$Ref@VResultPoint@zxing@@@zxing@@@std@@@std@@@std@@PAV?$Ref@VResultPoint@zxing@@@zxing@@V?$allocator@V?$Ref@VResultPoint@zxing@@@zxing@@@2@@std@@YAPAV?$Ref@VResultPoint@zxing@@@zxing@@V?$_Vector_const_iterator@V?$_Vector_val@V?$Ref@VResultPoint@zxing@@@zxing@@V?$allocator@V?$Ref@VResultPoint@zxing@@@zxing@@@std@@@std@@@0@0PAV12@AAV?$allocator@V?$Ref@VResultPoint@zxing@@@zxing@@@0@@Z 0061a430 f i AGKWindows:QRCodeReader.obj
 0002:00106550       ??$_Ptr_cat@V?$Ref@VResultPoint@zxing@@@zxing@@V12@@std@@YA?AU_Nonscalar_ptr_iterator_tag@0@PAV?$Ref@VResultPoint@zxing@@@zxing@@0@Z 0061a550 f i AGKWindows:QRCodeReader.obj
 0002:001065b0       ??$_Destroy_range@V?$allocator@V?$Ref@VResultPoint@zxing@@@zxing@@@std@@@std@@YAXPAV?$Ref@VResultPoint@zxing@@@zxing@@0AAV?$allocator@V?$Ref@VResultPoint@zxing@@@zxing@@@0@U_Nonscalar_ptr_iterator_tag@0@@Z 0061a5b0 f i AGKWindows:QRCodeReader.obj
 0002:001065f0       ??$_Ptr_cat@V?$_Vector_const_iterator@V?$_Vector_val@V?$Ref@VResultPoint@zxing@@@zxing@@V?$allocator@V?$Ref@VResultPoint@zxing@@@zxing@@@std@@@std@@@std@@PAV?$Ref@VResultPoint@zxing@@@zxing@@@std@@YA?AU_Nonscalar_ptr_iterator_tag@0@AAV?$_Vector_const_iterator@V?$_Vector_val@V?$Ref@VResultPoint@zxing@@@zxing@@V?$allocator@V?$Ref@VResultPoint@zxing@@@zxing@@@std@@@std@@@0@AAPAV?$Ref@VResultPoint@zxing@@@zxing@@@Z 0061a5f0 f i AGKWindows:QRCodeReader.obj
 0002:00106650       ??$_Uninit_copy@V?$_Vector_const_iterator@V?$_Vector_val@V?$Ref@VResultPoint@zxing@@@zxing@@V?$allocator@V?$Ref@VResultPoint@zxing@@@zxing@@@std@@@std@@@std@@PAV?$Ref@VResultPoint@zxing@@@zxing@@V?$allocator@V?$Ref@VResultPoint@zxing@@@zxing@@@2@@std@@YAPAV?$Ref@VResultPoint@zxing@@@zxing@@V?$_Vector_const_iterator@V?$_Vector_val@V?$Ref@VResultPoint@zxing@@@zxing@@V?$allocator@V?$Ref@VResultPoint@zxing@@@zxing@@@std@@@std@@@0@0PAV12@AAV?$allocator@V?$Ref@VResultPoint@zxing@@@zxing@@@0@U_Nonscalar_ptr_iterator_tag@0@@Z 0061a650 f i AGKWindows:QRCodeReader.obj
 0002:00106840       ??$_Dest_val@V?$allocator@V?$Ref@VResultPoint@zxing@@@zxing@@@std@@V?$Ref@VResultPoint@zxing@@@zxing@@@std@@YAXAAV?$allocator@V?$Ref@VResultPoint@zxing@@@zxing@@@0@PAV?$Ref@VResultPoint@zxing@@@zxing@@@Z 0061a840 f i AGKWindows:QRCodeReader.obj
 0002:00106860       ?destroy@?$allocator@V?$Ref@VResultPoint@zxing@@@zxing@@@std@@QAEXPAV?$Ref@VResultPoint@zxing@@@zxing@@@Z 0061a860 f i AGKWindows:QRCodeReader.obj
 0002:001068a0       ??D?$_Vector_const_iterator@V?$_Vector_val@V?$Ref@VResultPoint@zxing@@@zxing@@V?$allocator@V?$Ref@VResultPoint@zxing@@@zxing@@@std@@@std@@@std@@QBEABV?$Ref@VResultPoint@zxing@@@zxing@@XZ 0061a8a0 f i AGKWindows:QRCodeReader.obj
 0002:00106990       ?_Getcont@_Iterator_base12@std@@QBEPBU_Container_base12@2@XZ 0061a990 f i AGKWindows:QRCodeReader.obj
 0002:001069e0       ??E?$_Vector_const_iterator@V?$_Vector_val@V?$Ref@VResultPoint@zxing@@@zxing@@V?$allocator@V?$Ref@VResultPoint@zxing@@@zxing@@@std@@@std@@@std@@QAEAAV01@XZ 0061a9e0 f i AGKWindows:QRCodeReader.obj
 0002:00106ac0       ??9?$_Vector_const_iterator@V?$_Vector_val@V?$Ref@VResultPoint@zxing@@@zxing@@V?$allocator@V?$Ref@VResultPoint@zxing@@@zxing@@@std@@@std@@@std@@QBE_NABV01@@Z 0061aac0 f i AGKWindows:QRCodeReader.obj
 0002:00106b10       ??8?$_Vector_const_iterator@V?$_Vector_val@V?$Ref@VResultPoint@zxing@@@zxing@@V?$allocator@V?$Ref@VResultPoint@zxing@@@zxing@@@std@@@std@@@std@@QBE_NABV01@@Z 0061ab10 f i AGKWindows:QRCodeReader.obj
 0002:00106b60       ?_Compat@?$_Vector_const_iterator@V?$_Vector_val@V?$Ref@VResultPoint@zxing@@@zxing@@V?$allocator@V?$Ref@VResultPoint@zxing@@@zxing@@@std@@@std@@@std@@QBEXABV12@@Z 0061ab60 f i AGKWindows:QRCodeReader.obj
 0002:00106c30       ??$_Debug_range@V?$_Vector_const_iterator@V?$_Vector_val@V?$Ref@VResultPoint@zxing@@@zxing@@V?$allocator@V?$Ref@VResultPoint@zxing@@@zxing@@@std@@@std@@@std@@@std@@YAXV?$_Vector_const_iterator@V?$_Vector_val@V?$Ref@VResultPoint@zxing@@@zxing@@V?$allocator@V?$Ref@VResultPoint@zxing@@@zxing@@@std@@@std@@@0@0PB_WI@Z 0061ac30 f i AGKWindows:QRCodeReader.obj
 0002:00106d40       ??$_Debug_pointer@V?$Ref@VResultPoint@zxing@@@zxing@@@std@@YAXPAV?$Ref@VResultPoint@zxing@@@zxing@@PB_WI@Z 0061ad40 f i AGKWindows:QRCodeReader.obj
 0002:00106d70       ??$_Cons_val@V?$allocator@V?$Ref@VResultPoint@zxing@@@zxing@@@std@@V?$Ref@VResultPoint@zxing@@@zxing@@ABV34@@std@@YAXAAV?$allocator@V?$Ref@VResultPoint@zxing@@@zxing@@@0@PAV?$Ref@VResultPoint@zxing@@@zxing@@ABV23@@Z 0061ad70 f i AGKWindows:QRCodeReader.obj
 0002:00106da0       ??$_Destroy@V?$Ref@VResultPoint@zxing@@@zxing@@@std@@YAXPAV?$Ref@VResultPoint@zxing@@@zxing@@@Z 0061ada0 f i AGKWindows:QRCodeReader.obj
 0002:00106dc0       ??_G?$Ref@VResultPoint@zxing@@@zxing@@QAEPAXI@Z 0061adc0 f i AGKWindows:QRCodeReader.obj
 0002:00106e10       ?construct@?$allocator@V?$Ref@VResultPoint@zxing@@@zxing@@@std@@QAEXPAV?$Ref@VResultPoint@zxing@@@zxing@@ABV34@@Z 0061ae10 f i AGKWindows:QRCodeReader.obj
 0002:00106e50       ??1?$Ref@VResultPoint@zxing@@@zxing@@QAE@XZ 0061ae50 f i AGKWindows:QRCodeReader.obj
 0002:00106e90       ??$_Iter_cat@V?$_Vector_const_iterator@V?$_Vector_val@V?$Ref@VResultPoint@zxing@@@zxing@@V?$allocator@V?$Ref@VResultPoint@zxing@@@zxing@@@std@@@std@@@std@@@std@@YA?AUrandom_access_iterator_tag@0@ABV?$_Vector_const_iterator@V?$_Vector_val@V?$Ref@VResultPoint@zxing@@@zxing@@V?$allocator@V?$Ref@VResultPoint@zxing@@@zxing@@@std@@@std@@@0@@Z 0061ae90 f i AGKWindows:QRCodeReader.obj
 0002:00106f00       ??$_Debug_range2@V?$_Vector_const_iterator@V?$_Vector_val@V?$Ref@VResultPoint@zxing@@@zxing@@V?$allocator@V?$Ref@VResultPoint@zxing@@@zxing@@@std@@@std@@@std@@@std@@YAXV?$_Vector_const_iterator@V?$_Vector_val@V?$Ref@VResultPoint@zxing@@@zxing@@V?$allocator@V?$Ref@VResultPoint@zxing@@@zxing@@@std@@@std@@@0@0PB_WIUrandom_access_iterator_tag@0@@Z 0061af00 f i AGKWindows:QRCodeReader.obj
 0002:00106ff0       ??$forward@ABV?$Ref@VResultPoint@zxing@@@zxing@@@std@@YAABV?$Ref@VResultPoint@zxing@@@zxing@@ABV12@@Z 0061aff0 f i AGKWindows:QRCodeReader.obj
 0002:00107000       ??$_Construct@V?$Ref@VResultPoint@zxing@@@zxing@@ABV12@@std@@YAXPAV?$Ref@VResultPoint@zxing@@@zxing@@ABV12@@Z 0061b000 f i AGKWindows:QRCodeReader.obj
 0002:001070d0       ??M?$_Vector_const_iterator@V?$_Vector_val@V?$Ref@VResultPoint@zxing@@@zxing@@V?$allocator@V?$Ref@VResultPoint@zxing@@@zxing@@@std@@@std@@@std@@QBE_NABV01@@Z 0061b0d0 f i AGKWindows:QRCodeReader.obj
 0002:00107120       ??0?$Ref@VResultPoint@zxing@@@zxing@@QAE@ABV01@@Z 0061b120 f i AGKWindows:QRCodeReader.obj
 0002:00107170       ?reset@?$Ref@VResultPoint@zxing@@@zxing@@QAEXPAVResultPoint@2@@Z 0061b170 f i AGKWindows:QRCodeReader.obj
 0002:001071d0       ??$_Debug_pointer@V?$_Vector_const_iterator@V?$_Vector_val@V?$Ref@VResultPoint@zxing@@@zxing@@V?$allocator@V?$Ref@VResultPoint@zxing@@@zxing@@@std@@@std@@@std@@@std@@YAXAAV?$_Vector_const_iterator@V?$_Vector_val@V?$Ref@VResultPoint@zxing@@@zxing@@V?$allocator@V?$Ref@VResultPoint@zxing@@@zxing@@@std@@@std@@@0@PB_WI@Z 0061b1d0 f i AGKWindows:QRCodeReader.obj
 0002:001071e0       ??0String@zxing@@QAE@ABV?$basic_string@DU?$char_traits@D@std@@V?$allocator@D@2@@std@@@Z 0061b1e0 f   AGKWindows:Str.obj
 0002:00107260       ?getText@String@zxing@@QBEABV?$basic_string@DU?$char_traits@D@std@@V?$allocator@D@2@@std@@XZ 0061b260 f   AGKWindows:Str.obj
 0002:00107280       ??6zxing@@YAAAV?$basic_ostream@DU?$char_traits@D@std@@@std@@AAV12@ABVString@0@@Z 0061b280 f   AGKWindows:Str.obj
 0002:001072e0       ??_EString@zxing@@UAEPAXI@Z 0061b2e0 f i AGKWindows:Str.obj
 0002:001072e0       ??_GString@zxing@@UAEPAXI@Z 0061b2e0 f i AGKWindows:Str.obj
 0002:00107330       ??1String@zxing@@UAE@XZ    0061b330 f i AGKWindows:Str.obj
 0002:001073b0       ??0?$basic_string@DU?$char_traits@D@std@@V?$allocator@D@2@@std@@QAE@ABV01@@Z 0061b3b0 f i AGKWindows:Str.obj
 0002:00107480       ??$?6DU?$char_traits@D@std@@V?$allocator@D@1@@std@@YAAAV?$basic_ostream@DU?$char_traits@D@std@@@0@AAV10@ABV?$basic_string@DU?$char_traits@D@std@@V?$allocator@D@2@@0@@Z 0061b480 f i AGKWindows:Str.obj
 0002:001078b0       ?eq_int_type@?$char_traits@D@std@@SA_NABH0@Z 0061b8b0 f i AGKWindows:Str.obj
 0002:001078d0       ?eof@?$char_traits@D@std@@SAHXZ 0061b8d0 f i AGKWindows:Str.obj
 0002:001078e0       ?flags@ios_base@std@@QBEHXZ 0061b8e0 f i AGKWindows:Str.obj
 0002:00107900       ?width@ios_base@std@@QBE_JXZ 0061b900 f i AGKWindows:Str.obj
 0002:00107930       ?width@ios_base@std@@QAE_J_J@Z 0061b930 f i AGKWindows:Str.obj
 0002:00107990       ?setstate@?$basic_ios@DU?$char_traits@D@std@@@std@@QAEXH_N@Z 0061b990 f i AGKWindows:Str.obj
 0002:001079e0       ?rdstate@ios_base@std@@QBEHXZ 0061b9e0 f i AGKWindows:Str.obj
 0002:00107a00       ?rdbuf@?$basic_ios@DU?$char_traits@D@std@@@std@@QBEPAV?$basic_streambuf@DU?$char_traits@D@std@@@2@XZ 0061ba00 f i AGKWindows:Str.obj
 0002:00107a20       ?clear@?$basic_ios@DU?$char_traits@D@std@@@std@@QAEXH_N@Z 0061ba20 f i AGKWindows:Str.obj
 0002:00107a90       ?clear@ios_base@std@@QAEXH_N@Z 0061ba90 f i AGKWindows:Str.obj
 0002:00107be0       ??0runtime_error@std@@QAE@ABV01@@Z 0061bbe0 f i AGKWindows:Str.obj
 0002:00107c30       ??_Eruntime_error@std@@UAEPAXI@Z 0061bc30 f i AGKWindows:Str.obj
 0002:00107c30       ??_Gruntime_error@std@@UAEPAXI@Z 0061bc30 f i AGKWindows:Str.obj
 0002:00107c80       ??1runtime_error@std@@UAE@XZ 0061bc80 f i AGKWindows:Str.obj
 0002:00107cb0       ?make_error_code@std@@YA?AVerror_code@1@W4io_errc@31@@Z 0061bcb0 f i AGKWindows:Str.obj
 0002:00107ce0       ??0error_code@std@@QAE@HABVerror_category@1@@Z 0061bce0 f i AGKWindows:Str.obj
 0002:00107d20       ??0failure@ios_base@std@@QAE@PBDABVerror_code@2@@Z 0061bd20 f i AGKWindows:Str.obj
 0002:00107d70       ??0system_error@std@@QAE@Verror_code@1@PBD@Z 0061bd70 f i AGKWindows:Str.obj
 0002:00107e20       ??0runtime_error@std@@QAE@PBD@Z 0061be20 f i AGKWindows:Str.obj
 0002:00107e70       ?_Makestr@system_error@std@@AAEXXZ 0061be70 f i AGKWindows:Str.obj
 0002:00107e90       ??_Esystem_error@std@@UAEPAXI@Z 0061be90 f i AGKWindows:Str.obj
 0002:00107e90       ??_Gsystem_error@std@@UAEPAXI@Z 0061be90 f i AGKWindows:Str.obj
 0002:00107ee0       ??1system_error@std@@UAE@XZ 0061bee0 f i AGKWindows:Str.obj
 0002:00107f10       ??_Gfailure@ios_base@std@@UAEPAXI@Z 0061bf10 f i AGKWindows:Str.obj
 0002:00107f10       ??_Efailure@ios_base@std@@UAEPAXI@Z 0061bf10 f i AGKWindows:Str.obj
 0002:00107f60       ??1failure@ios_base@std@@UAE@XZ 0061bf60 f i AGKWindows:Str.obj
 0002:00107f90       ??0failure@ios_base@std@@QAE@ABV012@@Z 0061bf90 f i AGKWindows:Str.obj
 0002:00107fe0       ??0system_error@std@@QAE@ABV01@@Z 0061bfe0 f i AGKWindows:Str.obj
 0002:00108040       ?sputc@?$basic_streambuf@DU?$char_traits@D@std@@@std@@QAEHD@Z 0061c040 f i AGKWindows:Str.obj
 0002:00108100       ?to_int_type@?$char_traits@D@std@@SAHABD@Z 0061c100 f i AGKWindows:Str.obj
 0002:00108110       ?_Pnavail@?$basic_streambuf@DU?$char_traits@D@std@@@std@@IBE_JXZ 0061c110 f i AGKWindows:Str.obj
 0002:00108160       ??0sentry@?$basic_ostream@DU?$char_traits@D@std@@@std@@QAE@AAV12@@Z 0061c160 f i AGKWindows:Str.obj
 0002:00108260       ?good@ios_base@std@@QBE_NXZ 0061c260 f i AGKWindows:Str.obj
 0002:001082a0       ?flush@?$basic_ostream@DU?$char_traits@D@std@@@std@@QAEAAV12@XZ 0061c2a0 f i AGKWindows:Str.obj
 0002:00108350       ?fail@ios_base@std@@QBE_NXZ 0061c350 f i AGKWindows:Str.obj
 0002:00108390       ?pubsync@?$basic_streambuf@DU?$char_traits@D@std@@@std@@QAEHXZ 0061c390 f i AGKWindows:Str.obj
 0002:001083e0       ??1sentry@?$basic_ostream@DU?$char_traits@D@std@@@std@@QAE@XZ 0061c3e0 f i AGKWindows:Str.obj
 0002:00108470       ??Bsentry@?$basic_ostream@DU?$char_traits@D@std@@@std@@QBEPQ_Bool_struct@2@HXZ 0061c470 f i AGKWindows:Str.obj
 0002:001084a0       ?_Osfx@?$basic_ostream@DU?$char_traits@D@std@@@std@@QAEXXZ 0061c4a0 f i AGKWindows:Str.obj
 0002:00108570       ?tie@?$basic_ios@DU?$char_traits@D@std@@@std@@QBEPAV?$basic_ostream@DU?$char_traits@D@std@@@2@XZ 0061c570 f i AGKWindows:Str.obj
 0002:00108590       ?_Pninc@?$basic_streambuf@DU?$char_traits@D@std@@@std@@IAEPADXZ 0061c590 f i AGKWindows:Str.obj
 0002:00108600       ??0_Sentry_base@?$basic_ostream@DU?$char_traits@D@std@@@std@@QAE@AAV12@@Z 0061c600 f i AGKWindows:Str.obj
 0002:001086a0       ??1_Sentry_base@?$basic_ostream@DU?$char_traits@D@std@@@std@@QAE@XZ 0061c6a0 f i AGKWindows:Str.obj
 0002:00108730       ?fill@?$basic_ios@DU?$char_traits@D@std@@@std@@QBEDXZ 0061c730 f i AGKWindows:Str.obj
 0002:00108750       ?sputn@?$basic_streambuf@DU?$char_traits@D@std@@@std@@QAE_JPBD_J@Z 0061c750 f i AGKWindows:Str.obj
 0002:001087b0       ??0Result@zxing@@QAE@V?$Ref@VString@zxing@@@1@V?$ArrayRef@E@1@V?$vector@V?$Ref@VResultPoint@zxing@@@zxing@@V?$allocator@V?$Ref@VResultPoint@zxing@@@zxing@@@std@@@std@@W4BarcodeFormat@1@@Z 0061c7b0 f   AGKWindows:Result.obj
 0002:00108880       ??1Result@zxing@@UAE@XZ    0061c880 f   AGKWindows:Result.obj
 0002:00108910       ?getText@Result@zxing@@QAE?AV?$Ref@VString@zxing@@@2@XZ 0061c910 f   AGKWindows:Result.obj
 0002:00108960       ?getRawBytes@Result@zxing@@QAE?AV?$ArrayRef@E@2@XZ 0061c960 f   AGKWindows:Result.obj
 0002:001089b0       ?getResultPoints@Result@zxing@@QBEABV?$vector@V?$Ref@VResultPoint@zxing@@@zxing@@V?$allocator@V?$Ref@VResultPoint@zxing@@@zxing@@@std@@@std@@XZ 0061c9b0 f   AGKWindows:Result.obj
 0002:001089d0       ?getResultPoints@Result@zxing@@QAEAAV?$vector@V?$Ref@VResultPoint@zxing@@@zxing@@V?$allocator@V?$Ref@VResultPoint@zxing@@@zxing@@@std@@@std@@XZ 0061c9d0 f   AGKWindows:Result.obj
 0002:001089f0       ?getBarcodeFormat@Result@zxing@@QBE?AW4BarcodeFormat@2@XZ 0061c9f0 f   AGKWindows:Result.obj
 0002:00108a10       ??6zxing@@YAAAV?$basic_ostream@DU?$char_traits@D@std@@@std@@AAV12@AAVResult@0@@Z 0061ca10 f   AGKWindows:Result.obj
 0002:00108b50       ??_EResult@zxing@@UAEPAXI@Z 0061cb50 f i AGKWindows:Result.obj
 0002:00108b50       ??_GResult@zxing@@UAEPAXI@Z 0061cb50 f i AGKWindows:Result.obj
 0002:00108ba0       ??6?$basic_ostream@DU?$char_traits@D@std@@@std@@QAEAAV01@I@Z 0061cba0 f i AGKWindows:Result.obj
 0002:00108e00       ??1locale@std@@QAE@XZ      0061ce00 f i AGKWindows:Result.obj
 0002:00108e50       ?_Decref@facet@locale@std@@QAEPAV123@XZ 0061ce50 f i AGKWindows:Result.obj
 0002:00108f20       ?getloc@ios_base@std@@QBE?AVlocale@2@XZ 0061cf20 f i AGKWindows:Result.obj
 0002:00108f80       ??0locale@std@@QAE@ABV01@@Z 0061cf80 f i AGKWindows:Result.obj
 0002:00108fd0       ?_Incref@facet@locale@std@@QAEXXZ 0061cfd0 f i AGKWindows:Result.obj
 0002:00109070       ??0?$Ref@VString@zxing@@@zxing@@QAE@ABV01@@Z 0061d070 f i AGKWindows:Result.obj
 0002:001090c0       ??9?$Ref@VString@zxing@@@zxing@@QAE_NPBVString@1@@Z 0061d0c0 f i AGKWindows:Result.obj
 0002:00109110       ??0?$ArrayRef@E@zxing@@QAE@ABV01@@Z 0061d110 f i AGKWindows:Result.obj
 0002:001091c0       ??C?$ArrayRef@E@zxing@@QAEPAV?$Array@E@1@XZ 0061d1c0 f i AGKWindows:Result.obj
 0002:001091e0       ?size@?$Array@E@zxing@@QBEIXZ 0061d1e0 f i AGKWindows:Result.obj
 0002:00109210       ?reset@?$Ref@VString@zxing@@@zxing@@QAEXPAVString@2@@Z 0061d210 f i AGKWindows:Result.obj
 0002:00109270       ??8?$Ref@VString@zxing@@@zxing@@QAE_NPBVString@1@@Z 0061d270 f i AGKWindows:Result.obj
 0002:001092a0       ?reset@?$ArrayRef@E@zxing@@QAEXPAV?$Array@E@2@@Z 0061d2a0 f i AGKWindows:Result.obj
 0002:00109300       ?size@?$vector@EV?$allocator@E@std@@@std@@QBEIXZ 0061d300 f i AGKWindows:Result.obj
 0002:00109330       ?put@?$num_put@DV?$ostreambuf_iterator@DU?$char_traits@D@std@@@std@@@std@@QBE?AV?$ostreambuf_iterator@DU?$char_traits@D@std@@@2@V32@AAVios_base@2@DK@Z 0061d330 f i AGKWindows:Result.obj
 0002:001093a0       ??0?$ostreambuf_iterator@DU?$char_traits@D@std@@@std@@QAE@PAV?$basic_streambuf@DU?$char_traits@D@std@@@1@@Z 0061d3a0 f i AGKWindows:Result.obj
 0002:001093d0       ?failed@?$ostreambuf_iterator@DU?$char_traits@D@std@@@std@@QBE_NXZ 0061d3d0 f i AGKWindows:Result.obj
 0002:001093f0       ??$_DebugHeapDelete@Vfacet@locale@std@@@std@@YAXPAVfacet@locale@0@@Z 0061d3f0 f i AGKWindows:Result.obj
 0002:00109440       ??$?6U?$char_traits@D@std@@@std@@YAAAV?$basic_ostream@DU?$char_traits@D@std@@@0@AAV10@PBD@Z 0061d440 f i AGKWindows:Result.obj
 0002:001098d0       ??$use_facet@V?$num_put@DV?$ostreambuf_iterator@DU?$char_traits@D@std@@@std@@@std@@@std@@YAABV?$num_put@DV?$ostreambuf_iterator@DU?$char_traits@D@std@@@std@@@0@ABVlocale@0@@Z 0061d8d0 f i AGKWindows:Result.obj
 0002:00109a70       ??Bid@locale@std@@QAEIXZ   0061da70 f i AGKWindows:Result.obj
 0002:00109b30       ?_Register@facet@locale@std@@QAEXXZ 0061db30 f i AGKWindows:Result.obj
 0002:00109b70       ?_Getfacet@locale@std@@QBEPBVfacet@12@I@Z 0061db70 f i AGKWindows:Result.obj
 0002:00109c40       ?_Getcat@?$num_put@DV?$ostreambuf_iterator@DU?$char_traits@D@std@@@std@@@std@@SAIPAPBVfacet@locale@2@PBV42@@Z 0061dc40 f i AGKWindows:Result.obj
 0002:00109da0       ??0_Locinfo@std@@QAE@PBD@Z 0061dda0 f i AGKWindows:Result.obj
 0002:00109ec0       ??1_Locinfo@std@@QAE@XZ    0061dec0 f i AGKWindows:Result.obj
 0002:00109f90       ??2facet@locale@std@@SAPAXIABU_DebugHeapTag_t@2@PADH@Z 0061df90 f i AGKWindows:Result.obj
 0002:00109fc0       ??3facet@locale@std@@SAXPAXABU_DebugHeapTag_t@2@PADH@Z 0061dfc0 f i AGKWindows:Result.obj
 0002:00109fe0       ??3facet@locale@std@@SAXPAX@Z 0061dfe0 f i AGKWindows:Result.obj
 0002:0010a000       ?c_str@locale@std@@QBEPBDXZ 0061e000 f i AGKWindows:Result.obj
 0002:0010a040       ??0?$_Yarn@D@std@@QAE@XZ   0061e040 f i AGKWindows:Result.obj
 0002:0010a070       ??1?$_Yarn@D@std@@QAE@XZ   0061e070 f i AGKWindows:Result.obj
 0002:0010a0a0       ?c_str@?$_Yarn@D@std@@QBEPBDXZ 0061e0a0 f i AGKWindows:Result.obj
 0002:0010a0f0       ?_Tidy@?$_Yarn@D@std@@AAEXXZ 0061e0f0 f i AGKWindows:Result.obj
 0002:0010a140       ??0?$num_put@DV?$ostreambuf_iterator@DU?$char_traits@D@std@@@std@@@std@@QAE@ABV_Locinfo@1@I@Z 0061e140 f i AGKWindows:Result.obj
 0002:0010a1e0       ??1facet@locale@std@@UAE@XZ 0061e1e0 f i AGKWindows:Result.obj
 0002:0010a210       ??0facet@locale@std@@IAE@I@Z 0061e210 f i AGKWindows:Result.obj
 0002:0010a250       ??_Gfacet@locale@std@@UAEPAXI@Z 0061e250 f i AGKWindows:Result.obj
 0002:0010a250       ??_Efacet@locale@std@@UAEPAXI@Z 0061e250 f i AGKWindows:Result.obj
 0002:0010a2a0       ?do_put@?$num_put@DV?$ostreambuf_iterator@DU?$char_traits@D@std@@@std@@@std@@MBE?AV?$ostreambuf_iterator@DU?$char_traits@D@std@@@2@V32@AAVios_base@2@D_N@Z 0061e2a0 f i AGKWindows:Result.obj
 0002:0010a680       ?do_put@?$num_put@DV?$ostreambuf_iterator@DU?$char_traits@D@std@@@std@@@std@@MBE?AV?$ostreambuf_iterator@DU?$char_traits@D@std@@@2@V32@AAVios_base@2@DJ@Z 0061e680 f i AGKWindows:Result.obj
 0002:0010a790       ?do_put@?$num_put@DV?$ostreambuf_iterator@DU?$char_traits@D@std@@@std@@@std@@MBE?AV?$ostreambuf_iterator@DU?$char_traits@D@std@@@2@V32@AAVios_base@2@DK@Z 0061e790 f i AGKWindows:Result.obj
 0002:0010a8a0       ?do_put@?$num_put@DV?$ostreambuf_iterator@DU?$char_traits@D@std@@@std@@@std@@MBE?AV?$ostreambuf_iterator@DU?$char_traits@D@std@@@2@V32@AAVios_base@2@D_J@Z 0061e8a0 f i AGKWindows:Result.obj
 0002:0010a9b0       ?do_put@?$num_put@DV?$ostreambuf_iterator@DU?$char_traits@D@std@@@std@@@std@@MBE?AV?$ostreambuf_iterator@DU?$char_traits@D@std@@@2@V32@AAVios_base@2@D_K@Z 0061e9b0 f i AGKWindows:Result.obj
 0002:0010aac0       ?do_put@?$num_put@DV?$ostreambuf_iterator@DU?$char_traits@D@std@@@std@@@std@@MBE?AV?$ostreambuf_iterator@DU?$char_traits@D@std@@@2@V32@AAVios_base@2@DN@Z 0061eac0 f i AGKWindows:Result.obj
 0002:0010aeb0       ?precision@ios_base@std@@QBE_JXZ 0061eeb0 f i AGKWindows:Result.obj
 0002:0010aee0       ?do_put@?$num_put@DV?$ostreambuf_iterator@DU?$char_traits@D@std@@@std@@@std@@MBE?AV?$ostreambuf_iterator@DU?$char_traits@D@std@@@2@V32@AAVios_base@2@DO@Z 0061eee0 f i AGKWindows:Result.obj
 0002:0010b2c0       ?do_put@?$num_put@DV?$ostreambuf_iterator@DU?$char_traits@D@std@@@std@@@std@@MBE?AV?$ostreambuf_iterator@DU?$char_traits@D@std@@@2@V32@AAVios_base@2@DPBX@Z 0061f2c0 f i AGKWindows:Result.obj
 0002:0010b3a0       ??_E?$num_put@DV?$ostreambuf_iterator@DU?$char_traits@D@std@@@std@@@std@@MAEPAXI@Z 0061f3a0 f i AGKWindows:Result.obj
 0002:0010b3a0       ??_G?$num_put@DV?$ostreambuf_iterator@DU?$char_traits@D@std@@@std@@@std@@MAEPAXI@Z 0061f3a0 f i AGKWindows:Result.obj
 0002:0010b3f0       ??1?$num_put@DV?$ostreambuf_iterator@DU?$char_traits@D@std@@@std@@@std@@MAE@XZ 0061f3f0 f i AGKWindows:Result.obj
 0002:0010b430       ?_Ffmt@?$num_put@DV?$ostreambuf_iterator@DU?$char_traits@D@std@@@std@@@std@@ABAPADPADDH@Z 0061f430 f i AGKWindows:Result.obj
 0002:0010b570       ?_Fput@?$num_put@DV?$ostreambuf_iterator@DU?$char_traits@D@std@@@std@@@std@@ABA?AV?$ostreambuf_iterator@DU?$char_traits@D@std@@@2@V32@AAVios_base@2@DPBDIIII@Z 0061f570 f i AGKWindows:Result.obj
 0002:0010bf40       ?insert@?$basic_string@DU?$char_traits@D@std@@V?$allocator@D@2@@std@@QAEAAV12@IID@Z 0061ff40 f i AGKWindows:Result.obj
 0002:0010c040       ?_Ifmt@?$num_put@DV?$ostreambuf_iterator@DU?$char_traits@D@std@@@std@@@std@@ABAPADPADPBDH@Z 00620040 f i AGKWindows:Result.obj
 0002:0010c1a0       ?_Iput@?$num_put@DV?$ostreambuf_iterator@DU?$char_traits@D@std@@@std@@@std@@ABA?AV?$ostreambuf_iterator@DU?$char_traits@D@std@@@2@V32@AAVios_base@2@DPADI@Z 006201a0 f i AGKWindows:Result.obj
 0002:0010c660       ?_Put@?$num_put@DV?$ostreambuf_iterator@DU?$char_traits@D@std@@@std@@@std@@ABA?AV?$ostreambuf_iterator@DU?$char_traits@D@std@@@2@V32@PBDI@Z 00620660 f i AGKWindows:Result.obj
 0002:0010c6d0       ?_Rep@?$num_put@DV?$ostreambuf_iterator@DU?$char_traits@D@std@@@std@@@std@@ABA?AV?$ostreambuf_iterator@DU?$char_traits@D@std@@@2@V32@DI@Z 006206d0 f i AGKWindows:Result.obj
 0002:0010c730       ?falsename@?$numpunct@D@std@@QBE?AV?$basic_string@DU?$char_traits@D@std@@V?$allocator@D@2@@2@XZ 00620730 f i AGKWindows:Result.obj
 0002:0010c7a0       ?truename@?$numpunct@D@std@@QBE?AV?$basic_string@DU?$char_traits@D@std@@V?$allocator@D@2@@2@XZ 006207a0 f i AGKWindows:Result.obj
 0002:0010c810       ?append@?$basic_string@DU?$char_traits@D@std@@V?$allocator@D@2@@std@@QAEAAV12@PBDI@Z 00620810 f i AGKWindows:Result.obj
 0002:0010c930       ?append@?$basic_string@DU?$char_traits@D@std@@V?$allocator@D@2@@std@@QAEAAV12@ID@Z 00620930 f i AGKWindows:Result.obj
 0002:0010c9f0       ??A?$basic_string@DU?$char_traits@D@std@@V?$allocator@D@2@@std@@QAEAADI@Z 006209f0 f i AGKWindows:Result.obj
 0002:0010ca50       ?_Chassign@?$basic_string@DU?$char_traits@D@std@@V?$allocator@D@2@@std@@QAEXIID@Z 00620a50 f i AGKWindows:Result.obj
 0002:0010cad0       ?assign@?$char_traits@D@std@@SAPADPADID@Z 00620ad0 f i AGKWindows:Result.obj
 0002:0010cb00       ?_Putc@?$num_put@DV?$ostreambuf_iterator@DU?$char_traits@D@std@@@std@@@std@@ABA?AV?$ostreambuf_iterator@DU?$char_traits@D@std@@@2@V32@PBDI@Z 00620b00 f i AGKWindows:Result.obj
 0002:0010cb90       ?_Putgrouped@?$num_put@DV?$ostreambuf_iterator@DU?$char_traits@D@std@@@std@@@std@@ABA?AV?$ostreambuf_iterator@DU?$char_traits@D@std@@@2@V32@PBDID@Z 00620b90 f i AGKWindows:Result.obj
 0002:0010ccd0       ??4?$ostreambuf_iterator@DU?$char_traits@D@std@@@std@@QAEAAV01@D@Z 00620cd0 f i AGKWindows:Result.obj
 0002:0010cd60       ??D?$ostreambuf_iterator@DU?$char_traits@D@std@@@std@@QAEAAV01@XZ 00620d60 f i AGKWindows:Result.obj
 0002:0010cd80       ??E?$ostreambuf_iterator@DU?$char_traits@D@std@@@std@@QAEAAV01@XZ 00620d80 f i AGKWindows:Result.obj
 0002:0010cda0       ?decimal_point@?$numpunct@D@std@@QBEDXZ 00620da0 f i AGKWindows:Result.obj
 0002:0010cdf0       ?thousands_sep@?$numpunct@D@std@@QBEDXZ 00620df0 f i AGKWindows:Result.obj
 0002:0010ce40       ?grouping@?$numpunct@D@std@@QBE?AV?$basic_string@DU?$char_traits@D@std@@V?$allocator@D@2@@2@XZ 00620e40 f i AGKWindows:Result.obj
 0002:0010ceb0       ?append@?$basic_string@DU?$char_traits@D@std@@V?$allocator@D@2@@std@@QAEAAV12@ABV12@II@Z 00620eb0 f i AGKWindows:Result.obj
 0002:0010cfb0       ??$_Debug_pointer@V?$ostreambuf_iterator@DU?$char_traits@D@std@@@std@@@std@@YAXAAV?$ostreambuf_iterator@DU?$char_traits@D@std@@@0@PB_WI@Z 00620fb0 f i AGKWindows:Result.obj
 0002:0010cfc0       ??$use_facet@V?$numpunct@D@std@@@std@@YAABV?$numpunct@D@0@ABVlocale@0@@Z 00620fc0 f i AGKWindows:Result.obj
 0002:0010d160       ??$_Maklocchr@D@std@@YADDPADABU_Cvtvec@@@Z 00621160 f i AGKWindows:Result.obj
 0002:0010d170       ?_Getcat@?$numpunct@D@std@@SAIPAPBVfacet@locale@2@PBV42@@Z 00621170 f i AGKWindows:Result.obj
 0002:0010d2d0       ??0?$numpunct@D@std@@QAE@ABV_Locinfo@1@I_N@Z 006212d0 f i AGKWindows:Result.obj
 0002:0010d370       ?do_decimal_point@?$numpunct@D@std@@MBEDXZ 00621370 f i AGKWindows:Result.obj
 0002:0010d390       ?do_thousands_sep@?$numpunct@D@std@@MBEDXZ 00621390 f i AGKWindows:Result.obj
 0002:0010d3b0       ?do_grouping@?$numpunct@D@std@@MBE?AV?$basic_string@DU?$char_traits@D@std@@V?$allocator@D@2@@2@XZ 006213b0 f i AGKWindows:Result.obj
 0002:0010d410       ?do_falsename@?$numpunct@D@std@@MBE?AV?$basic_string@DU?$char_traits@D@std@@V?$allocator@D@2@@2@XZ 00621410 f i AGKWindows:Result.obj
 0002:0010d470       ?do_truename@?$numpunct@D@std@@MBE?AV?$basic_string@DU?$char_traits@D@std@@V?$allocator@D@2@@2@XZ 00621470 f i AGKWindows:Result.obj
 0002:0010d4d0       ??_G?$numpunct@D@std@@MAEPAXI@Z 006214d0 f i AGKWindows:Result.obj
 0002:0010d4d0       ??_E?$numpunct@D@std@@MAEPAXI@Z 006214d0 f i AGKWindows:Result.obj
 0002:0010d520       ??1?$numpunct@D@std@@MAE@XZ 00621520 f i AGKWindows:Result.obj
 0002:0010d5b0       ?_Tidy@?$numpunct@D@std@@AAEXXZ 006215b0 f i AGKWindows:Result.obj
 0002:0010d610       ??$_DebugHeapDelete@X@std@@YAXPAX@Z 00621610 f i AGKWindows:Result.obj
 0002:0010d640       ?_Init@?$num_put@DV?$ostreambuf_iterator@DU?$char_traits@D@std@@@std@@@std@@IAEXABV_Locinfo@2@@Z 00621640 f i AGKWindows:Result.obj
 0002:0010d6a0       ?_Getcvt@_Locinfo@std@@QBE?AU_Cvtvec@@XZ 006216a0 f i AGKWindows:Result.obj
 0002:0010d700       ?_Init@?$numpunct@D@std@@IAEXABV_Locinfo@2@_N@Z 00621700 f i AGKWindows:Result.obj
 0002:0010d980       ?_Getlconv@_Locinfo@std@@QBEPBUlconv@@XZ 00621980 f i AGKWindows:Result.obj
 0002:0010d9b0       ?_Getfalse@_Locinfo@std@@QBEPBDXZ 006219b0 f i AGKWindows:Result.obj
 0002:0010d9d0       ?_Gettrue@_Locinfo@std@@QBEPBDXZ 006219d0 f i AGKWindows:Result.obj
 0002:0010d9f0       ??$_Maklocstr@D@std@@YAPADPBDPADABU_Cvtvec@@@Z 006219f0 f i AGKWindows:Result.obj
 0002:0010dab0       ??0id@locale@std@@QAE@I@Z  00621ab0 f i AGKWindows:Result.obj
 0002:0010dae0       ??0DecodeHints@zxing@@QAE@XZ 00621ae0 f   AGKWindows:DecodeHints.obj
 0002:0010db20       ??0DecodeHints@zxing@@QAE@I@Z 00621b20 f   AGKWindows:DecodeHints.obj
 0002:0010db60       ?addFormat@DecodeHints@zxing@@QAEXW4BarcodeFormat@2@@Z 00621b60 f   AGKWindows:DecodeHints.obj
 0002:0010dca0       ?containsFormat@DecodeHints@zxing@@QBE_NW4BarcodeFormat@2@@Z 00621ca0 f   AGKWindows:DecodeHints.obj
 0002:0010dda0       ?setTryHarder@DecodeHints@zxing@@QAEX_N@Z 00621da0 f   AGKWindows:DecodeHints.obj
 0002:0010dde0       ?getTryHarder@DecodeHints@zxing@@QBE_NXZ 00621de0 f   AGKWindows:DecodeHints.obj
 0002:0010de10       ?setResultPointCallback@DecodeHints@zxing@@QAEXABV?$Ref@VResultPointCallback@zxing@@@2@@Z 00621e10 f   AGKWindows:DecodeHints.obj
 0002:0010de40       ?getResultPointCallback@DecodeHints@zxing@@QBE?AV?$Ref@VResultPointCallback@zxing@@@2@XZ 00621e40 f   AGKWindows:DecodeHints.obj
 0002:0010df80       ??0IllegalArgumentException@zxing@@QAE@ABV01@@Z 00621f80 f i AGKWindows:DecodeHints.obj
 0002:0010dfd0       ??0Exception@zxing@@QAE@ABV01@@Z 00621fd0 f i AGKWindows:DecodeHints.obj
 0002:0010e070       ??_GIllegalArgumentException@zxing@@UAEPAXI@Z 00622070 f i AGKWindows:DecodeHints.obj
 0002:0010e070       ??_EIllegalArgumentException@zxing@@UAEPAXI@Z 00622070 f i AGKWindows:DecodeHints.obj
 0002:0010e0c0       ??_EException@zxing@@UAEPAXI@Z 006220c0 f i AGKWindows:DecodeHints.obj
 0002:0010e0c0       ??_GException@zxing@@UAEPAXI@Z 006220c0 f i AGKWindows:DecodeHints.obj
 0002:0010e110       ??0?$Ref@VResultPointCallback@zxing@@@zxing@@QAE@PAVResultPointCallback@1@@Z 00622110 f i AGKWindows:DecodeHints.obj
 0002:0010e160       ??4?$Ref@VResultPointCallback@zxing@@@zxing@@QAEAAV01@ABV01@@Z 00622160 f i AGKWindows:DecodeHints.obj
 0002:0010e1a0       ??0BinaryBitmap@zxing@@QAE@V?$Ref@VBinarizer@zxing@@@1@@Z 006221a0 f   AGKWindows:BinaryBitmap.obj
 0002:0010e230       ??1BinaryBitmap@zxing@@UAE@XZ 00622230 f   AGKWindows:BinaryBitmap.obj
 0002:0010e2a0       ?getBlackRow@BinaryBitmap@zxing@@QAE?AV?$Ref@VBitArray@zxing@@@2@HV32@@Z 006222a0 f   AGKWindows:BinaryBitmap.obj
 0002:0010e360       ?getBlackMatrix@BinaryBitmap@zxing@@QAE?AV?$Ref@VBitMatrix@zxing@@@2@XZ 00622360 f   AGKWindows:BinaryBitmap.obj
 0002:0010e3d0       ?getWidth@BinaryBitmap@zxing@@QBEHXZ 006223d0 f   AGKWindows:BinaryBitmap.obj
 0002:0010e480       ?getHeight@BinaryBitmap@zxing@@QBEHXZ 00622480 f   AGKWindows:BinaryBitmap.obj
 0002:0010e530       ?getLuminanceSource@BinaryBitmap@zxing@@QBE?AV?$Ref@VLuminanceSource@zxing@@@2@XZ 00622530 f   AGKWindows:BinaryBitmap.obj
 0002:0010e580       ?isCropSupported@BinaryBitmap@zxing@@QBE_NXZ 00622580 f   AGKWindows:BinaryBitmap.obj
 0002:0010e630       ?crop@BinaryBitmap@zxing@@QAE?AV?$Ref@VBinaryBitmap@zxing@@@2@HHHH@Z 00622630 f   AGKWindows:BinaryBitmap.obj
 0002:0010e790       ?isRotateSupported@BinaryBitmap@zxing@@QBE_NXZ 00622790 f   AGKWindows:BinaryBitmap.obj
 0002:0010e840       ?rotateCounterClockwise@BinaryBitmap@zxing@@QAE?AV?$Ref@VBinaryBitmap@zxing@@@2@XZ 00622840 f   AGKWindows:BinaryBitmap.obj
 0002:0010eb90       ??_EBinaryBitmap@zxing@@UAEPAXI@Z 00622b90 f i AGKWindows:BinaryBitmap.obj
 0002:0010eb90       ??_GBinaryBitmap@zxing@@UAEPAXI@Z 00622b90 f i AGKWindows:BinaryBitmap.obj
 0002:0010ebe0       ??1?$Ref@VLuminanceSource@zxing@@@zxing@@QAE@XZ 00622be0 f i AGKWindows:BinaryBitmap.obj
 0002:0010ec20       ??C?$Ref@VLuminanceSource@zxing@@@zxing@@QBEPAVLuminanceSource@1@XZ 00622c20 f i AGKWindows:BinaryBitmap.obj
 0002:0010ec40       ??0?$Ref@VBinarizer@zxing@@@zxing@@QAE@ABV01@@Z 00622c40 f i AGKWindows:BinaryBitmap.obj
 0002:0010ec90       ??1?$Ref@VBinarizer@zxing@@@zxing@@QAE@XZ 00622c90 f i AGKWindows:BinaryBitmap.obj
 0002:0010ecd0       ??C?$Ref@VBinarizer@zxing@@@zxing@@QBEPAVBinarizer@1@XZ 00622cd0 f i AGKWindows:BinaryBitmap.obj
 0002:0010ecf0       ??0?$Ref@VBitArray@zxing@@@zxing@@QAE@ABV01@@Z 00622cf0 f i AGKWindows:BinaryBitmap.obj
 0002:0010ed40       ??1?$Ref@VBitArray@zxing@@@zxing@@QAE@XZ 00622d40 f i AGKWindows:BinaryBitmap.obj
 0002:0010ed80       ?reset@?$Ref@VBitArray@zxing@@@zxing@@QAEXPAVBitArray@2@@Z 00622d80 f i AGKWindows:BinaryBitmap.obj
 0002:0010ede0       ??0GlobalHistogramBinarizer@zxing@@QAE@V?$Ref@VLuminanceSource@zxing@@@1@@Z 00622de0 f   AGKWindows:GlobalHistogramBinarizer.obj
 0002:0010eea0       ??1GlobalHistogramBinarizer@zxing@@UAE@XZ 00622ea0 f   AGKWindows:GlobalHistogramBinarizer.obj
 0002:0010ef20       ?getBlackRow@GlobalHistogramBinarizer@zxing@@UAE?AV?$Ref@VBitArray@zxing@@@2@HV32@@Z 00622f20 f   AGKWindows:GlobalHistogramBinarizer.obj
 0002:0010f3c0       ?getBlackMatrix@GlobalHistogramBinarizer@zxing@@UAE?AV?$Ref@VBitMatrix@zxing@@@2@XZ 006233c0 f   AGKWindows:GlobalHistogramBinarizer.obj
 0002:0010f770       ?estimate@GlobalHistogramBinarizer@zxing@@SAHAAV?$vector@HV?$allocator@H@std@@@std@@@Z 00623770 f   AGKWindows:GlobalHistogramBinarizer.obj
 0002:0010f960       ?createBinarizer@GlobalHistogramBinarizer@zxing@@UAE?AV?$Ref@VBinarizer@zxing@@@2@V?$Ref@VLuminanceSource@zxing@@@2@@Z 00623960 f   AGKWindows:GlobalHistogramBinarizer.obj
 0002:0010fd60       ??_GGlobalHistogramBinarizer@zxing@@UAEPAXI@Z 00623d60 f i AGKWindows:GlobalHistogramBinarizer.obj
 0002:0010fd60       ??_EGlobalHistogramBinarizer@zxing@@UAEPAXI@Z 00623d60 f i AGKWindows:GlobalHistogramBinarizer.obj
 0002:0010fdb0       ?set@BitArray@zxing@@QAEXI@Z 00623db0 f i AGKWindows:GlobalHistogramBinarizer.obj
 0002:0010fe20       ?set@BitMatrix@zxing@@QAEXII@Z 00623e20 f i AGKWindows:GlobalHistogramBinarizer.obj
 0002:0010fe90       ??A?$vector@IV?$allocator@I@std@@@std@@QAEAAII@Z 00623e90 f i AGKWindows:GlobalHistogramBinarizer.obj
 0002:0010ff50       ??0?$Ref@VLuminanceSource@zxing@@@zxing@@QAE@ABV01@@Z 00623f50 f i AGKWindows:GlobalHistogramBinarizer.obj
 0002:0010ffa0       ??D?$Ref@VLuminanceSource@zxing@@@zxing@@QAEAAVLuminanceSource@1@XZ 00623fa0 f i AGKWindows:GlobalHistogramBinarizer.obj
 0002:0010ffc0       ??0?$Ref@VBitMatrix@zxing@@@zxing@@QAE@PAVBitMatrix@1@@Z 00623fc0 f i AGKWindows:GlobalHistogramBinarizer.obj
 0002:00110010       ??0?$Ref@VBitMatrix@zxing@@@zxing@@QAE@ABV01@@Z 00624010 f i AGKWindows:GlobalHistogramBinarizer.obj
 0002:00110060       ??4?$Ref@VBitMatrix@zxing@@@zxing@@QAEAAV01@ABV01@@Z 00624060 f i AGKWindows:GlobalHistogramBinarizer.obj
 0002:001100a0       ??D?$Ref@VBitMatrix@zxing@@@zxing@@QAEAAVBitMatrix@1@XZ 006240a0 f i AGKWindows:GlobalHistogramBinarizer.obj
 0002:001100c0       ??9?$Ref@VBitMatrix@zxing@@@zxing@@QAE_NPBVBitMatrix@1@@Z 006240c0 f i AGKWindows:GlobalHistogramBinarizer.obj
 0002:00110110       ??0?$Ref@VBitArray@zxing@@@zxing@@QAE@PAVBitArray@1@@Z 00624110 f i AGKWindows:GlobalHistogramBinarizer.obj
 0002:00110160       ??4?$Ref@VBitArray@zxing@@@zxing@@QAEAAV01@ABV01@@Z 00624160 f i AGKWindows:GlobalHistogramBinarizer.obj
 0002:001101a0       ??4?$Ref@VBitArray@zxing@@@zxing@@QAEAAV01@PAVBitArray@1@@Z 006241a0 f i AGKWindows:GlobalHistogramBinarizer.obj
 0002:001101e0       ??D?$Ref@VBitArray@zxing@@@zxing@@QAEAAVBitArray@1@XZ 006241e0 f i AGKWindows:GlobalHistogramBinarizer.obj
 0002:00110200       ??C?$Ref@VBitArray@zxing@@@zxing@@QBEPAVBitArray@1@XZ 00624200 f i AGKWindows:GlobalHistogramBinarizer.obj
 0002:00110220       ??8?$Ref@VBitArray@zxing@@@zxing@@QAE_NPBVBitArray@1@@Z 00624220 f i AGKWindows:GlobalHistogramBinarizer.obj
 0002:00110250       ??9?$Ref@VBitArray@zxing@@@zxing@@QAE_NPBVBitArray@1@@Z 00624250 f i AGKWindows:GlobalHistogramBinarizer.obj
 0002:001102a0       ??1?$vector@HV?$allocator@H@std@@@std@@QAE@XZ 006242a0 f i AGKWindows:GlobalHistogramBinarizer.obj
 0002:00110320       ?size@?$vector@HV?$allocator@H@std@@@std@@QBEIXZ 00624320 f i AGKWindows:GlobalHistogramBinarizer.obj
 0002:00110350       ??A?$vector@HV?$allocator@H@std@@@std@@QAEAAHI@Z 00624350 f i AGKWindows:GlobalHistogramBinarizer.obj
 0002:00110410       ??0?$ArrayRef@E@zxing@@QAE@I@Z 00624410 f i AGKWindows:GlobalHistogramBinarizer.obj
 0002:00110510       ??A?$ArrayRef@E@zxing@@QAEAAEI@Z 00624510 f i AGKWindows:GlobalHistogramBinarizer.obj
 0002:00110550       ??0?$Ref@VBinarizer@zxing@@@zxing@@QAE@PAVBinarizer@1@@Z 00624550 f i AGKWindows:GlobalHistogramBinarizer.obj
 0002:001105a0       ?size@?$vector@IV?$allocator@I@std@@@std@@QBEIXZ 006245a0 f i AGKWindows:GlobalHistogramBinarizer.obj
 0002:001105d0       ?reset@?$Ref@VBitMatrix@zxing@@@zxing@@QAEXPAVBitMatrix@2@@Z 006245d0 f i AGKWindows:GlobalHistogramBinarizer.obj
 0002:00110630       ??8?$Ref@VBitMatrix@zxing@@@zxing@@QAE_NPBVBitMatrix@1@@Z 00624630 f i AGKWindows:GlobalHistogramBinarizer.obj
 0002:00110660       ?_Tidy@?$vector@HV?$allocator@H@std@@@std@@IAEXXZ 00624660 f i AGKWindows:GlobalHistogramBinarizer.obj
 0002:00110710       ??1?$_Vector_val@HV?$allocator@H@std@@@std@@QAE@XZ 00624710 f i AGKWindows:GlobalHistogramBinarizer.obj
 0002:00110820       ??0?$Array@E@zxing@@QAE@I@Z 00624820 f i AGKWindows:GlobalHistogramBinarizer.obj
 0002:001108d0       ??_G?$Array@E@zxing@@UAEPAXI@Z 006248d0 f i AGKWindows:GlobalHistogramBinarizer.obj
 0002:001108d0       ??_E?$Array@E@zxing@@UAEPAXI@Z 006248d0 f i AGKWindows:GlobalHistogramBinarizer.obj
 0002:00110920       ??1?$Array@E@zxing@@UAE@XZ 00624920 f i AGKWindows:GlobalHistogramBinarizer.obj
 0002:001109b0       ??A?$Array@E@zxing@@QAEAAEI@Z 006249b0 f i AGKWindows:GlobalHistogramBinarizer.obj
 0002:001109f0       ??1?$vector@EV?$allocator@E@std@@@std@@QAE@XZ 006249f0 f i AGKWindows:GlobalHistogramBinarizer.obj
 0002:00110a70       ?_Destroy@?$vector@HV?$allocator@H@std@@@std@@IAEXPAH0@Z 00624a70 f i AGKWindows:GlobalHistogramBinarizer.obj
 0002:00110ac0       ?deallocate@?$allocator@H@std@@QAEXPAHI@Z 00624ac0 f i AGKWindows:GlobalHistogramBinarizer.obj
 0002:00110b00       ??0?$vector@EV?$allocator@E@std@@@std@@QAE@IABE@Z 00624b00 f i AGKWindows:GlobalHistogramBinarizer.obj
 0002:00110bc0       ??A?$vector@EV?$allocator@E@std@@@std@@QAEAAEI@Z 00624bc0 f i AGKWindows:GlobalHistogramBinarizer.obj
 0002:00110c80       ?_Tidy@?$vector@EV?$allocator@E@std@@@std@@IAEXXZ 00624c80 f i AGKWindows:GlobalHistogramBinarizer.obj
 0002:00110d20       ??1?$_Vector_val@EV?$allocator@E@std@@@std@@QAE@XZ 00624d20 f i AGKWindows:GlobalHistogramBinarizer.obj
 0002:00110e30       ?_Construct_n@?$vector@EV?$allocator@E@std@@@std@@QAEXIPBE@Z 00624e30 f i AGKWindows:GlobalHistogramBinarizer.obj
 0002:00110f20       ?_Destroy@?$vector@EV?$allocator@E@std@@@std@@IAEXPAE0@Z 00624f20 f i AGKWindows:GlobalHistogramBinarizer.obj
 0002:00110f70       ??0?$_Vector_val@EV?$allocator@E@std@@@std@@QAE@V?$allocator@E@1@@Z 00624f70 f i AGKWindows:GlobalHistogramBinarizer.obj
 0002:001110d0       ??0?$allocator@E@std@@QAE@XZ 006250d0 f i AGKWindows:GlobalHistogramBinarizer.obj
 0002:001110f0       ?deallocate@?$allocator@E@std@@QAEXPAEI@Z 006250f0 f i AGKWindows:GlobalHistogramBinarizer.obj
 0002:00111130       ?_Buy@?$vector@EV?$allocator@E@std@@@std@@IAE_NI@Z 00625130 f i AGKWindows:GlobalHistogramBinarizer.obj
 0002:001111f0       ?_Ufill@?$vector@EV?$allocator@E@std@@@std@@IAEPAEPAEIPBE@Z 006251f0 f i AGKWindows:GlobalHistogramBinarizer.obj
 0002:00111240       ??0?$allocator@E@std@@QAE@ABV01@@Z 00625240 f i AGKWindows:GlobalHistogramBinarizer.obj
 0002:00111260       ?max_size@?$vector@EV?$allocator@E@std@@@std@@QBEIXZ 00625260 f i AGKWindows:GlobalHistogramBinarizer.obj
 0002:00111290       ?_Xlen@?$vector@EV?$allocator@E@std@@@std@@IBEXXZ 00625290 f i AGKWindows:GlobalHistogramBinarizer.obj
 0002:001112c0       ?allocate@?$allocator@E@std@@QAEPAEI@Z 006252c0 f i AGKWindows:GlobalHistogramBinarizer.obj
 0002:00111300       ?max_size@?$allocator@E@std@@QBEIXZ 00625300 f i AGKWindows:GlobalHistogramBinarizer.obj
 0002:00111360       ??$?0H@?$vector@HV?$allocator@H@std@@@std@@QAE@HH@Z 00625360 f i AGKWindows:GlobalHistogramBinarizer.obj
 0002:00111430       ??$?0H@?$allocator@U_Container_proxy@std@@@std@@QAE@ABV?$allocator@H@1@@Z 00625430 f i AGKWindows:GlobalHistogramBinarizer.obj
 0002:00111450       ??$_Destroy_range@V?$allocator@H@std@@@std@@YAXPAH0AAV?$allocator@H@0@@Z 00625450 f i AGKWindows:GlobalHistogramBinarizer.obj
 0002:001114b0       ??$addressof@$$CBE@std@@YAPBEABE@Z 006254b0 f i AGKWindows:GlobalHistogramBinarizer.obj
 0002:001114c0       ??$?0E@?$allocator@U_Container_proxy@std@@@std@@QAE@ABV?$allocator@E@1@@Z 006254c0 f i AGKWindows:GlobalHistogramBinarizer.obj
 0002:001114e0       ??$_Destroy_range@V?$allocator@E@std@@@std@@YAXPAE0AAV?$allocator@E@0@@Z 006254e0 f i AGKWindows:GlobalHistogramBinarizer.obj
 0002:00111540       ??$_Uninitialized_fill_n@PAEIEV?$allocator@E@std@@@std@@YAXPAEIPBEAAV?$allocator@E@0@@Z 00625540 f i AGKWindows:GlobalHistogramBinarizer.obj
 0002:001115b0       ??$_Allocate@E@std@@YAPAEIPAE@Z 006255b0 f i AGKWindows:GlobalHistogramBinarizer.obj
 0002:00111640       ??0?$_Vector_val@HV?$allocator@H@std@@@std@@QAE@V?$allocator@H@1@@Z 00625640 f i AGKWindows:GlobalHistogramBinarizer.obj
 0002:001117a0       ??0?$allocator@H@std@@QAE@XZ 006257a0 f i AGKWindows:GlobalHistogramBinarizer.obj
 0002:001117c0       ??0?$allocator@H@std@@QAE@ABV01@@Z 006257c0 f i AGKWindows:GlobalHistogramBinarizer.obj
 0002:001117e0       ??$_Iter_cat@H@std@@YA?AU_Int_iterator_tag@0@ABH@Z 006257e0 f i AGKWindows:GlobalHistogramBinarizer.obj
 0002:00111840       ??$_Construct@H@?$vector@HV?$allocator@H@std@@@std@@QAEXHHU_Int_iterator_tag@1@@Z 00625840 f i AGKWindows:GlobalHistogramBinarizer.obj
 0002:001118e0       ??$_Ptr_cat@HH@std@@YA?AU_Scalar_ptr_iterator_tag@0@PAH0@Z 006258e0 f i AGKWindows:GlobalHistogramBinarizer.obj
 0002:00111940       ??$_Destroy_range@V?$allocator@H@std@@@std@@YAXPAH0AAV?$allocator@H@0@U_Scalar_ptr_iterator_tag@0@@Z 00625940 f i AGKWindows:GlobalHistogramBinarizer.obj
 0002:00111950       ??$_Ptr_cat@EE@std@@YA?AU_Scalar_ptr_iterator_tag@0@PAE0@Z 00625950 f i AGKWindows:GlobalHistogramBinarizer.obj
 0002:001119b0       ??$_Destroy_range@V?$allocator@E@std@@@std@@YAXPAE0AAV?$allocator@E@0@U_Scalar_ptr_iterator_tag@0@@Z 006259b0 f i AGKWindows:GlobalHistogramBinarizer.obj
 0002:001119c0       ??$_Val_type@PAE@std@@YAPAEPAE@Z 006259c0 f i AGKWindows:GlobalHistogramBinarizer.obj
 0002:001119d0       ??$_Uninit_fill_n@EIEE@std@@YAXPAEIPBEAAV?$allocator@E@0@0U_Scalar_ptr_iterator_tag@0@@Z 006259d0 f i AGKWindows:GlobalHistogramBinarizer.obj
 0002:00111a00       ?_Construct_n@?$vector@HV?$allocator@H@std@@@std@@QAEXIPBH@Z 00625a00 f i AGKWindows:GlobalHistogramBinarizer.obj
 0002:00111af0       ?_Buy@?$vector@HV?$allocator@H@std@@@std@@IAE_NI@Z 00625af0 f i AGKWindows:GlobalHistogramBinarizer.obj
 0002:00111bb0       ?_Ufill@?$vector@HV?$allocator@H@std@@@std@@IAEPAHPAHIPBH@Z 00625bb0 f i AGKWindows:GlobalHistogramBinarizer.obj
 0002:00111c10       ?max_size@?$vector@HV?$allocator@H@std@@@std@@QBEIXZ 00625c10 f i AGKWindows:GlobalHistogramBinarizer.obj
 0002:00111c40       ?_Xlen@?$vector@HV?$allocator@H@std@@@std@@IBEXXZ 00625c40 f i AGKWindows:GlobalHistogramBinarizer.obj
 0002:00111c70       ?allocate@?$allocator@H@std@@QAEPAHI@Z 00625c70 f i AGKWindows:GlobalHistogramBinarizer.obj
 0002:00111cb0       ?max_size@?$allocator@H@std@@QBEIXZ 00625cb0 f i AGKWindows:GlobalHistogramBinarizer.obj
 0002:00111d10       ??$addressof@H@std@@YAPAHAAH@Z 00625d10 f i AGKWindows:GlobalHistogramBinarizer.obj
 0002:00111d20       ??$_Fill_n@PAEIE@std@@YAXPAEIABE@Z 00625d20 f i AGKWindows:GlobalHistogramBinarizer.obj
 0002:00111d60       ??$_Uninitialized_fill_n@PAHIHV?$allocator@H@std@@@std@@YAXPAHIPBHAAV?$allocator@H@0@@Z 00625d60 f i AGKWindows:GlobalHistogramBinarizer.obj
 0002:00111dd0       ??$_Allocate@H@std@@YAPAHIPAH@Z 00625dd0 f i AGKWindows:GlobalHistogramBinarizer.obj
 0002:00111e70       ??$_Val_type@PAH@std@@YAPAHPAH@Z 00625e70 f i AGKWindows:GlobalHistogramBinarizer.obj
 0002:00111e80       ??$_Uninit_fill_n@HIHH@std@@YAXPAHIPBHAAV?$allocator@H@0@0U_Scalar_ptr_iterator_tag@0@@Z 00625e80 f i AGKWindows:GlobalHistogramBinarizer.obj
 0002:00111eb0       ??$_Fill_n@PAHIH@std@@YAXPAHIABH@Z 00625eb0 f i AGKWindows:GlobalHistogramBinarizer.obj
 0002:00111ef0       ??0GreyscaleLuminanceSource@zxing@@QAE@PAEHHHHHH@Z 00625ef0 f   AGKWindows:GreyscaleLuminanceSource.obj
 0002:00112000       ?getRow@GreyscaleLuminanceSource@zxing@@UAEPAEHPAE@Z 00626000 f   AGKWindows:GreyscaleLuminanceSource.obj
 0002:001120f0       ?getMatrix@GreyscaleLuminanceSource@zxing@@UAEPAEXZ 006260f0 f   AGKWindows:GreyscaleLuminanceSource.obj
 0002:001121f0       ?rotateCounterClockwise@GreyscaleLuminanceSource@zxing@@UAE?AV?$Ref@VLuminanceSource@zxing@@@2@XZ 006261f0 f   AGKWindows:GreyscaleLuminanceSource.obj
 0002:001123d0       ?isRotateSupported@GreyscaleLuminanceSource@zxing@@UBE_NXZ 006263d0 f i AGKWindows:GreyscaleLuminanceSource.obj
 0002:001123f0       ?getWidth@GreyscaleLuminanceSource@zxing@@UBEHXZ 006263f0 f i AGKWindows:GreyscaleLuminanceSource.obj
 0002:00112410       ?getHeight@GreyscaleLuminanceSource@zxing@@UBEHXZ 00626410 f i AGKWindows:GreyscaleLuminanceSource.obj
 0002:00112430       ??_EGreyscaleLuminanceSource@zxing@@UAEPAXI@Z 00626430 f i AGKWindows:GreyscaleLuminanceSource.obj
 0002:00112430       ??_GGreyscaleLuminanceSource@zxing@@UAEPAXI@Z 00626430 f i AGKWindows:GreyscaleLuminanceSource.obj
 0002:00112480       ??1GreyscaleLuminanceSource@zxing@@UAE@XZ 00626480 f i AGKWindows:GreyscaleLuminanceSource.obj
 0002:001124b0       ??0?$Ref@VLuminanceSource@zxing@@@zxing@@QAE@PAVLuminanceSource@1@@Z 006264b0 f i AGKWindows:GreyscaleLuminanceSource.obj
 0002:00112500       ?IsNumeralData@zxing@@YAHE@Z 00626500 f   AGKWindows:QREncode.obj
 0002:00112520       ?IsAlphabetData@zxing@@YAHE@Z 00626520 f   AGKWindows:QREncode.obj
 0002:001125c0       ?IsKanjiData@zxing@@YAHEE@Z 006265c0 f   AGKWindows:QREncode.obj
 0002:00112640       ?AlphabetToBinaly@zxing@@YAEE@Z 00626640 f   AGKWindows:QREncode.obj
 0002:001126f0       ?KanjiToBinaly@zxing@@YAGG@Z 006266f0 f   AGKWindows:QREncode.obj
 0002:00112750       ?SetBitStream@zxing@@YAHHGHQAE@Z 00626750 f   AGKWindows:QREncode.obj
 0002:00112810       ?GetBitLength@zxing@@YAHEHH@Z 00626810 f   AGKWindows:QREncode.obj
 0002:00112920       ?EncodeSourceData@zxing@@YAHPBDHHQAHQAE2@Z 00626920 f   AGKWindows:QREncode.obj
 0002:00113700       ?GetEncodeVersion@zxing@@YAHHPBDHQAHQAE2@Z 00627700 f   AGKWindows:QREncode.obj
 0002:00113890       ?min@zxing@@YAHHH@Z        00627890 f   AGKWindows:QREncode.obj
 0002:001138b0       ?GetRSCodeWord@zxing@@YAXPAEHH@Z 006278b0 f   AGKWindows:QREncode.obj
 0002:001139e0       ?SetFinderPattern@zxing@@YAXHHQAY0LB@E@Z 006279e0 f   AGKWindows:QREncode.obj
 0002:00113a70       ?SetVersionPattern@zxing@@YAXQAY0LB@E@Z 00627a70 f   AGKWindows:QREncode.obj
 0002:00113b90       ?SetAlignmentPattern@zxing@@YAXHHQAY0LB@E@Z 00627b90 f   AGKWindows:QREncode.obj
 0002:00113c50       ?SetFunctionModule@zxing@@YAXQAY0LB@E@Z 00627c50 f   AGKWindows:QREncode.obj
 0002:00113f40       ?SetCodeWordPattern@zxing@@YAXQAY0LB@EQAE@Z 00627f40 f   AGKWindows:QREncode.obj
 0002:00114090       ?SetMaskingPattern@zxing@@YAXHQAY0LB@E@Z 00628090 f   AGKWindows:QREncode.obj
 0002:001142f0       ?SetFormatInfoPattern@zxing@@YAXHQAY0LB@E@Z 006282f0 f   AGKWindows:QREncode.obj
 0002:00114530       ?CountPenalty@zxing@@YAHQAY0LB@E@Z 00628530 f   AGKWindows:QREncode.obj
 0002:00114d90       ?FormatModule@zxing@@YAXQAY0LB@EQAE@Z 00628d90 f   AGKWindows:QREncode.obj
 0002:00114f20       ?putBitToPos@zxing@@YAXIHPAE@Z 00628f20 f   AGKWindows:QREncode.obj
 0002:00115020       ?EncodeData@zxing@@YAHHHPBDHQAE@Z 00629020 f   AGKWindows:QREncode.obj
 0002:001164b0       ??0CDCCache@CImage@ATL@@QAE@XZ 0062a4b0 f i AGKWindows:atlimage.obj
 0002:00116500       ??1CDCCache@CImage@ATL@@QAE@XZ 0062a500 f i AGKWindows:atlimage.obj
 0002:00116560       _uncompress                0062a560 f   AGKWindows:uncompr.obj
 0002:001166c2       _DirectSoundCreate8@12     0062a6c2 f   AGKWindows:DSOUND.dll
 0002:001166d0       ??0CWin32Heap@ATL@@QAE@PAX@Z 0062a6d0 f i AGKWindows:atlstr.obj
 0002:00116740       ?Allocate@CWin32Heap@ATL@@UAEPAXI@Z 0062a740 f i AGKWindows:atlstr.obj
 0002:00116770       ?Free@CWin32Heap@ATL@@UAEXPAX@Z 0062a770 f i AGKWindows:atlstr.obj
 0002:001167e0       ?Reallocate@CWin32Heap@ATL@@UAEPAXPAXI@Z 0062a7e0 f i AGKWindows:atlstr.obj
 0002:00116850       ?GetSize@CWin32Heap@ATL@@UAEIPAX@Z 0062a850 f i AGKWindows:atlstr.obj
 0002:00116880       ??_ECWin32Heap@ATL@@UAEPAXI@Z 0062a880 f i AGKWindows:atlstr.obj
 0002:00116880       ??_GCWin32Heap@ATL@@UAEPAXI@Z 0062a880 f i AGKWindows:atlstr.obj
 0002:001168c0       ??1CWin32Heap@ATL@@UAE@XZ  0062a8c0 f i AGKWindows:atlstr.obj
 0002:00116940       ??0CAtlStringMgr@ATL@@QAE@PAUIAtlMemMgr@1@@Z 0062a940 f i AGKWindows:atlstr.obj
 0002:00116990       ??0CNilStringData@ATL@@QAE@XZ 0062a990 f i AGKWindows:atlstr.obj
 0002:001169f0       ?SetManager@CNilStringData@ATL@@QAEXPAUIAtlStringMgr@2@@Z 0062a9f0 f i AGKWindows:atlstr.obj
 0002:00116a40       ?Allocate@CAtlStringMgr@ATL@@UAEPAUCStringData@2@HH@Z 0062aa40 f i AGKWindows:atlstr.obj
 0002:00116b10       ??$AtlMultiply@I@ATL@@YAJPAIII@Z 0062ab10 f i AGKWindows:atlstr.obj
 0002:00116b60       ?Free@CAtlStringMgr@ATL@@UAEXPAUCStringData@2@@Z 0062ab60 f i AGKWindows:atlstr.obj
 0002:00116c00       ?Reallocate@CAtlStringMgr@ATL@@UAEPAUCStringData@2@PAU32@HH@Z 0062ac00 f i AGKWindows:atlstr.obj
 0002:00116ce0       ??$AtlMultiply@K@ATL@@YAJPAKKK@Z 0062ace0 f i AGKWindows:atlstr.obj
 0002:00116d30       ?GetNilString@CAtlStringMgr@ATL@@UAEPAUCStringData@2@XZ 0062ad30 f i AGKWindows:atlstr.obj
 0002:00116d60       ?Clone@CAtlStringMgr@ATL@@UAEPAUIAtlStringMgr@2@XZ 0062ad60 f i AGKWindows:atlstr.obj
 0002:00116d80       ??_ECAtlStringMgr@ATL@@UAEPAXI@Z 0062ad80 f i AGKWindows:atlstr.obj
 0002:00116d80       ??_GCAtlStringMgr@ATL@@UAEPAXI@Z 0062ad80 f i AGKWindows:atlstr.obj
 0002:00116dc0       ??1CAtlStringMgr@ATL@@UAE@XZ 0062adc0 f i AGKWindows:atlstr.obj
 0002:00116de0       ??$AtlAdd@I@ATL@@YAJPAIII@Z 0062ade0 f i AGKWindows:atlstr.obj
 0002:00116e20       ??$AtlAlignUp@H@ATL@@YGHHK@Z 0062ae20 f i AGKWindows:atlstr.obj
 0002:00116e50       ??0CAtlBaseModule@ATL@@QAE@XZ 0062ae50 f   AGKWindows:atlbase.obj
 0002:00116f30       ??0_ATL_BASE_MODULE70@ATL@@QAE@XZ 0062af30 f i AGKWindows:atlbase.obj
 0002:00116f60       ??1CAtlBaseModule@ATL@@QAE@XZ 0062af60 f   AGKWindows:atlbase.obj
 0002:00116f90       ??1_ATL_BASE_MODULE70@ATL@@QAE@XZ 0062af90 f i AGKWindows:atlbase.obj
 0002:00116fc0       ?AddResourceInstance@CAtlBaseModule@ATL@@QAE_NPAUHINSTANCE__@@@Z 0062afc0 f   AGKWindows:atlbase.obj
 0002:001170a0       ?RemoveResourceInstance@CAtlBaseModule@ATL@@QAE_NPAUHINSTANCE__@@@Z 0062b0a0 f   AGKWindows:atlbase.obj
 0002:001171e0       ?GetHInstanceAt@CAtlBaseModule@ATL@@QAEPAUHINSTANCE__@@H@Z 0062b1e0 f   AGKWindows:atlbase.obj
 0002:00117320       ??0?$CSimpleArray@PAUHINSTANCE__@@V?$CSimpleArrayEqualHelper@PAUHINSTANCE__@@@ATL@@@ATL@@QAE@XZ 0062b320 f i AGKWindows:atlbase.obj
 0002:00117360       ?GetSize@?$CSimpleArray@PAUHINSTANCE__@@V?$CSimpleArrayEqualHelper@PAUHINSTANCE__@@@ATL@@@ATL@@QBEHXZ 0062b360 f i AGKWindows:atlbase.obj
 0002:00117380       ?Add@?$CSimpleArray@PAUHINSTANCE__@@V?$CSimpleArrayEqualHelper@PAUHINSTANCE__@@@ATL@@@ATL@@QAEHABQAUHINSTANCE__@@@Z 0062b380 f i AGKWindows:atlbase.obj
 0002:00117500       ?RemoveAt@?$CSimpleArray@PAUHINSTANCE__@@V?$CSimpleArrayEqualHelper@PAUHINSTANCE__@@@ATL@@@ATL@@QAEHH@Z 0062b500 f i AGKWindows:atlbase.obj
 0002:001175f0       ??A?$CSimpleArray@PAUHINSTANCE__@@V?$CSimpleArrayEqualHelper@PAUHINSTANCE__@@@ATL@@@ATL@@QAEAAPAUHINSTANCE__@@H@Z 0062b5f0 f i AGKWindows:atlbase.obj
 0002:00117680       ?InternalSetAtIndex@?$CSimpleArray@PAUHINSTANCE__@@V?$CSimpleArrayEqualHelper@PAUHINSTANCE__@@@ATL@@@ATL@@QAEXHABQAUHINSTANCE__@@@Z 0062b680 f i AGKWindows:atlbase.obj
 0002:001176e0       ??0Wrapper@?$CSimpleArray@PAUHINSTANCE__@@V?$CSimpleArrayEqualHelper@PAUHINSTANCE__@@@ATL@@@ATL@@QAE@ABQAUHINSTANCE__@@@Z 0062b6e0 f i AGKWindows:atlbase.obj
 0002:00117710       ??1?$CSimpleArray@PAUHINSTANCE__@@V?$CSimpleArrayEqualHelper@PAUHINSTANCE__@@@ATL@@@ATL@@QAE@XZ 0062b710 f i AGKWindows:atlbase.obj
 0002:00117730       ??$?2PAUHINSTANCE__@@@Wrapper@?$CSimpleArray@PAUHINSTANCE__@@V?$CSimpleArrayEqualHelper@PAUHINSTANCE__@@@ATL@@@ATL@@SAPAXIPAPAUHINSTANCE__@@@Z 0062b730 f i AGKWindows:atlbase.obj
 0002:00117740       ?RemoveAll@?$CSimpleArray@PAUHINSTANCE__@@V?$CSimpleArrayEqualHelper@PAUHINSTANCE__@@@ATL@@@ATL@@QAEXXZ 0062b740 f i AGKWindows:atlbase.obj
 0002:001177c0       ?memmove_s@Checked@ATL@@YAXPAXIPBXI@Z 0062b7c0 f i AGKWindows:atlbase.obj
 0002:00117800       ??0CComCriticalSection@ATL@@QAE@XZ 0062b800 f i AGKWindows:atlbase.obj
 0002:00117830       ??1CComCriticalSection@ATL@@QAE@XZ 0062b830 f i AGKWindows:atlbase.obj
 0002:00117840       ?Init@CComCriticalSection@ATL@@QAEJXZ 0062b840 f i AGKWindows:atlbase.obj
 0002:00117890       ?Term@CComCriticalSection@ATL@@QAEJXZ 0062b890 f i AGKWindows:atlbase.obj
 0002:001178b0       ??0?$CComCritSecLock@VCComCriticalSection@ATL@@@ATL@@QAE@AAVCComCriticalSection@1@_N@Z 0062b8b0 f i AGKWindows:atlbase.obj
 0002:00117910       ??1?$CComCritSecLock@VCComCriticalSection@ATL@@@ATL@@QAE@XZ 0062b910 f i AGKWindows:atlbase.obj
 0002:00117940       ?Lock@?$CComCritSecLock@VCComCriticalSection@ATL@@@ATL@@QAEJXZ 0062b940 f i AGKWindows:atlbase.obj
 0002:001179c0       ?Lock@CComCriticalSection@ATL@@QAEJXZ 0062b9c0 f i AGKWindows:atlbase.obj
 0002:001179e0       ?Unlock@?$CComCritSecLock@VCComCriticalSection@ATL@@@ATL@@QAEXXZ 0062b9e0 f i AGKWindows:atlbase.obj
 0002:00117a50       ?Unlock@CComCriticalSection@ATL@@QAEJXZ 0062ba50 f i AGKWindows:atlbase.obj
 0002:00117a70       ??0b2StackAllocator@@QAE@XZ 0062ba70 f   AGKWindows:b2StackAllocator.obj
 0002:00117ac0       ??1b2StackAllocator@@QAE@XZ 0062bac0 f   AGKWindows:b2StackAllocator.obj
 0002:00117b20       ?Allocate@b2StackAllocator@@QAEPAXH@Z 0062bb20 f   AGKWindows:b2StackAllocator.obj
 0002:00117c40       ?Free@b2StackAllocator@@QAEXPAX@Z 0062bc40 f   AGKWindows:b2StackAllocator.obj
 0002:00117d30       ?GetMaxAllocation@b2StackAllocator@@QBEHXZ 0062bd30 f   AGKWindows:b2StackAllocator.obj
 0002:00117e10       ??$b2Max@H@@YAHHH@Z        0062be10 f i AGKWindows:b2StackAllocator.obj
 0002:00117e50       ??0b2BlockAllocator@@QAE@XZ 0062be50 f   AGKWindows:b2BlockAllocator.obj
 0002:00117f60       ??1b2BlockAllocator@@QAE@XZ 0062bf60 f   AGKWindows:b2BlockAllocator.obj
 0002:00117fd0       ?Allocate@b2BlockAllocator@@QAEPAXH@Z 0062bfd0 f   AGKWindows:b2BlockAllocator.obj
 0002:00118240       ?Free@b2BlockAllocator@@QAEXPAXH@Z 0062c240 f   AGKWindows:b2BlockAllocator.obj
 0002:001183f0       ?Clear@b2BlockAllocator@@QAEXXZ 0062c3f0 f   AGKWindows:b2BlockAllocator.obj
 0002:00118610       ??0b2ContactManager@@QAE@XZ 0062c610 f   AGKWindows:b2ContactManager.obj
 0002:00118670       ?Destroy@b2ContactManager@@QAEXPAVb2Contact@@@Z 0062c670 f   AGKWindows:b2ContactManager.obj
 0002:00118810       ?Collide@b2ContactManager@@QAEXXZ 0062c810 f   AGKWindows:b2ContactManager.obj
 0002:00118a40       ?FindNewContacts@b2ContactManager@@QAEXXZ 0062ca40 f   AGKWindows:b2ContactManager.obj
 0002:00118a70       ?AddPair@b2ContactManager@@QAEXPAX0@Z 0062ca70 f   AGKWindows:b2ContactManager.obj
 0002:00118fd0       ?TestOverlap@b2BroadPhase@@QBE_NHH@Z 0062cfd0 f i AGKWindows:b2ContactManager.obj
 0002:00119050       ??$UpdatePairs@Vb2ContactManager@@@b2BroadPhase@@QAEXPAVb2ContactManager@@@Z 0062d050 f i AGKWindows:b2ContactManager.obj
 0002:00119220       ??$Query@Vb2BroadPhase@@@b2DynamicTree@@QBEXPAVb2BroadPhase@@ABUb2AABB@@@Z 0062d220 f i AGKWindows:b2ContactManager.obj
 0002:00119430       ??0b2ContactFilter@@QAE@XZ 0062d430 f i AGKWindows:b2ContactManager.obj
 0002:00119460       ??_Gb2ContactFilter@@UAEPAXI@Z 0062d460 f i AGKWindows:b2ContactManager.obj
 0002:00119460       ??_Eb2ContactFilter@@UAEPAXI@Z 0062d460 f i AGKWindows:b2ContactManager.obj
 0002:001194b0       ??1b2ContactFilter@@UAE@XZ 0062d4b0 f i AGKWindows:b2ContactManager.obj
 0002:001194e0       ??0b2ContactListener@@QAE@XZ 0062d4e0 f i AGKWindows:b2ContactManager.obj
 0002:00119510       ?BeginContact@b2ContactListener@@UAEXPAVb2Contact@@@Z 0062d510 f i AGKWindows:b2ContactManager.obj
 0002:00119530       ?EndContact@b2ContactListener@@UAEXPAVb2Contact@@@Z 0062d530 f i AGKWindows:b2ContactManager.obj
 0002:00119550       ?PreSolve@b2ContactListener@@UAEXPAVb2Contact@@PBUb2Manifold@@@Z 0062d550 f i AGKWindows:b2ContactManager.obj
 0002:00119570       ?PostSolve@b2ContactListener@@UAEXPAVb2Contact@@PBUb2ContactImpulse@@@Z 0062d570 f i AGKWindows:b2ContactManager.obj
 0002:00119590       ??_Eb2ContactListener@@UAEPAXI@Z 0062d590 f i AGKWindows:b2ContactManager.obj
 0002:00119590       ??_Gb2ContactListener@@UAEPAXI@Z 0062d590 f i AGKWindows:b2ContactManager.obj
 0002:001195e0       ??1b2ContactListener@@UAE@XZ 0062d5e0 f i AGKWindows:b2ContactManager.obj
 0002:00119610       ??0b2BroadPhase@@QAE@XZ    0062d610 f   AGKWindows:b2BroadPhase.obj
 0002:001196e0       ??1b2BroadPhase@@QAE@XZ    0062d6e0 f   AGKWindows:b2BroadPhase.obj
 0002:00119760       ?CreateProxy@b2BroadPhase@@QAEHABUb2AABB@@PAX@Z 0062d760 f   AGKWindows:b2BroadPhase.obj
 0002:001197c0       ?DestroyProxy@b2BroadPhase@@QAEXH@Z 0062d7c0 f   AGKWindows:b2BroadPhase.obj
 0002:00119810       ?MoveProxy@b2BroadPhase@@QAEXHABUb2AABB@@ABUb2Vec2@@@Z 0062d810 f   AGKWindows:b2BroadPhase.obj
 0002:00119870       ?TouchProxy@b2BroadPhase@@QAEXH@Z 0062d870 f   AGKWindows:b2BroadPhase.obj
 0002:001198a0       ?BufferMove@b2BroadPhase@@AAEXH@Z 0062d8a0 f   AGKWindows:b2BroadPhase.obj
 0002:00119950       ?UnBufferMove@b2BroadPhase@@AAEXH@Z 0062d950 f   AGKWindows:b2BroadPhase.obj
 0002:001199b0       ?QueryCallback@b2BroadPhase@@AAE_NH@Z 0062d9b0 f   AGKWindows:b2BroadPhase.obj
 0002:00119be0       ??$b2Min@H@@YAHHH@Z        0062dbe0 f i AGKWindows:b2BroadPhase.obj
 0002:00119c20       ??0b2Fixture@@IAE@XZ       0062dc20 f   AGKWindows:b2Fixture.obj
 0002:00119c80       ?Create@b2Fixture@@IAEXPAVb2BlockAllocator@@PAVb2Body@@PBUb2FixtureDef@@@Z 0062dc80 f   AGKWindows:b2Fixture.obj
 0002:00119dc0       ?Destroy@b2Fixture@@IAEXPAVb2BlockAllocator@@@Z 0062ddc0 f   AGKWindows:b2Fixture.obj
 0002:00119f70       ?CreateProxies@b2Fixture@@IAEXPAVb2BroadPhase@@ABUb2Transform@@@Z 0062df70 f   AGKWindows:b2Fixture.obj
 0002:0011a060       ?DestroyProxies@b2Fixture@@IAEXPAVb2BroadPhase@@@Z 0062e060 f   AGKWindows:b2Fixture.obj
 0002:0011a0e0       ?Synchronize@b2Fixture@@IAEXPAVb2BroadPhase@@ABUb2Transform@@1@Z 0062e0e0 f   AGKWindows:b2Fixture.obj
 0002:0011a260       ?SetFilterData@b2Fixture@@QAEXABUb2Filter@@@Z 0062e260 f   AGKWindows:b2Fixture.obj
 0002:0011a2a0       ?Refilter@b2Fixture@@QAEXXZ 0062e2a0 f   AGKWindows:b2Fixture.obj
 0002:0011a3a0       ?SetSensor@b2Fixture@@QAEX_N@Z 0062e3a0 f   AGKWindows:b2Fixture.obj
 0002:0011a5e0       ?Combine@b2AABB@@QAEXABU1@0@Z 0062e5e0 f i AGKWindows:b2Fixture.obj
 0002:0011a680       ?GetWorld@b2Body@@QAEPAVb2World@@XZ 0062e680 f i AGKWindows:b2Fixture.obj
 0002:0011a6a0       ?Create@b2Joint@@KAPAV1@PBUb2JointDef@@PAVb2BlockAllocator@@@Z 0062e6a0 f   AGKWindows:b2Joint.obj
 0002:0011abb0       ?Destroy@b2Joint@@KAXPAV1@PAVb2BlockAllocator@@@Z 0062ebb0 f   AGKWindows:b2Joint.obj
 0002:0011ad20       ??0b2Joint@@IAE@PBUb2JointDef@@@Z 0062ed20 f   AGKWindows:b2Joint.obj
 0002:0011ae20       ?IsActive@b2Joint@@QBE_NXZ 0062ee20 f   AGKWindows:b2Joint.obj
 0002:0011b080       ??0b2Island@@QAE@HHHPAVb2StackAllocator@@PAVb2ContactListener@@@Z 0062f080 f   AGKWindows:b2Island.obj
 0002:0011b170       ??1b2Island@@QAE@XZ        0062f170 f   AGKWindows:b2Island.obj
 0002:0011b1f0       ?Solve@b2Island@@QAEXPAUb2Profile@@ABUb2TimeStep@@ABUb2Vec2@@_N@Z 0062f1f0 f   AGKWindows:b2Island.obj
 0002:0011bd10       ?SolveTOI@b2Island@@QAEXABUb2TimeStep@@HH@Z 0062fd10 f   AGKWindows:b2Island.obj
 0002:0011c330       ?Report@b2Island@@QAEXPBUb2ContactVelocityConstraint@@@Z 00630330 f   AGKWindows:b2Island.obj
 0002:0011c970       ??0b2Timer@@QAE@XZ         00630970 f   AGKWindows:b2Timer.obj
 0002:0011ca40       ?Reset@b2Timer@@QAEXXZ     00630a40 f   AGKWindows:b2Timer.obj
 0002:0011cac0       ?GetMilliseconds@b2Timer@@QBEMXZ 00630ac0 f   AGKWindows:b2Timer.obj
 0002:0011cbd0       ?InitializeRegisters@b2Contact@@KAXXZ 00630bd0 f   AGKWindows:b2Contact.obj
 0002:0011cc80       ?AddType@b2Contact@@KAXP6APAV1@PAVb2Fixture@@H0HPAVb2BlockAllocator@@@ZP6AXPAV1@1@ZW4Type@b2Shape@@5@Z 00630c80 f   AGKWindows:b2Contact.obj
 0002:0011cd60       ?Create@b2Contact@@KAPAV1@PAVb2Fixture@@H0HPAVb2BlockAllocator@@@Z 00630d60 f   AGKWindows:b2Contact.obj
 0002:0011ce80       ?Destroy@b2Contact@@KAXPAV1@PAVb2BlockAllocator@@@Z 00630e80 f   AGKWindows:b2Contact.obj
 0002:0011cfa0       ??0b2Contact@@IAE@PAVb2Fixture@@H0H@Z 00630fa0 f   AGKWindows:b2Contact.obj
 0002:0011d0e0       ?Update@b2Contact@@IAEXPAVb2ContactListener@@@Z 006310e0 f   AGKWindows:b2Contact.obj
 0002:0011d670       ?b2MixRestitution@@YAMMM@Z 00631670 f i AGKWindows:b2Contact.obj
 0002:0011d6b0       ??_Eb2Contact@@MAEPAXI@Z   006316b0 f i AGKWindows:b2Contact.obj
 0002:0011d6b0       ??_Gb2Contact@@MAEPAXI@Z   006316b0 f i AGKWindows:b2Contact.obj
 0002:0011d700       ??1b2Contact@@MAE@XZ       00631700 f i AGKWindows:b2Contact.obj
 0002:0011d730       ?b2TimeOfImpact@@YAXPAUb2TOIOutput@@PBUb2TOIInput@@@Z 00631730 f   AGKWindows:b2TimeOfImpact.obj
 0002:0011df80       ?GetTransform@b2Sweep@@QBEXPAUb2Transform@@M@Z 00631f80 f i AGKWindows:b2TimeOfImpact.obj
 0002:0011e090       ?Normalize@b2Sweep@@QAEXXZ 00632090 f i AGKWindows:b2TimeOfImpact.obj
 0002:0011e120       ?Initialize@b2SeparationFunction@@QAEMPBUb2SimplexCache@@PBUb2DistanceProxy@@ABUb2Sweep@@12M@Z 00632120 f i AGKWindows:b2TimeOfImpact.obj
 0002:0011e9b0       ?GetVertex@b2DistanceProxy@@QBEABUb2Vec2@@H@Z 006329b0 f i AGKWindows:b2TimeOfImpact.obj
 0002:0011ea20       ?FindMinSeparation@b2SeparationFunction@@QBEMPAH0M@Z 00632a20 f i AGKWindows:b2TimeOfImpact.obj
 0002:0011f0a0       ?GetSupport@b2DistanceProxy@@QBEHABUb2Vec2@@@Z 006330a0 f i AGKWindows:b2TimeOfImpact.obj
 0002:0011f170       ?Evaluate@b2SeparationFunction@@QBEMHHM@Z 00633170 f i AGKWindows:b2TimeOfImpact.obj
 0002:0011f750       ??0b2SeparationFunction@@QAE@XZ 00633750 f i AGKWindows:b2TimeOfImpact.obj
 0002:0011f7b0       ?Set@b2DistanceProxy@@QAEXPBVb2Shape@@H@Z 006337b0 f   AGKWindows:b2Distance.obj
 0002:0011f970       ?Solve2@b2Simplex@@QAEXXZ  00633970 f   AGKWindows:b2Distance.obj
 0002:0011fad0       ?Solve3@b2Simplex@@QAEXXZ  00633ad0 f   AGKWindows:b2Distance.obj
 0002:0011ffb0       ?b2Distance@@YAXPAUb2DistanceOutput@@PAUb2SimplexCache@@PBUb2DistanceInput@@@Z 00633fb0 f   AGKWindows:b2Distance.obj
 0002:00120a50       ?GetVertex@b2ChainShape@@QBEABUb2Vec2@@H@Z 00634a50 f i AGKWindows:b2Distance.obj
 0002:00120ac0       ?b2Distance@@YAMABUb2Vec2@@0@Z 00634ac0 f i AGKWindows:b2Distance.obj
 0002:00120b50       ?ReadCache@b2Simplex@@QAEXPBUb2SimplexCache@@PBUb2DistanceProxy@@ABUb2Transform@@12@Z 00634b50 f i AGKWindows:b2Distance.obj
 0002:00120f00       ?WriteCache@b2Simplex@@QBEXPAUb2SimplexCache@@@Z 00634f00 f i AGKWindows:b2Distance.obj
 0002:00120fc0       ?GetSearchDirection@b2Simplex@@QBE?AUb2Vec2@@XZ 00634fc0 f i AGKWindows:b2Distance.obj
 0002:00121160       ?GetClosestPoint@b2Simplex@@QBE?AUb2Vec2@@XZ 00635160 f i AGKWindows:b2Distance.obj
 0002:00121300       ?GetWitnessPoints@b2Simplex@@QBEXPAUb2Vec2@@0@Z 00635300 f i AGKWindows:b2Distance.obj
 0002:00121580       ?GetMetric@b2Simplex@@QBEMXZ 00635580 f i AGKWindows:b2Distance.obj
 0002:001216c0       ??0b2Simplex@@QAE@XZ       006356c0 f i AGKWindows:b2Distance.obj
 0002:00121710       ??0b2SimplexVertex@@QAE@XZ 00635710 f i AGKWindows:b2Distance.obj
 0002:00121760       ??0b2DynamicTree@@QAE@XZ   00635760 f   AGKWindows:b2DynamicTree.obj
 0002:00121880       ??1b2DynamicTree@@QAE@XZ   00635880 f   AGKWindows:b2DynamicTree.obj
 0002:001218b0       ?AllocateNode@b2DynamicTree@@AAEHXZ 006358b0 f   AGKWindows:b2DynamicTree.obj
 0002:00121a90       ?FreeNode@b2DynamicTree@@AAEXH@Z 00635a90 f   AGKWindows:b2DynamicTree.obj
 0002:00121b40       ?CreateProxy@b2DynamicTree@@QAEHABUb2AABB@@PAX@Z 00635b40 f   AGKWindows:b2DynamicTree.obj
 0002:00121c50       ?DestroyProxy@b2DynamicTree@@QAEXH@Z 00635c50 f   AGKWindows:b2DynamicTree.obj
 0002:00121ce0       ?MoveProxy@b2DynamicTree@@QAE_NHABUb2AABB@@ABUb2Vec2@@@Z 00635ce0 f   AGKWindows:b2DynamicTree.obj
 0002:00121f00       ?InsertLeaf@b2DynamicTree@@AAEXH@Z 00635f00 f   AGKWindows:b2DynamicTree.obj
 0002:00122580       ?RemoveLeaf@b2DynamicTree@@AAEXH@Z 00636580 f   AGKWindows:b2DynamicTree.obj
 0002:00122790       ?Balance@b2DynamicTree@@AAEHH@Z 00636790 f   AGKWindows:b2DynamicTree.obj
 0002:00122d10       ?GetHeight@b2DynamicTree@@QBEHXZ 00636d10 f   AGKWindows:b2DynamicTree.obj
 0002:00122d40       ?GetAreaRatio@b2DynamicTree@@QBEMXZ 00636d40 f   AGKWindows:b2DynamicTree.obj
 0002:00122e00       ?ComputeHeight@b2DynamicTree@@ABEHH@Z 00636e00 f   AGKWindows:b2DynamicTree.obj
 0002:00122eb0       ?ComputeHeight@b2DynamicTree@@ABEHXZ 00636eb0 f   AGKWindows:b2DynamicTree.obj
 0002:00122ef0       ?ValidateStructure@b2DynamicTree@@ABEXH@Z 00636ef0 f   AGKWindows:b2DynamicTree.obj
 0002:001230b0       ?ValidateMetrics@b2DynamicTree@@ABEXH@Z 006370b0 f   AGKWindows:b2DynamicTree.obj
 0002:00123310       ?Validate@b2DynamicTree@@QBEXXZ 00637310 f   AGKWindows:b2DynamicTree.obj
 0002:00123410       ?GetMaxBalance@b2DynamicTree@@QBEHXZ 00637410 f   AGKWindows:b2DynamicTree.obj
 0002:00123510       ?RebuildBottomUp@b2DynamicTree@@QAEXXZ 00637510 f   AGKWindows:b2DynamicTree.obj
 0002:001240b0       ?Contains@b2AABB@@QBE_NABU1@@Z 006380b0 f i AGKWindows:b2DynamicTree.obj
 0002:001241f0       ?GetPerimeter@b2AABB@@QBEMXZ 006381f0 f i AGKWindows:b2DynamicTree.obj
 0002:00124250       ??8@YA_NABUb2Vec2@@0@Z     00638250 f i AGKWindows:b2DynamicTree.obj
 0002:001242b0       ??$b2Abs@H@@YAHH@Z         006382b0 f i AGKWindows:b2DynamicTree.obj
 0002:001242f0       ?b2Alloc@@YAPAXH@Z         006382f0 f   AGKWindows:b2Settings.obj
 0002:00124310       ?b2Free@@YAXPAX@Z          00638310 f   AGKWindows:b2Settings.obj
 0002:00124340       _compress2                 00638340 f   AGKWindows:compress.obj
 0002:00124460       _compress                  00638460 f   AGKWindows:compress.obj
 0002:00124490       _compressBound             00638490 f   AGKWindows:compress.obj
 0002:00124510       _DGifOpenFileName          00638510 f   AGKWindows:dgif_lib.obj
 0002:00124570       _DGifOpenFileHandle        00638570 f   AGKWindows:dgif_lib.obj
 0002:001247f0       _DGifOpen                  006387f0 f   AGKWindows:dgif_lib.obj
 0002:00124a00       _DGifGetScreenDesc         00638a00 f   AGKWindows:dgif_lib.obj
 0002:00124c80       _DGifGetRecordType         00638c80 f   AGKWindows:dgif_lib.obj
 0002:00124dc0       _DGifGetImageDesc          00638dc0 f   AGKWindows:dgif_lib.obj
 0002:001251c0       _DGifGetLine               006391c0 f   AGKWindows:dgif_lib.obj
 0002:001252c0       _DGifGetPixel              006392c0 f   AGKWindows:dgif_lib.obj
 0002:001253b0       _DGifGetExtension          006393b0 f   AGKWindows:dgif_lib.obj
 0002:001254a0       _DGifGetExtensionNext      006394a0 f   AGKWindows:dgif_lib.obj
 0002:00125610       _DGifCloseFile             00639610 f   AGKWindows:dgif_lib.obj
 0002:001257f0       _DGifGetCode               006397f0 f   AGKWindows:dgif_lib.obj
 0002:00125850       _DGifGetCodeNext           00639850 f   AGKWindows:dgif_lib.obj
 0002:00125fb0       _DGifGetLZCodes            00639fb0 f   AGKWindows:dgif_lib.obj
 0002:001263b0       _DGifSlurp                 0063a3b0 f   AGKWindows:dgif_lib.obj
 0002:00126de0       ?Count@Point2D@AGK@@SAHPBV12@@Z 0063ade0 f   AGKWindows:Physics.obj
 0002:00126e30       ?ConvexHull2D@Physics@AGK@@SAPAVPoint2D@2@HHPAE@Z 0063ae30 f   AGKWindows:Physics.obj
 0002:00127100       ?ConvexHullCleanPoints@Physics@AGK@@SAXAAPAVPoint2D@2@M@Z 0063b100 f   AGKWindows:Physics.obj
 0002:00127440       ?ConvexHullReducePoints@Physics@AGK@@SAXAAPAVPoint2D@2@H@Z 0063b440 f   AGKWindows:Physics.obj
 0002:00127820       ?ConvexHullAddPoint@Physics@AGK@@SAXAAPAVPoint2D@2@MM@Z 0063b820 f   AGKWindows:Physics.obj
 0002:00127d60       ?IsPointInConvexHull@Physics@AGK@@SA_NPAVPoint2D@2@MM@Z 0063bd60 f   AGKWindows:Physics.obj
 0002:001282a0       ??0Point2D@AGK@@QAE@XZ     0063c2a0 f i AGKWindows:Physics.obj
 0002:001282e0       ?Clone@b2CircleShape@@UBEPAVb2Shape@@PAVb2BlockAllocator@@@Z 0063c2e0 f   AGKWindows:b2CircleShape.obj
 0002:001283a0       ?GetChildCount@b2CircleShape@@UBEHXZ 0063c3a0 f   AGKWindows:b2CircleShape.obj
 0002:001283c0       ?TestPoint@b2CircleShape@@UBE_NABUb2Transform@@ABUb2Vec2@@@Z 0063c3c0 f   AGKWindows:b2CircleShape.obj
 0002:001284b0       ?RayCast@b2CircleShape@@UBE_NPAUb2RayCastOutput@@ABUb2RayCastInput@@ABUb2Transform@@H@Z 0063c4b0 f   AGKWindows:b2CircleShape.obj
 0002:001286a0       ?ComputeAABB@b2CircleShape@@UBEXPAUb2AABB@@ABUb2Transform@@H@Z 0063c6a0 f   AGKWindows:b2CircleShape.obj
 0002:00128780       ?ComputeMass@b2CircleShape@@UBEXPAUb2MassData@@M@Z 0063c780 f   AGKWindows:b2CircleShape.obj
 0002:00128960       ?b2CollidePolygons@@YAXPAUb2Manifold@@PBVb2PolygonShape@@ABUb2Transform@@12@Z 0063c960 f   AGKWindows:b2CollidePolygon.obj
 0002:00129ad0       ??0b2ClipVertex@@QAE@XZ    0063dad0 f i AGKWindows:b2CollidePolygon.obj
 0002:00129b00       _closesocket@4             0063db00 f   AGKWindows:WSOCK32.dll
 0002:00129b06       _bind@12                   0063db06 f   AGKWindows:WSOCK32.dll
 0002:00129b0c       _htons@4                   0063db0c f   AGKWindows:WSOCK32.dll
 0002:00129b12       _socket@12                 0063db12 f   AGKWindows:WSOCK32.dll
 0002:00129b18       _sendto@24                 0063db18 f   AGKWindows:WSOCK32.dll
 0002:00129b1e       _inet_addr@4               0063db1e f   AGKWindows:WSOCK32.dll
 0002:00129b24       _inet_ntoa@4               0063db24 f   AGKWindows:WSOCK32.dll
 0002:00129b2a       _recvfrom@24               0063db2a f   AGKWindows:WSOCK32.dll
 0002:00129b30       _ioctlsocket@12            0063db30 f   AGKWindows:WSOCK32.dll
 0002:00129b36       _getpeername@12            0063db36 f   AGKWindows:WSOCK32.dll
 0002:00129b3c       _recv@16                   0063db3c f   AGKWindows:WSOCK32.dll
 0002:00129b42       _shutdown@8                0063db42 f   AGKWindows:WSOCK32.dll
 0002:00129b48       _connect@12                0063db48 f   AGKWindows:WSOCK32.dll
 0002:00129b4e       _setsockopt@20             0063db4e f   AGKWindows:WSOCK32.dll
 0002:00129b54       _WSAGetLastError@0         0063db54 f   AGKWindows:WSOCK32.dll
 0002:00129b5a       _send@16                   0063db5a f   AGKWindows:WSOCK32.dll
 0002:00129b60       _accept@12                 0063db60 f   AGKWindows:WSOCK32.dll
 0002:00129b66       _listen@8                  0063db66 f   AGKWindows:WSOCK32.dll
 0002:00129b6c       _InternetCloseHandle@4     0063db6c f   AGKWindows:WININET.dll
 0002:00129b72       _InternetConnectA@32       0063db72 f   AGKWindows:WININET.dll
 0002:00129b78       _InternetOpenA@20          0063db78 f   AGKWindows:WININET.dll
 0002:00129b7e       _InternetReadFile@16       0063db7e f   AGKWindows:WININET.dll
 0002:00129b84       _HttpQueryInfoA@20         0063db84 f   AGKWindows:WININET.dll
 0002:00129b8a       _HttpEndRequestA@16        0063db8a f   AGKWindows:WININET.dll
 0002:00129b90       _InternetWriteFile@16      0063db90 f   AGKWindows:WININET.dll
 0002:00129b96       _HttpSendRequestExA@20     0063db96 f   AGKWindows:WININET.dll
 0002:00129b9c       _HttpAddRequestHeadersA@16 0063db9c f   AGKWindows:WININET.dll
 0002:00129ba2       _HttpOpenRequestA@32       0063dba2 f   AGKWindows:WININET.dll
 0002:00129ba8       _HttpSendRequestA@20       0063dba8 f   AGKWindows:WININET.dll
 0002:00129bb0       _LoadCentralDirectoryRecord 0063dbb0 f   AGKWindows:zip.obj
 0002:0012b0e0       _zipOpen3                  0063f0e0 f   AGKWindows:zip.obj
 0002:0012b340       _zipOpen2                  0063f340 f   AGKWindows:zip.obj
 0002:0012b3f0       _zipOpen2_64               0063f3f0 f   AGKWindows:zip.obj
 0002:0012b4b0       _zipOpen                   0063f4b0 f   AGKWindows:zip.obj
 0002:0012b4d0       _zipOpen64                 0063f4d0 f   AGKWindows:zip.obj
 0002:0012b4f0       _Write_LocalFileHeader     0063f4f0 f   AGKWindows:zip.obj
 0002:0012b9c0       _zipOpenNewFileInZip4_64   0063f9c0 f   AGKWindows:zip.obj
 0002:0012c1c0       _zipOpenNewFileInZip4      006401c0 f   AGKWindows:zip.obj
 0002:0012c220       _zipOpenNewFileInZip3      00640220 f   AGKWindows:zip.obj
 0002:0012c280       _zipOpenNewFileInZip3_64   00640280 f   AGKWindows:zip.obj
 0002:0012c2e0       _zipOpenNewFileInZip2      006402e0 f   AGKWindows:zip.obj
 0002:0012c330       _zipOpenNewFileInZip2_64   00640330 f   AGKWindows:zip.obj
 0002:0012c390       _zipOpenNewFileInZip64     00640390 f   AGKWindows:zip.obj
 0002:0012c3e0       _zipOpenNewFileInZip       006403e0 f   AGKWindows:zip.obj
 0002:0012c430       _zipWriteInFileInZip       00640430 f   AGKWindows:zip.obj
 0002:0012c720       _zipCloseFileInZipRaw      00640720 f   AGKWindows:zip.obj
 0002:0012c750       _zipCloseFileInZipRaw64    00640750 f   AGKWindows:zip.obj
 0002:0012ce60       _zipCloseFileInZip         00640e60 f   AGKWindows:zip.obj
 0002:0012ce80       _Write_Zip64EndOfCentralDirectoryLocator 00640e80 f   AGKWindows:zip.obj
 0002:0012cf60       _Write_Zip64EndOfCentralDirectoryRecord 00640f60 f   AGKWindows:zip.obj
 0002:0012d130       _Write_EndOfCentralDirectoryRecord 00641130 f   AGKWindows:zip.obj
 0002:0012d340       _Write_GlobalComment       00641340 f   AGKWindows:zip.obj
 0002:0012d3f0       _zipClose                  006413f0 f   AGKWindows:zip.obj
 0002:0012d6c0       _zipRemoveExtraInfoBlock   006416c0 f   AGKWindows:zip.obj
 0002:0012e720       _unzStringFileNameCompare  00642720 f   AGKWindows:unzip.obj
 0002:0012e830       _unzOpen2                  00642830 f   AGKWindows:unzip.obj
 0002:0012fb50       _unzOpen2_64               00643b50 f   AGKWindows:unzip.obj
 0002:0012fc00       _unzOpen                   00643c00 f   AGKWindows:unzip.obj
 0002:0012fc20       _unzOpen64                 00643c20 f   AGKWindows:unzip.obj
 0002:0012fc40       _unzClose                  00643c40 f   AGKWindows:unzip.obj
 0002:0012fcc0       _unzGetGlobalInfo64        00643cc0 f   AGKWindows:unzip.obj
 0002:0012fd10       _unzGetGlobalInfo          00643d10 f   AGKWindows:unzip.obj
 0002:0012fd50       _unzGetCurrentFileInfo64   00643d50 f   AGKWindows:unzip.obj
 0002:001306f0       _unzGetCurrentFileInfo     006446f0 f   AGKWindows:unzip.obj
 0002:00130850       _unzGoToFirstFile          00644850 f   AGKWindows:unzip.obj
 0002:00130900       _unzGoToNextFile           00644900 f   AGKWindows:unzip.obj
 0002:00130a50       _unzLocateFile             00644a50 f   AGKWindows:unzip.obj
 0002:00130c80       _unzGetFilePos64           00644c80 f   AGKWindows:unzip.obj
 0002:00130d00       _unzGetFilePos             00644d00 f   AGKWindows:unzip.obj
 0002:00130db0       _unzGoToFilePos64          00644db0 f   AGKWindows:unzip.obj
 0002:00130e60       _unzGoToFilePos            00644e60 f   AGKWindows:unzip.obj
 0002:00130f10       _unzOpenCurrentFile3       00644f10 f   AGKWindows:unzip.obj
 0002:00131700       _unzOpenCurrentFile        00645700 f   AGKWindows:unzip.obj
 0002:00131720       _unzOpenCurrentFilePassword 00645720 f   AGKWindows:unzip.obj
 0002:00131750       _unzOpenCurrentFile2       00645750 f   AGKWindows:unzip.obj
 0002:00131780       _unzGetCurrentFileZStreamPos64 00645780 f   AGKWindows:unzip.obj
 0002:001317e0       _unzReadCurrentFile        006457e0 f   AGKWindows:unzip.obj
 0002:00131ce0       _unztell                   00645ce0 f   AGKWindows:unzip.obj
 0002:00131d30       _unztell64                 00645d30 f   AGKWindows:unzip.obj
 0002:00131d80       _unzeof                    00645d80 f   AGKWindows:unzip.obj
 0002:00131df0       _unzGetLocalExtrafield     00645df0 f   AGKWindows:unzip.obj
 0002:00131f30       _unzCloseCurrentFile       00645f30 f   AGKWindows:unzip.obj
 0002:00132030       _unzGetGlobalComment       00646030 f   AGKWindows:unzip.obj
 0002:00132120       _unzGetOffset64            00646120 f   AGKWindows:unzip.obj
 0002:001321e0       _unzGetOffset              006461e0 f   AGKWindows:unzip.obj
 0002:00132230       _unzSetOffset64            00646230 f   AGKWindows:unzip.obj
 0002:001322d0       _unzSetOffset              006462d0 f   AGKWindows:unzip.obj
 0002:001331f0       ?Solve33@b2Mat33@@QBE?AUb2Vec3@@ABU2@@Z 006471f0 f   AGKWindows:b2Math.obj
 0002:00133330       ?Solve22@b2Mat33@@QBE?AUb2Vec2@@ABU2@@Z 00647330 f   AGKWindows:b2Math.obj
 0002:001334b0       ?b2Dot@@YAMABUb2Vec3@@0@Z  006474b0 f i AGKWindows:b2Math.obj
 0002:00133500       ?b2Cross@@YA?AUb2Vec3@@ABU1@0@Z 00647500 f i AGKWindows:b2Math.obj
 0002:001335d0       ?Init@CAtlAllocator@@QAE_NPBDK@Z 006475d0 f   AGKWindows:Allocate.obj
 0002:001339d0       ?IncRef@CAtlTraceProcess@@QAEIXZ 006479d0 f i AGKWindows:Allocate.obj
 0002:00133a10       ?Base@CAtlTraceProcess@@QBEPAXXZ 00647a10 f i AGKWindows:Allocate.obj
 0002:00133a30       ?Open@CAtlAllocator@@QAE_NPBD@Z 00647a30 f   AGKWindows:Allocate.obj
 0002:00133bc0       ?Close@CAtlAllocator@@QAEX_N@Z 00647bc0 f   AGKWindows:Allocate.obj
 0002:00133c40       ?DecRef@CAtlTraceProcess@@QAEIXZ 00647c40 f i AGKWindows:Allocate.obj
 0002:00133c80       ?GetModule@CAtlAllocator@@QBEPAVCAtlTraceModule@@H@Z 00647c80 f   AGKWindows:Allocate.obj
 0002:00133d40       ?ModuleCount@CAtlTraceProcess@@QBEHXZ 00647d40 f i AGKWindows:Allocate.obj
 0002:00133d60       ?GetCategory@CAtlAllocator@@QBEPAVCAtlTraceCategory@@H@Z 00647d60 f   AGKWindows:Allocate.obj
 0002:00133e40       ?MaxSize@CAtlTraceProcess@@QBEKXZ 00647e40 f i AGKWindows:Allocate.obj
 0002:00133e60       ?CategoryCount@CAtlTraceProcess@@QBEHXZ 00647e60 f i AGKWindows:Allocate.obj
 0002:00133e80       ?GetCategoryCount@CAtlAllocator@@QBEHH@Z 00647e80 f   AGKWindows:Allocate.obj
 0002:00133f20       ?GetCategoryCount@CAtlAllocator@@QBEHABVCAtlTraceModule@@@Z 00647f20 f   AGKWindows:Allocate.obj
 0002:00133fa0       ?GetModuleCount@CAtlAllocator@@QBEHXZ 00647fa0 f   AGKWindows:Allocate.obj
 0002:00134010       ?FindModule@CAtlAllocator@@QBE_NPB_WPAI@Z 00648010 f   AGKWindows:Allocate.obj
 0002:001340b0       ?AddModule@CAtlAllocator@@QAEHPAUHINSTANCE__@@@Z 006480b0 f   AGKWindows:Allocate.obj
 0002:001342f0       ?TryAllocate@CAtlTraceSettings@@QAE_NXZ 006482f0 f i AGKWindows:Allocate.obj
 0002:00134340       ?MarkValid@CAtlTraceSettings@@QAEXJ@Z 00648340 f i AGKWindows:Allocate.obj
 0002:00134390       ?IncModuleCount@CAtlTraceProcess@@QAEXI@Z 00648390 f i AGKWindows:Allocate.obj
 0002:001343c0       ?AddCategory@CAtlAllocator@@QAEHHPB_W@Z 006483c0 f   AGKWindows:Allocate.obj
 0002:00134680       ?TryAddRef@CAtlTraceSettings@@QAE_NXZ 00648680 f i AGKWindows:Allocate.obj
 0002:001346d0       ?Release@CAtlTraceSettings@@QAEXXZ 006486d0 f i AGKWindows:Allocate.obj
 0002:00134710       ?IncCategoryCount@CAtlTraceProcess@@QAEXI@Z 00648710 f i AGKWindows:Allocate.obj
 0002:00134740       ?RemoveModule@CAtlAllocator@@QAE_NH@Z 00648740 f   AGKWindows:Allocate.obj
 0002:00134820       ?CleanUp@CAtlAllocator@@QAEXXZ 00648820 f   AGKWindows:Allocate.obj
 0002:00134840       ?TakeSnapshot@CAtlAllocator@@QAEXXZ 00648840 f   AGKWindows:Allocate.obj
 0002:00134aa0       ?ReleaseSnapshot@CAtlAllocator@@QAEXXZ 00648aa0 f   AGKWindows:Allocate.obj
 0002:00134bb0       ?Add@?$CSimpleArray@UCModuleInfo@CTraceSnapshot@@V?$CSimpleArrayEqualHelper@UCModuleInfo@CTraceSnapshot@@@ATL@@@ATL@@QAEHABUCModuleInfo@CTraceSnapshot@@@Z 00648bb0 f i AGKWindows:Allocate.obj
 0002:00134d30       ?GetSize@?$CSimpleArray@KV?$CSimpleArrayEqualHelper@K@ATL@@@ATL@@QBEHXZ 00648d30 f i AGKWindows:Allocate.obj
 0002:00134d50       ?Add@?$CSimpleArray@KV?$CSimpleArrayEqualHelper@K@ATL@@@ATL@@QAEHABK@Z 00648d50 f i AGKWindows:Allocate.obj
 0002:00134ed0       ?RemoveAt@?$CSimpleArray@KV?$CSimpleArrayEqualHelper@K@ATL@@@ATL@@QAEHH@Z 00648ed0 f i AGKWindows:Allocate.obj
 0002:00134fc0       ??A?$CSimpleArray@KV?$CSimpleArrayEqualHelper@K@ATL@@@ATL@@QAEAAKH@Z 00648fc0 f i AGKWindows:Allocate.obj
 0002:00135050       ?InternalSetAtIndex@?$CSimpleArray@UCModuleInfo@CTraceSnapshot@@V?$CSimpleArrayEqualHelper@UCModuleInfo@CTraceSnapshot@@@ATL@@@ATL@@QAEXHABUCModuleInfo@CTraceSnapshot@@@Z 00649050 f i AGKWindows:Allocate.obj
 0002:001350b0       ?InternalSetAtIndex@?$CSimpleArray@KV?$CSimpleArrayEqualHelper@K@ATL@@@ATL@@QAEXHABK@Z 006490b0 f i AGKWindows:Allocate.obj
 0002:00135110       ??0Wrapper@?$CSimpleArray@UCModuleInfo@CTraceSnapshot@@V?$CSimpleArrayEqualHelper@UCModuleInfo@CTraceSnapshot@@@ATL@@@ATL@@QAE@ABUCModuleInfo@CTraceSnapshot@@@Z 00649110 f i AGKWindows:Allocate.obj
 0002:00135150       ??0Wrapper@?$CSimpleArray@KV?$CSimpleArrayEqualHelper@K@ATL@@@ATL@@QAE@ABK@Z 00649150 f i AGKWindows:Allocate.obj
 0002:00135180       ??$?2UCModuleInfo@CTraceSnapshot@@@Wrapper@?$CSimpleArray@UCModuleInfo@CTraceSnapshot@@V?$CSimpleArrayEqualHelper@UCModuleInfo@CTraceSnapshot@@@ATL@@@ATL@@SAPAXIPAUCModuleInfo@CTraceSnapshot@@@Z 00649180 f i AGKWindows:Allocate.obj
 0002:00135190       ??$?2K@Wrapper@?$CSimpleArray@KV?$CSimpleArrayEqualHelper@K@ATL@@@ATL@@SAPAXIPAK@Z 00649190 f i AGKWindows:Allocate.obj
 0002:001351a0       ??0CAtlTraceModuleInfo@@QAE@XZ 006491a0 f   AGKWindows:AtlTraceModuleManager.obj
 0002:00135200       ?Reset@CAtlTraceModuleInfo@@QAEXPAUHINSTANCE__@@@Z 00649200 f   AGKWindows:AtlTraceModuleManager.obj
 0002:00135390       ??0CAtlTraceCategory@@QAE@XZ 00649390 f   AGKWindows:AtlTraceModuleManager.obj
 0002:001353e0       ??0CAtlTraceSettings@@QAE@XZ 006493e0 f i AGKWindows:AtlTraceModuleManager.obj
 0002:00135430       ?Reset@CAtlTraceCategory@@QAEXPB_WJ@Z 00649430 f   AGKWindows:AtlTraceModuleManager.obj
 0002:00135490       ??0CAtlTraceModule@@QAE@XZ 00649490 f   AGKWindows:AtlTraceModuleManager.obj
 0002:001354d0       ?CrtDbgReport@CAtlTraceModule@@QAEXP6AHHPBDH00ZZ@Z 006494d0 f   AGKWindows:AtlTraceModuleManager.obj
 0002:00135510       ??0CAtlTraceProcess@@QAE@K@Z 00649510 f   AGKWindows:AtlTraceModuleManager.obj
 0002:00135620       ?GetNextCookie@CAtlTraceProcess@@QAEJXZ 00649620 f   AGKWindows:AtlTraceModuleManager.obj
 0002:00135650       ??1Reader@zxing@@UAE@XZ    00649650 f   AGKWindows:Reader.obj
 0002:00135680       ?decode@Reader@zxing@@UAE?AV?$Ref@VResult@zxing@@@2@V?$Ref@VBinaryBitmap@zxing@@@2@@Z 00649680 f   AGKWindows:Reader.obj
 0002:00135790       ??0Decoder@qrcode@zxing@@QAE@XZ 00649790 f   AGKWindows:Decoder.obj
 0002:001357c0       ?correctErrors@Decoder@qrcode@zxing@@AAEXV?$ArrayRef@E@3@H@Z 006497c0 f   AGKWindows:Decoder.obj
 0002:001359f0       ?decode@Decoder@qrcode@zxing@@QAE?AV?$Ref@VDecoderResult@zxing@@@3@V?$Ref@VBitMatrix@zxing@@@3@@Z 006499f0 f   AGKWindows:Decoder.obj
 0002:00135fd0       ??0ReaderException@zxing@@QAE@ABV01@@Z 00649fd0 f i AGKWindows:Decoder.obj
 0002:00136020       ??_EReaderException@zxing@@UAEPAXI@Z 0064a020 f i AGKWindows:Decoder.obj
 0002:00136020       ??_GReaderException@zxing@@UAEPAXI@Z 0064a020 f i AGKWindows:Decoder.obj
 0002:00136070       ??1BitMatrixParser@qrcode@zxing@@UAE@XZ 0064a070 f i AGKWindows:Decoder.obj
 0002:00136110       ??1?$map@IV?$basic_string@DU?$char_traits@D@std@@V?$allocator@D@2@@std@@U?$less@I@2@V?$allocator@U?$pair@$$CBIV?$basic_string@DU?$char_traits@D@std@@V?$allocator@D@2@@std@@@std@@@2@@std@@QAE@XZ 0064a110 f i AGKWindows:Decoder.obj
 0002:00136140       ??1?$Ref@VFormatInformation@qrcode@zxing@@@zxing@@QAE@XZ 0064a140 f i AGKWindows:Decoder.obj
 0002:00136180       ??C?$Ref@VFormatInformation@qrcode@zxing@@@zxing@@QBEPAVFormatInformation@qrcode@1@XZ 0064a180 f i AGKWindows:Decoder.obj
 0002:001361a0       ??0?$ArrayRef@H@zxing@@QAE@I@Z 0064a1a0 f i AGKWindows:Decoder.obj
 0002:001362a0       ??0?$ArrayRef@H@zxing@@QAE@ABV01@@Z 0064a2a0 f i AGKWindows:Decoder.obj
 0002:00136350       ??1?$ArrayRef@H@zxing@@UAE@XZ 0064a350 f i AGKWindows:Decoder.obj
 0002:00136400       ??A?$ArrayRef@H@zxing@@QAEAAHI@Z 0064a400 f i AGKWindows:Decoder.obj
 0002:00136440       ??1?$vector@V?$Ref@VDataBlock@qrcode@zxing@@@zxing@@V?$allocator@V?$Ref@VDataBlock@qrcode@zxing@@@zxing@@@std@@@std@@QAE@XZ 0064a440 f i AGKWindows:Decoder.obj
 0002:001364c0       ?size@?$vector@V?$Ref@VDataBlock@qrcode@zxing@@@zxing@@V?$allocator@V?$Ref@VDataBlock@qrcode@zxing@@@zxing@@@std@@@std@@QBEIXZ 0064a4c0 f i AGKWindows:Decoder.obj
 0002:001364f0       ??A?$vector@V?$Ref@VDataBlock@qrcode@zxing@@@zxing@@V?$allocator@V?$Ref@VDataBlock@qrcode@zxing@@@zxing@@@std@@@std@@QAEAAV?$Ref@VDataBlock@qrcode@zxing@@@zxing@@I@Z 0064a4f0 f i AGKWindows:Decoder.obj
 0002:001365b0       ??0?$Ref@VDataBlock@qrcode@zxing@@@zxing@@QAE@ABV01@@Z 0064a5b0 f i AGKWindows:Decoder.obj
 0002:00136600       ??1?$Ref@VDataBlock@qrcode@zxing@@@zxing@@QAE@XZ 0064a600 f i AGKWindows:Decoder.obj
 0002:00136640       ??C?$Ref@VDataBlock@qrcode@zxing@@@zxing@@QBEPAVDataBlock@qrcode@1@XZ 0064a640 f i AGKWindows:Decoder.obj
 0002:00136660       ??0?$map@IV?$basic_string@DU?$char_traits@D@std@@V?$allocator@D@2@@std@@U?$less@I@2@V?$allocator@U?$pair@$$CBIV?$basic_string@DU?$char_traits@D@std@@V?$allocator@D@2@@std@@@std@@@2@@std@@QAE@XZ 0064a660 f i AGKWindows:Decoder.obj
 0002:001366b0       ??1?$_Tree@V?$_Tmap_traits@IV?$basic_string@DU?$char_traits@D@std@@V?$allocator@D@2@@std@@U?$less@I@2@V?$allocator@U?$pair@$$CBIV?$basic_string@DU?$char_traits@D@std@@V?$allocator@D@2@@std@@@std@@@2@$0A@@std@@@std@@QAE@XZ 0064a6b0 f i AGKWindows:Decoder.obj
 0002:00136730       ??_E?$ArrayRef@H@zxing@@UAEPAXI@Z 0064a730 f i AGKWindows:Decoder.obj
 0002:00136730       ??_G?$ArrayRef@H@zxing@@UAEPAXI@Z 0064a730 f i AGKWindows:Decoder.obj
 0002:00136780       ?reset@?$ArrayRef@H@zxing@@QAEXPAV?$Array@H@2@@Z 0064a780 f i AGKWindows:Decoder.obj
 0002:001367e0       ??0?$Array@H@zxing@@QAE@I@Z 0064a7e0 f i AGKWindows:Decoder.obj
 0002:00136890       ??_G?$Array@H@zxing@@UAEPAXI@Z 0064a890 f i AGKWindows:Decoder.obj
 0002:00136890       ??_E?$Array@H@zxing@@UAEPAXI@Z 0064a890 f i AGKWindows:Decoder.obj
 0002:001368e0       ??1?$Array@H@zxing@@UAE@XZ 0064a8e0 f i AGKWindows:Decoder.obj
 0002:00136970       ??A?$Array@H@zxing@@QAEAAHI@Z 0064a970 f i AGKWindows:Decoder.obj
 0002:001369b0       ?_Tidy@?$vector@V?$Ref@VDataBlock@qrcode@zxing@@@zxing@@V?$allocator@V?$Ref@VDataBlock@qrcode@zxing@@@zxing@@@std@@@std@@IAEXXZ 0064a9b0 f i AGKWindows:Decoder.obj
 0002:00136a60       ??1?$_Vector_val@V?$Ref@VDataBlock@qrcode@zxing@@@zxing@@V?$allocator@V?$Ref@VDataBlock@qrcode@zxing@@@zxing@@@std@@@std@@QAE@XZ 0064aa60 f i AGKWindows:Decoder.obj
 0002:00136b70       ?reset@?$Ref@VDataBlock@qrcode@zxing@@@zxing@@QAEXPAVDataBlock@qrcode@2@@Z 0064ab70 f i AGKWindows:Decoder.obj
 0002:00136bd0       ??0?$_Tree@V?$_Tmap_traits@IV?$basic_string@DU?$char_traits@D@std@@V?$allocator@D@2@@std@@U?$less@I@2@V?$allocator@U?$pair@$$CBIV?$basic_string@DU?$char_traits@D@std@@V?$allocator@D@2@@std@@@std@@@2@$0A@@std@@@std@@QAE@ABU?$less@I@1@ABV?$allocator@U?$pair@$$CBIV?$basic_string@DU?$char_traits@D@std@@V?$allocator@D@2@@std@@@std@@@1@@Z 0064abd0 f i AGKWindows:Decoder.obj
 0002:00136c30       ?_Tidy@?$_Tree@V?$_Tmap_traits@IV?$basic_string@DU?$char_traits@D@std@@V?$allocator@D@2@@std@@U?$less@I@2@V?$allocator@U?$pair@$$CBIV?$basic_string@DU?$char_traits@D@std@@V?$allocator@D@2@@std@@@std@@@2@$0A@@std@@@std@@IAEXXZ 0064ac30 f i AGKWindows:Decoder.obj
 0002:00136d60       ??1?$_Tree_val@V?$_Tmap_traits@IV?$basic_string@DU?$char_traits@D@std@@V?$allocator@D@2@@std@@U?$less@I@2@V?$allocator@U?$pair@$$CBIV?$basic_string@DU?$char_traits@D@std@@V?$allocator@D@2@@std@@@std@@@2@$0A@@std@@@std@@QAE@XZ 0064ad60 f i AGKWindows:Decoder.obj
 0002:00136df0       ??0?$allocator@U?$pair@$$CBIV?$basic_string@DU?$char_traits@D@std@@V?$allocator@D@2@@std@@@std@@@std@@QAE@XZ 0064adf0 f i AGKWindows:Decoder.obj
 0002:00136e10       ??1?$_Tree_iterator@V?$_Tree_val@V?$_Tmap_traits@IV?$basic_string@DU?$char_traits@D@std@@V?$allocator@D@2@@std@@U?$less@I@2@V?$allocator@U?$pair@$$CBIV?$basic_string@DU?$char_traits@D@std@@V?$allocator@D@2@@std@@@std@@@2@$0A@@std@@@std@@@std@@QAE@XZ 0064ae10 f i AGKWindows:Decoder.obj
 0002:00136e40       ??0?$_Tree_const_iterator@V?$_Tree_val@V?$_Tmap_traits@IV?$basic_string@DU?$char_traits@D@std@@V?$allocator@D@2@@std@@U?$less@I@2@V?$allocator@U?$pair@$$CBIV?$basic_string@DU?$char_traits@D@std@@V?$allocator@D@2@@std@@@std@@@2@$0A@@std@@@std@@@std@@QAE@ABV01@@Z 0064ae40 f i AGKWindows:Decoder.obj
 0002:00136e80       ??1?$_Tree_const_iterator@V?$_Tree_val@V?$_Tmap_traits@IV?$basic_string@DU?$char_traits@D@std@@V?$allocator@D@2@@std@@U?$less@I@2@V?$allocator@U?$pair@$$CBIV?$basic_string@DU?$char_traits@D@std@@V?$allocator@D@2@@std@@@std@@@2@$0A@@std@@@std@@@std@@QAE@XZ 0064ae80 f i AGKWindows:Decoder.obj
 0002:00136eb0       ??0?$_Tree_unchecked_const_iterator@V?$_Tree_val@V?$_Tmap_traits@IV?$basic_string@DU?$char_traits@D@std@@V?$allocator@D@2@@std@@U?$less@I@2@V?$allocator@U?$pair@$$CBIV?$basic_string@DU?$char_traits@D@std@@V?$allocator@D@2@@std@@@std@@@2@$0A@@std@@@std@@U_Iterator_base12@2@@std@@QAE@ABV01@@Z 0064aeb0 f i AGKWindows:Decoder.obj
 0002:00136f00       ??1?$_Tree_unchecked_const_iterator@V?$_Tree_val@V?$_Tmap_traits@IV?$basic_string@DU?$char_traits@D@std@@V?$allocator@D@2@@std@@U?$less@I@2@V?$allocator@U?$pair@$$CBIV?$basic_string@DU?$char_traits@D@std@@V?$allocator@D@2@@std@@@std@@@2@$0A@@std@@@std@@U_Iterator_base12@2@@std@@QAE@XZ 0064af00 f i AGKWindows:Decoder.obj
 0002:00136f30       ??0?$_Iterator012@Ubidirectional_iterator_tag@std@@U?$pair@$$CBIV?$basic_string@DU?$char_traits@D@std@@V?$allocator@D@2@@std@@@2@HPBU32@ABU32@U_Iterator_base12@2@@std@@QAE@ABU01@@Z 0064af30 f i AGKWindows:Decoder.obj
 0002:00136f70       ??1?$_Iterator012@Ubidirectional_iterator_tag@std@@U?$pair@$$CBIV?$basic_string@DU?$char_traits@D@std@@V?$allocator@D@2@@std@@@2@HPBU32@ABU32@U_Iterator_base12@2@@std@@QAE@XZ 0064af70 f i AGKWindows:Decoder.obj
 0002:00136fa0       ??0?$vector@HV?$allocator@H@std@@@std@@QAE@IABH@Z 0064afa0 f i AGKWindows:Decoder.obj
 0002:00137060       ?_Destroy@?$vector@V?$Ref@VDataBlock@qrcode@zxing@@@zxing@@V?$allocator@V?$Ref@VDataBlock@qrcode@zxing@@@zxing@@@std@@@std@@IAEXPAV?$Ref@VDataBlock@qrcode@zxing@@@zxing@@0@Z 0064b060 f i AGKWindows:Decoder.obj
 0002:001370b0       ?deallocate@?$allocator@V?$Ref@VDataBlock@qrcode@zxing@@@zxing@@@std@@QAEXPAV?$Ref@VDataBlock@qrcode@zxing@@@zxing@@I@Z 0064b0b0 f i AGKWindows:Decoder.obj
 0002:001370f0       ?begin@?$_Tree@V?$_Tmap_traits@IV?$basic_string@DU?$char_traits@D@std@@V?$allocator@D@2@@std@@U?$less@I@2@V?$allocator@U?$pair@$$CBIV?$basic_string@DU?$char_traits@D@std@@V?$allocator@D@2@@std@@@std@@@2@$0A@@std@@@std@@QAE?AV?$_Tree_iterator@V?$_Tree_val@V?$_Tmap_traits@IV?$basic_string@DU?$char_traits@D@std@@V?$allocator@D@2@@std@@U?$less@I@2@V?$allocator@U?$pair@$$CBIV?$basic_string@DU?$char_traits@D@std@@V?$allocator@D@2@@std@@@std@@@2@$0A@@std@@@std@@@2@XZ 0064b0f0 f i AGKWindows:Decoder.obj
 0002:00137160       ?end@?$_Tree@V?$_Tmap_traits@IV?$basic_string@DU?$char_traits@D@std@@V?$allocator@D@2@@std@@U?$less@I@2@V?$allocator@U?$pair@$$CBIV?$basic_string@DU?$char_traits@D@std@@V?$allocator@D@2@@std@@@std@@@2@$0A@@std@@@std@@QAE?AV?$_Tree_iterator@V?$_Tree_val@V?$_Tmap_traits@IV?$basic_string@DU?$char_traits@D@std@@V?$allocator@D@2@@std@@U?$less@I@2@V?$allocator@U?$pair@$$CBIV?$basic_string@DU?$char_traits@D@std@@V?$allocator@D@2@@std@@@std@@@2@$0A@@std@@@std@@@2@XZ 0064b160 f i AGKWindows:Decoder.obj
 0002:001371c0       ?erase@?$_Tree@V?$_Tmap_traits@IV?$basic_string@DU?$char_traits@D@std@@V?$allocator@D@2@@std@@U?$less@I@2@V?$allocator@U?$pair@$$CBIV?$basic_string@DU?$char_traits@D@std@@V?$allocator@D@2@@std@@@std@@@2@$0A@@std@@@std@@QAE?AV?$_Tree_iterator@V?$_Tree_val@V?$_Tmap_traits@IV?$basic_string@DU?$char_traits@D@std@@V?$allocator@D@2@@std@@U?$less@I@2@V?$allocator@U?$pair@$$CBIV?$basic_string@DU?$char_traits@D@std@@V?$allocator@D@2@@std@@@std@@@2@$0A@@std@@@std@@@2@V?$_Tree_const_iterator@V?$_Tree_val@V?$_Tmap_traits@IV?$basic_string@DU?$char_traits@D@std@@V?$allocator@D@2@@std@@U?$less@I@2@V?$allocator@U?$pair@$$CBIV?$basic_string@DU?$char_traits@D@std@@V?$allocator@D@2@@std@@@std@@@2@$0A@@std@@@std@@@2@0@Z 0064b1c0 f i AGKWindows:Decoder.obj
 0002:00137440       ??0?$_Tree_val@V?$_Tmap_traits@IV?$basic_string@DU?$char_traits@D@std@@V?$allocator@D@2@@std@@U?$less@I@2@V?$allocator@U?$pair@$$CBIV?$basic_string@DU?$char_traits@D@std@@V?$allocator@D@2@@std@@@std@@@2@$0A@@std@@@std@@QAE@ABU?$less@I@1@V?$allocator@U?$pair@$$CBIV?$basic_string@DU?$char_traits@D@std@@V?$allocator@D@2@@std@@@std@@@1@@Z 0064b440 f i AGKWindows:Decoder.obj
 0002:00137590       ??1?$_Tree_nod@V?$_Tmap_traits@IV?$basic_string@DU?$char_traits@D@std@@V?$allocator@D@2@@std@@U?$less@I@2@V?$allocator@U?$pair@$$CBIV?$basic_string@DU?$char_traits@D@std@@V?$allocator@D@2@@std@@@std@@@2@$0A@@std@@@std@@QAE@XZ 0064b590 f i AGKWindows:Decoder.obj
 0002:001376a0       ??0?$allocator@U?$pair@$$CBIV?$basic_string@DU?$char_traits@D@std@@V?$allocator@D@2@@std@@@std@@@std@@QAE@ABV01@@Z 0064b6a0 f i AGKWindows:Decoder.obj
 0002:001376c0       ?deallocate@?$allocator@U_Node@?$_Tree_nod@V?$_Tmap_traits@IV?$basic_string@DU?$char_traits@D@std@@V?$allocator@D@2@@std@@U?$less@I@2@V?$allocator@U?$pair@$$CBIV?$basic_string@DU?$char_traits@D@std@@V?$allocator@D@2@@std@@@std@@@2@$0A@@std@@@std@@@std@@QAEXPAU_Node@?$_Tree_nod@V?$_Tmap_traits@IV?$basic_string@DU?$char_traits@D@std@@V?$allocator@D@2@@std@@U?$less@I@2@V?$allocator@U?$pair@$$CBIV?$basic_string@DU?$char_traits@D@std@@V?$allocator@D@2@@std@@@std@@@2@$0A@@std@@@2@I@Z 0064b6c0 f i AGKWindows:Decoder.obj
 0002:00137700       ??1?$_Tmap_traits@IV?$basic_string@DU?$char_traits@D@std@@V?$allocator@D@2@@std@@U?$less@I@2@V?$allocator@U?$pair@$$CBIV?$basic_string@DU?$char_traits@D@std@@V?$allocator@D@2@@std@@@std@@@2@$0A@@std@@QAE@XZ 0064b700 f i AGKWindows:Decoder.obj
 0002:00137730       ?erase@?$_Tree@V?$_Tmap_traits@IV?$basic_string@DU?$char_traits@D@std@@V?$allocator@D@2@@std@@U?$less@I@2@V?$allocator@U?$pair@$$CBIV?$basic_string@DU?$char_traits@D@std@@V?$allocator@D@2@@std@@@std@@@2@$0A@@std@@@std@@QAE?AV?$_Tree_iterator@V?$_Tree_val@V?$_Tmap_traits@IV?$basic_string@DU?$char_traits@D@std@@V?$allocator@D@2@@std@@U?$less@I@2@V?$allocator@U?$pair@$$CBIV?$basic_string@DU?$char_traits@D@std@@V?$allocator@D@2@@std@@@std@@@2@$0A@@std@@@std@@@2@V?$_Tree_const_iterator@V?$_Tree_val@V?$_Tmap_traits@IV?$basic_string@DU?$char_traits@D@std@@V?$allocator@D@2@@std@@U?$less@I@2@V?$allocator@U?$pair@$$CBIV?$basic_string@DU?$char_traits@D@std@@V?$allocator@D@2@@std@@@std@@@2@$0A@@std@@@std@@@2@@Z 0064b730 f i AGKWindows:Decoder.obj
 0002:00138160       ?clear@?$_Tree@V?$_Tmap_traits@IV?$basic_string@DU?$char_traits@D@std@@V?$allocator@D@2@@std@@U?$less@I@2@V?$allocator@U?$pair@$$CBIV?$basic_string@DU?$char_traits@D@std@@V?$allocator@D@2@@std@@@std@@@2@$0A@@std@@@std@@QAEXXZ 0064c160 f i AGKWindows:Decoder.obj
 0002:00138200       ?_Lmost@?$_Tree@V?$_Tmap_traits@IV?$basic_string@DU?$char_traits@D@std@@V?$allocator@D@2@@std@@U?$less@I@2@V?$allocator@U?$pair@$$CBIV?$basic_string@DU?$char_traits@D@std@@V?$allocator@D@2@@std@@@std@@@2@$0A@@std@@@std@@IBEAAPAU_Node@?$_Tree_nod@V?$_Tmap_traits@IV?$basic_string@DU?$char_traits@D@std@@V?$allocator@D@2@@std@@U?$less@I@2@V?$allocator@U?$pair@$$CBIV?$basic_string@DU?$char_traits@D@std@@V?$allocator@D@2@@std@@@std@@@2@$0A@@std@@@2@XZ 0064c200 f i AGKWindows:Decoder.obj
 0002:00138240       ?_Color@?$_Tree_val@V?$_Tmap_traits@IV?$basic_string@DU?$char_traits@D@std@@V?$allocator@D@2@@std@@U?$less@I@2@V?$allocator@U?$pair@$$CBIV?$basic_string@DU?$char_traits@D@std@@V?$allocator@D@2@@std@@@std@@@2@$0A@@std@@@std@@SAAADPAU_Node@?$_Tree_nod@V?$_Tmap_traits@IV?$basic_string@DU?$char_traits@D@std@@V?$allocator@D@2@@std@@U?$less@I@2@V?$allocator@U?$pair@$$CBIV?$basic_string@DU?$char_traits@D@std@@V?$allocator@D@2@@std@@@std@@@2@$0A@@std@@@2@@Z 0064c240 f i AGKWindows:Decoder.obj
 0002:00138250       ?_Isnil@?$_Tree_val@V?$_Tmap_traits@IV?$basic_string@DU?$char_traits@D@std@@V?$allocator@D@2@@std@@U?$less@I@2@V?$allocator@U?$pair@$$CBIV?$basic_string@DU?$char_traits@D@std@@V?$allocator@D@2@@std@@@std@@@2@$0A@@std@@@std@@SAAADPAU_Node@?$_Tree_nod@V?$_Tmap_traits@IV?$basic_string@DU?$char_traits@D@std@@V?$allocator@D@2@@std@@U?$less@I@2@V?$allocator@U?$pair@$$CBIV?$basic_string@DU?$char_traits@D@std@@V?$allocator@D@2@@std@@@std@@@2@$0A@@std@@@2@@Z 0064c250 f i AGKWindows:Decoder.obj
 0002:00138260       ?_Left@?$_Tree_val@V?$_Tmap_traits@IV?$basic_string@DU?$char_traits@D@std@@V?$allocator@D@2@@std@@U?$less@I@2@V?$allocator@U?$pair@$$CBIV?$basic_string@DU?$char_traits@D@std@@V?$allocator@D@2@@std@@@std@@@2@$0A@@std@@@std@@SAAAPAU_Node@?$_Tree_nod@V?$_Tmap_traits@IV?$basic_string@DU?$char_traits@D@std@@V?$allocator@D@2@@std@@U?$less@I@2@V?$allocator@U?$pair@$$CBIV?$basic_string@DU?$char_traits@D@std@@V?$allocator@D@2@@std@@@std@@@2@$0A@@std@@@2@PAU342@@Z 0064c260 f i AGKWindows:Decoder.obj
 0002:00138270       ?_Parent@?$_Tree_val@V?$_Tmap_traits@IV?$basic_string@DU?$char_traits@D@std@@V?$allocator@D@2@@std@@U?$less@I@2@V?$allocator@U?$pair@$$CBIV?$basic_string@DU?$char_traits@D@std@@V?$allocator@D@2@@std@@@std@@@2@$0A@@std@@@std@@SAAAPAU_Node@?$_Tree_nod@V?$_Tmap_traits@IV?$basic_string@DU?$char_traits@D@std@@V?$allocator@D@2@@std@@U?$less@I@2@V?$allocator@U?$pair@$$CBIV?$basic_string@DU?$char_traits@D@std@@V?$allocator@D@2@@std@@@std@@@2@$0A@@std@@@2@PAU342@@Z 0064c270 f i AGKWindows:Decoder.obj
 0002:00138280       ?_Right@?$_Tree_val@V?$_Tmap_traits@IV?$basic_string@DU?$char_traits@D@std@@V?$allocator@D@2@@std@@U?$less@I@2@V?$allocator@U?$pair@$$CBIV?$basic_string@DU?$char_traits@D@std@@V?$allocator@D@2@@std@@@std@@@2@$0A@@std@@@std@@SAAAPAU_Node@?$_Tree_nod@V?$_Tmap_traits@IV?$basic_string@DU?$char_traits@D@std@@V?$allocator@D@2@@std@@U?$less@I@2@V?$allocator@U?$pair@$$CBIV?$basic_string@DU?$char_traits@D@std@@V?$allocator@D@2@@std@@@std@@@2@$0A@@std@@@2@PAU342@@Z 0064c280 f i AGKWindows:Decoder.obj
 0002:00138290       ??0?$_Tree_nod@V?$_Tmap_traits@IV?$basic_string@DU?$char_traits@D@std@@V?$allocator@D@2@@std@@U?$less@I@2@V?$allocator@U?$pair@$$CBIV?$basic_string@DU?$char_traits@D@std@@V?$allocator@D@2@@std@@@std@@@2@$0A@@std@@@std@@QAE@ABU?$less@I@1@V?$allocator@U?$pair@$$CBIV?$basic_string@DU?$char_traits@D@std@@V?$allocator@D@2@@std@@@std@@@1@@Z 0064c290 f i AGKWindows:Decoder.obj
 0002:001383e0       ?allocate@?$allocator@U_Node@?$_Tree_nod@V?$_Tmap_traits@IV?$basic_string@DU?$char_traits@D@std@@V?$allocator@D@2@@std@@U?$less@I@2@V?$allocator@U?$pair@$$CBIV?$basic_string@DU?$char_traits@D@std@@V?$allocator@D@2@@std@@@std@@@2@$0A@@std@@@std@@@std@@QAEPAU_Node@?$_Tree_nod@V?$_Tmap_traits@IV?$basic_string@DU?$char_traits@D@std@@V?$allocator@D@2@@std@@U?$less@I@2@V?$allocator@U?$pair@$$CBIV?$basic_string@DU?$char_traits@D@std@@V?$allocator@D@2@@std@@@std@@@2@$0A@@std@@@2@I@Z 0064c3e0 f i AGKWindows:Decoder.obj
 0002:00138420       ??0?$_Tree_iterator@V?$_Tree_val@V?$_Tmap_traits@IV?$basic_string@DU?$char_traits@D@std@@V?$allocator@D@2@@std@@U?$less@I@2@V?$allocator@U?$pair@$$CBIV?$basic_string@DU?$char_traits@D@std@@V?$allocator@D@2@@std@@@std@@@2@$0A@@std@@@std@@@std@@QAE@PAU_Node@?$_Tree_nod@V?$_Tmap_traits@IV?$basic_string@DU?$char_traits@D@std@@V?$allocator@D@2@@std@@U?$less@I@2@V?$allocator@U?$pair@$$CBIV?$basic_string@DU?$char_traits@D@std@@V?$allocator@D@2@@std@@@std@@@2@$0A@@std@@@1@PBV?$_Tree_val@V?$_Tmap_traits@IV?$basic_string@DU?$char_traits@D@std@@V?$allocator@D@2@@std@@U?$less@I@2@V?$allocator@U?$pair@$$CBIV?$basic_string@DU?$char_traits@D@std@@V?$allocator@D@2@@std@@@std@@@2@$0A@@std@@@1@@Z 0064c420 f i AGKWindows:Decoder.obj
 0002:00138460       ??E?$_Tree_const_iterator@V?$_Tree_val@V?$_Tmap_traits@IV?$basic_string@DU?$char_traits@D@std@@V?$allocator@D@2@@std@@U?$less@I@2@V?$allocator@U?$pair@$$CBIV?$basic_string@DU?$char_traits@D@std@@V?$allocator@D@2@@std@@@std@@@2@$0A@@std@@@std@@@std@@QAE?AV01@H@Z 0064c460 f i AGKWindows:Decoder.obj
 0002:00138560       ??8?$_Tree_const_iterator@V?$_Tree_val@V?$_Tmap_traits@IV?$basic_string@DU?$char_traits@D@std@@V?$allocator@D@2@@std@@U?$less@I@2@V?$allocator@U?$pair@$$CBIV?$basic_string@DU?$char_traits@D@std@@V?$allocator@D@2@@std@@@std@@@2@$0A@@std@@@std@@@std@@QBE_NABV01@@Z 0064c560 f i AGKWindows:Decoder.obj
 0002:00138650       ??9?$_Tree_const_iterator@V?$_Tree_val@V?$_Tmap_traits@IV?$basic_string@DU?$char_traits@D@std@@V?$allocator@D@2@@std@@U?$less@I@2@V?$allocator@U?$pair@$$CBIV?$basic_string@DU?$char_traits@D@std@@V?$allocator@D@2@@std@@@std@@@2@$0A@@std@@@std@@@std@@QBE_NABV01@@Z 0064c650 f i AGKWindows:Decoder.obj
 0002:001386a0       ?_Erase@?$_Tree@V?$_Tmap_traits@IV?$basic_string@DU?$char_traits@D@std@@V?$allocator@D@2@@std@@U?$less@I@2@V?$allocator@U?$pair@$$CBIV?$basic_string@DU?$char_traits@D@std@@V?$allocator@D@2@@std@@@std@@@2@$0A@@std@@@std@@IAEXPAU_Node@?$_Tree_nod@V?$_Tmap_traits@IV?$basic_string@DU?$char_traits@D@std@@V?$allocator@D@2@@std@@U?$less@I@2@V?$allocator@U?$pair@$$CBIV?$basic_string@DU?$char_traits@D@std@@V?$allocator@D@2@@std@@@std@@@2@$0A@@std@@@2@@Z 0064c6a0 f i AGKWindows:Decoder.obj
 0002:00138780       ?_Lrotate@?$_Tree@V?$_Tmap_traits@IV?$basic_string@DU?$char_traits@D@std@@V?$allocator@D@2@@std@@U?$less@I@2@V?$allocator@U?$pair@$$CBIV?$basic_string@DU?$char_traits@D@std@@V?$allocator@D@2@@std@@@std@@@2@$0A@@std@@@std@@IAEXPAU_Node@?$_Tree_nod@V?$_Tmap_traits@IV?$basic_string@DU?$char_traits@D@std@@V?$allocator@D@2@@std@@U?$less@I@2@V?$allocator@U?$pair@$$CBIV?$basic_string@DU?$char_traits@D@std@@V?$allocator@D@2@@std@@@std@@@2@$0A@@std@@@2@@Z 0064c780 f i AGKWindows:Decoder.obj
 0002:00138920       ?_Rmost@?$_Tree@V?$_Tmap_traits@IV?$basic_string@DU?$char_traits@D@std@@V?$allocator@D@2@@std@@U?$less@I@2@V?$allocator@U?$pair@$$CBIV?$basic_string@DU?$char_traits@D@std@@V?$allocator@D@2@@std@@@std@@@2@$0A@@std@@@std@@IBEAAPAU_Node@?$_Tree_nod@V?$_Tmap_traits@IV?$basic_string@DU?$char_traits@D@std@@V?$allocator@D@2@@std@@U?$less@I@2@V?$allocator@U?$pair@$$CBIV?$basic_string@DU?$char_traits@D@std@@V?$allocator@D@2@@std@@@std@@@2@$0A@@std@@@2@XZ 0064c920 f i AGKWindows:Decoder.obj
 0002:00138960       ?_Root@?$_Tree@V?$_Tmap_traits@IV?$basic_string@DU?$char_traits@D@std@@V?$allocator@D@2@@std@@U?$less@I@2@V?$allocator@U?$pair@$$CBIV?$basic_string@DU?$char_traits@D@std@@V?$allocator@D@2@@std@@@std@@@2@$0A@@std@@@std@@IBEAAPAU_Node@?$_Tree_nod@V?$_Tmap_traits@IV?$basic_string@DU?$char_traits@D@std@@V?$allocator@D@2@@std@@U?$less@I@2@V?$allocator@U?$pair@$$CBIV?$basic_string@DU?$char_traits@D@std@@V?$allocator@D@2@@std@@@std@@@2@$0A@@std@@@2@XZ 0064c960 f i AGKWindows:Decoder.obj
 0002:001389a0       ?_Rrotate@?$_Tree@V?$_Tmap_traits@IV?$basic_string@DU?$char_traits@D@std@@V?$allocator@D@2@@std@@U?$less@I@2@V?$allocator@U?$pair@$$CBIV?$basic_string@DU?$char_traits@D@std@@V?$allocator@D@2@@std@@@std@@@2@$0A@@std@@@std@@IAEXPAU_Node@?$_Tree_nod@V?$_Tmap_traits@IV?$basic_string@DU?$char_traits@D@std@@V?$allocator@D@2@@std@@U?$less@I@2@V?$allocator@U?$pair@$$CBIV?$basic_string@DU?$char_traits@D@std@@V?$allocator@D@2@@std@@@std@@@2@$0A@@std@@@2@@Z 0064c9a0 f i AGKWindows:Decoder.obj
 0002:00138b40       ?_Orphan_ptr@?$_Tree@V?$_Tmap_traits@IV?$basic_string@DU?$char_traits@D@std@@V?$allocator@D@2@@std@@U?$less@I@2@V?$allocator@U?$pair@$$CBIV?$basic_string@DU?$char_traits@D@std@@V?$allocator@D@2@@std@@@std@@@2@$0A@@std@@@std@@IBEXAAV12@PAU_Node@?$_Tree_nod@V?$_Tmap_traits@IV?$basic_string@DU?$char_traits@D@std@@V?$allocator@D@2@@std@@U?$less@I@2@V?$allocator@U?$pair@$$CBIV?$basic_string@DU?$char_traits@D@std@@V?$allocator@D@2@@std@@@std@@@2@$0A@@std@@@2@@Z 0064cb40 f i AGKWindows:Decoder.obj
 0002:00138c90       ?_Getpfirst@_Container_base12@std@@QBEPAPAU_Iterator_base12@2@XZ 0064cc90 f i AGKWindows:Decoder.obj
 0002:00138ce0       ?_Clrcont@_Iterator_base12@std@@QAEXXZ 0064cce0 f i AGKWindows:Decoder.obj
 0002:00138d10       ?_Getpnext@_Iterator_base12@std@@QAEPAPAU12@XZ 0064cd10 f i AGKWindows:Decoder.obj
 0002:00138d30       ?_Myval@?$_Tree_val@V?$_Tmap_traits@IV?$basic_string@DU?$char_traits@D@std@@V?$allocator@D@2@@std@@U?$less@I@2@V?$allocator@U?$pair@$$CBIV?$basic_string@DU?$char_traits@D@std@@V?$allocator@D@2@@std@@@std@@@2@$0A@@std@@@std@@SAAAU?$pair@$$CBIV?$basic_string@DU?$char_traits@D@std@@V?$allocator@D@2@@std@@@2@PAU_Node@?$_Tree_nod@V?$_Tmap_traits@IV?$basic_string@DU?$char_traits@D@std@@V?$allocator@D@2@@std@@U?$less@I@2@V?$allocator@U?$pair@$$CBIV?$basic_string@DU?$char_traits@D@std@@V?$allocator@D@2@@std@@@std@@@2@$0A@@std@@@2@@Z 0064cd30 f i AGKWindows:Decoder.obj
 0002:00138d40       ?_Max@?$_Tree_val@V?$_Tmap_traits@IV?$basic_string@DU?$char_traits@D@std@@V?$allocator@D@2@@std@@U?$less@I@2@V?$allocator@U?$pair@$$CBIV?$basic_string@DU?$char_traits@D@std@@V?$allocator@D@2@@std@@@std@@@2@$0A@@std@@@std@@SAPAU_Node@?$_Tree_nod@V?$_Tmap_traits@IV?$basic_string@DU?$char_traits@D@std@@V?$allocator@D@2@@std@@U?$less@I@2@V?$allocator@U?$pair@$$CBIV?$basic_string@DU?$char_traits@D@std@@V?$allocator@D@2@@std@@@std@@@2@$0A@@std@@@2@PAU342@@Z 0064cd40 f i AGKWindows:Decoder.obj
 0002:00138d90       ?_Min@?$_Tree_val@V?$_Tmap_traits@IV?$basic_string@DU?$char_traits@D@std@@V?$allocator@D@2@@std@@U?$less@I@2@V?$allocator@U?$pair@$$CBIV?$basic_string@DU?$char_traits@D@std@@V?$allocator@D@2@@std@@@std@@@2@$0A@@std@@@std@@SAPAU_Node@?$_Tree_nod@V?$_Tmap_traits@IV?$basic_string@DU?$char_traits@D@std@@V?$allocator@D@2@@std@@U?$less@I@2@V?$allocator@U?$pair@$$CBIV?$basic_string@DU?$char_traits@D@std@@V?$allocator@D@2@@std@@@std@@@2@$0A@@std@@@2@PAU342@@Z 0064cd90 f i AGKWindows:Decoder.obj
 0002:00138de0       ??0?$_Tmap_traits@IV?$basic_string@DU?$char_traits@D@std@@V?$allocator@D@2@@std@@U?$less@I@2@V?$allocator@U?$pair@$$CBIV?$basic_string@DU?$char_traits@D@std@@V?$allocator@D@2@@std@@@std@@@2@$0A@@std@@QAE@U?$less@I@1@@Z 0064cde0 f i AGKWindows:Decoder.obj
 0002:00138e20       ??0?$_Tree_const_iterator@V?$_Tree_val@V?$_Tmap_traits@IV?$basic_string@DU?$char_traits@D@std@@V?$allocator@D@2@@std@@U?$less@I@2@V?$allocator@U?$pair@$$CBIV?$basic_string@DU?$char_traits@D@std@@V?$allocator@D@2@@std@@@std@@@2@$0A@@std@@@std@@@std@@QAE@PAU_Node@?$_Tree_nod@V?$_Tmap_traits@IV?$basic_string@DU?$char_traits@D@std@@V?$allocator@D@2@@std@@U?$less@I@2@V?$allocator@U?$pair@$$CBIV?$basic_string@DU?$char_traits@D@std@@V?$allocator@D@2@@std@@@std@@@2@$0A@@std@@@1@PBV?$_Tree_val@V?$_Tmap_traits@IV?$basic_string@DU?$char_traits@D@std@@V?$allocator@D@2@@std@@U?$less@I@2@V?$allocator@U?$pair@$$CBIV?$basic_string@DU?$char_traits@D@std@@V?$allocator@D@2@@std@@@std@@@2@$0A@@std@@@1@@Z 0064ce20 f i AGKWindows:Decoder.obj
 0002:00138e60       ??E?$_Tree_const_iterator@V?$_Tree_val@V?$_Tmap_traits@IV?$basic_string@DU?$char_traits@D@std@@V?$allocator@D@2@@std@@U?$less@I@2@V?$allocator@U?$pair@$$CBIV?$basic_string@DU?$char_traits@D@std@@V?$allocator@D@2@@std@@@std@@@2@$0A@@std@@@std@@@std@@QAEAAV01@XZ 0064ce60 f i AGKWindows:Decoder.obj
 0002:00138f50       ?_Mynode@?$_Tree_unchecked_const_iterator@V?$_Tree_val@V?$_Tmap_traits@IV?$basic_string@DU?$char_traits@D@std@@V?$allocator@D@2@@std@@U?$less@I@2@V?$allocator@U?$pair@$$CBIV?$basic_string@DU?$char_traits@D@std@@V?$allocator@D@2@@std@@@std@@@2@$0A@@std@@@std@@U_Iterator_base12@2@@std@@QBEPAU_Node@?$_Tree_nod@V?$_Tmap_traits@IV?$basic_string@DU?$char_traits@D@std@@V?$allocator@D@2@@std@@U?$less@I@2@V?$allocator@U?$pair@$$CBIV?$basic_string@DU?$char_traits@D@std@@V?$allocator@D@2@@std@@@std@@@2@$0A@@std@@@2@XZ 0064cf50 f i AGKWindows:Decoder.obj
 0002:00138f70       ??0?$_Tree_unchecked_const_iterator@V?$_Tree_val@V?$_Tmap_traits@IV?$basic_string@DU?$char_traits@D@std@@V?$allocator@D@2@@std@@U?$less@I@2@V?$allocator@U?$pair@$$CBIV?$basic_string@DU?$char_traits@D@std@@V?$allocator@D@2@@std@@@std@@@2@$0A@@std@@@std@@U_Iterator_base12@2@@std@@QAE@PAU_Node@?$_Tree_nod@V?$_Tmap_traits@IV?$basic_string@DU?$char_traits@D@std@@V?$allocator@D@2@@std@@U?$less@I@2@V?$allocator@U?$pair@$$CBIV?$basic_string@DU?$char_traits@D@std@@V?$allocator@D@2@@std@@@std@@@2@$0A@@std@@@1@PBV?$_Tree_val@V?$_Tmap_traits@IV?$basic_string@DU?$char_traits@D@std@@V?$allocator@D@2@@std@@U?$less@I@2@V?$allocator@U?$pair@$$CBIV?$basic_string@DU?$char_traits@D@std@@V?$allocator@D@2@@std@@@std@@@2@$0A@@std@@@1@@Z 0064cf70 f i AGKWindows:Decoder.obj
 0002:00139010       ??E?$_Tree_unchecked_const_iterator@V?$_Tree_val@V?$_Tmap_traits@IV?$basic_string@DU?$char_traits@D@std@@V?$allocator@D@2@@std@@U?$less@I@2@V?$allocator@U?$pair@$$CBIV?$basic_string@DU?$char_traits@D@std@@V?$allocator@D@2@@std@@@std@@@2@$0A@@std@@@std@@U_Iterator_base12@2@@std@@QAEAAV01@XZ 0064d010 f i AGKWindows:Decoder.obj
 0002:00139120       ??0?$_Iterator012@Ubidirectional_iterator_tag@std@@U?$pair@$$CBIV?$basic_string@DU?$char_traits@D@std@@V?$allocator@D@2@@std@@@2@HPBU32@ABU32@U_Iterator_base12@2@@std@@QAE@XZ 0064d120 f i AGKWindows:Decoder.obj
 0002:00139150       ??$?0V?$Ref@VDataBlock@qrcode@zxing@@@zxing@@@?$allocator@U_Container_proxy@std@@@std@@QAE@ABV?$allocator@V?$Ref@VDataBlock@qrcode@zxing@@@zxing@@@1@@Z 0064d150 f i AGKWindows:Decoder.obj
 0002:00139170       ??$addressof@$$CBH@std@@YAPBHABH@Z 0064d170 f i AGKWindows:Decoder.obj
 0002:00139180       ??$_Destroy_range@V?$allocator@V?$Ref@VDataBlock@qrcode@zxing@@@zxing@@@std@@@std@@YAXPAV?$Ref@VDataBlock@qrcode@zxing@@@zxing@@0AAV?$allocator@V?$Ref@VDataBlock@qrcode@zxing@@@zxing@@@0@@Z 0064d180 f i AGKWindows:Decoder.obj
 0002:001391e0       ??$?0U_Node@?$_Tree_nod@V?$_Tmap_traits@IV?$basic_string@DU?$char_traits@D@std@@V?$allocator@D@2@@std@@U?$less@I@2@V?$allocator@U?$pair@$$CBIV?$basic_string@DU?$char_traits@D@std@@V?$allocator@D@2@@std@@@std@@@2@$0A@@std@@@std@@@?$allocator@U_Container_proxy@std@@@std@@QAE@ABV?$allocator@U_Node@?$_Tree_nod@V?$_Tmap_traits@IV?$basic_string@DU?$char_traits@D@std@@V?$allocator@D@2@@std@@U?$less@I@2@V?$allocator@U?$pair@$$CBIV?$basic_string@DU?$char_traits@D@std@@V?$allocator@D@2@@std@@@std@@@2@$0A@@std@@@std@@@1@@Z 0064d1e0 f i AGKWindows:Decoder.obj
 0002:00139200       ??$swap@D@std@@YAXAAD0@Z   0064d200 f i AGKWindows:Decoder.obj
 0002:001392b0       ??$addressof@U?$pair@$$CBIV?$basic_string@DU?$char_traits@D@std@@V?$allocator@D@2@@std@@@std@@@std@@YAPAU?$pair@$$CBIV?$basic_string@DU?$char_traits@D@std@@V?$allocator@D@2@@std@@@0@AAU10@@Z 0064d2b0 f i AGKWindows:Decoder.obj
 0002:001392c0       ??$_Dest_val@V?$allocator@U?$pair@$$CBIV?$basic_string@DU?$char_traits@D@std@@V?$allocator@D@2@@std@@@std@@@std@@U?$pair@$$CBIV?$basic_string@DU?$char_traits@D@std@@V?$allocator@D@2@@std@@@2@@std@@YAXAAV?$allocator@U?$pair@$$CBIV?$basic_string@DU?$char_traits@D@std@@V?$allocator@D@2@@std@@@std@@@0@PAU?$pair@$$CBIV?$basic_string@DU?$char_traits@D@std@@V?$allocator@D@2@@std@@@0@@Z 0064d2c0 f i AGKWindows:Decoder.obj
 0002:001392e0       ??$?0U?$pair@$$CBIV?$basic_string@DU?$char_traits@D@std@@V?$allocator@D@2@@std@@@std@@@?$allocator@U_Node@?$_Tree_nod@V?$_Tmap_traits@IV?$basic_string@DU?$char_traits@D@std@@V?$allocator@D@2@@std@@U?$less@I@2@V?$allocator@U?$pair@$$CBIV?$basic_string@DU?$char_traits@D@std@@V?$allocator@D@2@@std@@@std@@@2@$0A@@std@@@std@@@std@@QAE@ABV?$allocator@U?$pair@$$CBIV?$basic_string@DU?$char_traits@D@std@@V?$allocator@D@2@@std@@@std@@@1@@Z 0064d2e0 f i AGKWindows:Decoder.obj
 0002:00139300       ??$_Allocate@U_Node@?$_Tree_nod@V?$_Tmap_traits@IV?$basic_string@DU?$char_traits@D@std@@V?$allocator@D@2@@std@@U?$less@I@2@V?$allocator@U?$pair@$$CBIV?$basic_string@DU?$char_traits@D@std@@V?$allocator@D@2@@std@@@std@@@2@$0A@@std@@@std@@@std@@YAPAU_Node@?$_Tree_nod@V?$_Tmap_traits@IV?$basic_string@DU?$char_traits@D@std@@V?$allocator@D@2@@std@@U?$less@I@2@V?$allocator@U?$pair@$$CBIV?$basic_string@DU?$char_traits@D@std@@V?$allocator@D@2@@std@@@std@@@2@$0A@@std@@@0@IPAU120@@Z 0064d300 f i AGKWindows:Decoder.obj
 0002:001393a0       ?destroy@?$allocator@U?$pair@$$CBIV?$basic_string@DU?$char_traits@D@std@@V?$allocator@D@2@@std@@@std@@@std@@QAEXPAU?$pair@$$CBIV?$basic_string@DU?$char_traits@D@std@@V?$allocator@D@2@@std@@@2@@Z 0064d3a0 f i AGKWindows:Decoder.obj
 0002:001393e0       ??$_Ptr_cat@V?$Ref@VDataBlock@qrcode@zxing@@@zxing@@V12@@std@@YA?AU_Nonscalar_ptr_iterator_tag@0@PAV?$Ref@VDataBlock@qrcode@zxing@@@zxing@@0@Z 0064d3e0 f i AGKWindows:Decoder.obj
 0002:00139440       ??$_Destroy_range@V?$allocator@V?$Ref@VDataBlock@qrcode@zxing@@@zxing@@@std@@@std@@YAXPAV?$Ref@VDataBlock@qrcode@zxing@@@zxing@@0AAV?$allocator@V?$Ref@VDataBlock@qrcode@zxing@@@zxing@@@0@U_Nonscalar_ptr_iterator_tag@0@@Z 0064d440 f i AGKWindows:Decoder.obj
 0002:00139480       ??$_Move@AAD@std@@YA$$QADAAD@Z 0064d480 f i AGKWindows:Decoder.obj
 0002:00139490       ??$_Destroy@U?$pair@$$CBIV?$basic_string@DU?$char_traits@D@std@@V?$allocator@D@2@@std@@@std@@@std@@YAXPAU?$pair@$$CBIV?$basic_string@DU?$char_traits@D@std@@V?$allocator@D@2@@std@@@0@@Z 0064d490 f i AGKWindows:Decoder.obj
 0002:001394b0       ??_G?$pair@$$CBIV?$basic_string@DU?$char_traits@D@std@@V?$allocator@D@2@@std@@@std@@QAEPAXI@Z 0064d4b0 f i AGKWindows:Decoder.obj
 0002:00139500       ??1?$pair@$$CBIV?$basic_string@DU?$char_traits@D@std@@V?$allocator@D@2@@std@@@std@@QAE@XZ 0064d500 f i AGKWindows:Decoder.obj
 0002:00139530       ??1?$_Pair_base@$$CBIV?$basic_string@DU?$char_traits@D@std@@V?$allocator@D@2@@std@@@std@@QAE@XZ 0064d530 f i AGKWindows:Decoder.obj
 0002:00139560       ??$_Dest_val@V?$allocator@V?$Ref@VDataBlock@qrcode@zxing@@@zxing@@@std@@V?$Ref@VDataBlock@qrcode@zxing@@@zxing@@@std@@YAXAAV?$allocator@V?$Ref@VDataBlock@qrcode@zxing@@@zxing@@@0@PAV?$Ref@VDataBlock@qrcode@zxing@@@zxing@@@Z 0064d560 f i AGKWindows:Decoder.obj
 0002:00139580       ?destroy@?$allocator@V?$Ref@VDataBlock@qrcode@zxing@@@zxing@@@std@@QAEXPAV?$Ref@VDataBlock@qrcode@zxing@@@zxing@@@Z 0064d580 f i AGKWindows:Decoder.obj
 0002:001395c0       ??$_Destroy@V?$Ref@VDataBlock@qrcode@zxing@@@zxing@@@std@@YAXPAV?$Ref@VDataBlock@qrcode@zxing@@@zxing@@@Z 0064d5c0 f i AGKWindows:Decoder.obj
 0002:001395e0       ??_G?$Ref@VDataBlock@qrcode@zxing@@@zxing@@QAEPAXI@Z 0064d5e0 f i AGKWindows:Decoder.obj
 0002:00139630       ??0DecoderResult@zxing@@QAE@V?$ArrayRef@E@1@V?$Ref@VString@zxing@@@1@AAV?$ArrayRef@V?$ArrayRef@E@zxing@@@1@ABV?$basic_string@DU?$char_traits@D@std@@V?$allocator@D@2@@std@@@Z 0064d630 f   AGKWindows:DecoderResult.obj
 0002:00139700       ??0DecoderResult@zxing@@QAE@V?$ArrayRef@E@1@V?$Ref@VString@zxing@@@1@@Z 0064d700 f   AGKWindows:DecoderResult.obj
 0002:001397d0       ?getRawBytes@DecoderResult@zxing@@QAE?AV?$ArrayRef@E@2@XZ 0064d7d0 f   AGKWindows:DecoderResult.obj
 0002:00139820       ?getText@DecoderResult@zxing@@QAE?AV?$Ref@VString@zxing@@@2@XZ 0064d820 f   AGKWindows:DecoderResult.obj
 0002:00139900       ??_GDecoderResult@zxing@@UAEPAXI@Z 0064d900 f i AGKWindows:DecoderResult.obj
 0002:00139900       ??_EDecoderResult@zxing@@UAEPAXI@Z 0064d900 f i AGKWindows:DecoderResult.obj
 0002:00139950       ??1DecoderResult@zxing@@UAE@XZ 0064d950 f i AGKWindows:DecoderResult.obj
 0002:00139a10       ??0?$ArrayRef@V?$ArrayRef@E@zxing@@@zxing@@QAE@XZ 0064da10 f i AGKWindows:DecoderResult.obj
 0002:00139a60       ??0?$ArrayRef@V?$ArrayRef@E@zxing@@@zxing@@QAE@ABV01@@Z 0064da60 f i AGKWindows:DecoderResult.obj
 0002:00139b10       ??1?$ArrayRef@V?$ArrayRef@E@zxing@@@zxing@@UAE@XZ 0064db10 f i AGKWindows:DecoderResult.obj
 0002:00139bc0       ??_E?$ArrayRef@V?$ArrayRef@E@zxing@@@zxing@@UAEPAXI@Z 0064dbc0 f i AGKWindows:DecoderResult.obj
 0002:00139bc0       ??_G?$ArrayRef@V?$ArrayRef@E@zxing@@@zxing@@UAEPAXI@Z 0064dbc0 f i AGKWindows:DecoderResult.obj
 0002:00139c10       ?reset@?$ArrayRef@V?$ArrayRef@E@zxing@@@zxing@@QAEXPAV?$Array@V?$ArrayRef@E@zxing@@@2@@Z 0064dc10 f i AGKWindows:DecoderResult.obj
 0002:00139c70       ??0DetectorResult@zxing@@QAE@V?$Ref@VBitMatrix@zxing@@@1@V?$vector@V?$Ref@VResultPoint@zxing@@@zxing@@V?$allocator@V?$Ref@VResultPoint@zxing@@@zxing@@@std@@@std@@V?$Ref@VPerspectiveTransform@zxing@@@1@@Z 0064dc70 f   AGKWindows:DetectorResult.obj
 0002:00139d40       ?getBits@DetectorResult@zxing@@QAE?AV?$Ref@VBitMatrix@zxing@@@2@XZ 0064dd40 f   AGKWindows:DetectorResult.obj
 0002:00139d90       ?getPoints@DetectorResult@zxing@@QAE?AV?$vector@V?$Ref@VResultPoint@zxing@@@zxing@@V?$allocator@V?$Ref@VResultPoint@zxing@@@zxing@@@std@@@std@@XZ 0064dd90 f   AGKWindows:DetectorResult.obj
 0002:00139de0       ?getTransform@DetectorResult@zxing@@QAE?AV?$Ref@VPerspectiveTransform@zxing@@@2@XZ 0064dde0 f   AGKWindows:DetectorResult.obj
 0002:00139ea0       ??_EDetectorResult@zxing@@UAEPAXI@Z 0064dea0 f i AGKWindows:DetectorResult.obj
 0002:00139ea0       ??_GDetectorResult@zxing@@UAEPAXI@Z 0064dea0 f i AGKWindows:DetectorResult.obj
 0002:00139ef0       ??1DetectorResult@zxing@@UAE@XZ 0064def0 f i AGKWindows:DetectorResult.obj
 0002:00139fa0       ??0?$Ref@VPerspectiveTransform@zxing@@@zxing@@QAE@ABV01@@Z 0064dfa0 f i AGKWindows:DetectorResult.obj
 0002:00139ff0       ??1?$Ref@VPerspectiveTransform@zxing@@@zxing@@QAE@XZ 0064dff0 f i AGKWindows:DetectorResult.obj
 0002:0013a030       ?reset@?$Ref@VPerspectiveTransform@zxing@@@zxing@@QAEXPAVPerspectiveTransform@2@@Z 0064e030 f i AGKWindows:DetectorResult.obj
 0002:0013a090       ??0Detector@qrcode@zxing@@QAE@V?$Ref@VBitMatrix@zxing@@@2@@Z 0064e090 f   AGKWindows:Detector.obj
 0002:0013a130       ?getImage@Detector@qrcode@zxing@@IAE?AV?$Ref@VBitMatrix@zxing@@@3@XZ 0064e130 f   AGKWindows:Detector.obj
 0002:0013a180       ?detect@Detector@qrcode@zxing@@QAE?AV?$Ref@VDetectorResult@zxing@@@3@ABVDecodeHints@3@@Z 0064e180 f   AGKWindows:Detector.obj
 0002:0013a300       ?processFinderPatternInfo@Detector@qrcode@zxing@@IAE?AV?$Ref@VDetectorResult@zxing@@@3@V?$Ref@VFinderPatternInfo@qrcode@zxing@@@3@@Z 0064e300 f   AGKWindows:Detector.obj
 0002:0013ac50       ?createTransform@Detector@qrcode@zxing@@UAE?AV?$Ref@VPerspectiveTransform@zxing@@@3@V?$Ref@VResultPoint@zxing@@@3@000H@Z 0064ec50 f   AGKWindows:Detector.obj
 0002:0013b010       ?sampleGrid@Detector@qrcode@zxing@@KA?AV?$Ref@VBitMatrix@zxing@@@3@V43@HV?$Ref@VPerspectiveTransform@zxing@@@3@@Z 0064f010 f   AGKWindows:Detector.obj
 0002:0013b0f0       ?computeDimension@Detector@qrcode@zxing@@KAHV?$Ref@VResultPoint@zxing@@@3@00M@Z 0064f0f0 f   AGKWindows:Detector.obj
 0002:0013b380       ?calculateModuleSize@Detector@qrcode@zxing@@IAEMV?$Ref@VResultPoint@zxing@@@3@00@Z 0064f380 f   AGKWindows:Detector.obj
 0002:0013b710       ?calculateModuleSizeOneWay@Detector@qrcode@zxing@@IAEMV?$Ref@VResultPoint@zxing@@@3@0@Z 0064f710 f   AGKWindows:Detector.obj
 0002:0013b970       ?sizeOfBlackWhiteBlackRunBothWays@Detector@qrcode@zxing@@IAEMHHHH@Z 0064f970 f   AGKWindows:Detector.obj
 0002:0013bb40       ?sizeOfBlackWhiteBlackRun@Detector@qrcode@zxing@@IAEMHHHH@Z 0064fb40 f   AGKWindows:Detector.obj
 0002:0013bd80       ?findAlignmentInRegion@Detector@qrcode@zxing@@IAE?AV?$Ref@VAlignmentPattern@qrcode@zxing@@@3@MHHM@Z 0064fd80 f   AGKWindows:Detector.obj
 0002:0013c810       ??_EDetector@qrcode@zxing@@UAEPAXI@Z 00650810 f i AGKWindows:Detector.obj
 0002:0013c810       ??_GDetector@qrcode@zxing@@UAEPAXI@Z 00650810 f i AGKWindows:Detector.obj
 0002:0013c860       ??1FinderPatternFinder@qrcode@zxing@@QAE@XZ 00650860 f i AGKWindows:Detector.obj
 0002:0013c900       ??_D?$basic_ostringstream@DU?$char_traits@D@std@@V?$allocator@D@2@@std@@QAEXXZ 00650900 f i AGKWindows:Detector.obj
 0002:0013c940       ?custom_isnan@zxing@@YA_NM@Z 00650940 f i AGKWindows:Detector.obj
 0002:0013c990       ?quiet_NaN@?$numeric_limits@M@std@@SAMXZ 00650990 f i AGKWindows:Detector.obj
 0002:0013c9a0       ?get@BitMatrix@zxing@@QBE_NII@Z 006509a0 f i AGKWindows:Detector.obj
 0002:0013ca10       ??6?$basic_ostream@DU?$char_traits@D@std@@@std@@QAEAAV01@H@Z 00650a10 f i AGKWindows:Detector.obj
 0002:0013ccc0       ??1?$basic_ios@DU?$char_traits@D@std@@@std@@UAE@XZ 00650cc0 f i AGKWindows:Detector.obj
 0002:0013cd00       ??1ios_base@std@@UAE@XZ    00650d00 f i AGKWindows:Detector.obj
 0002:0013cd40       ??_Gios_base@std@@UAEPAXI@Z 00650d40 f i AGKWindows:Detector.obj
 0002:0013cd40       ??_Eios_base@std@@UAEPAXI@Z 00650d40 f i AGKWindows:Detector.obj
 0002:0013cd90       ??C?$Ref@VBitMatrix@zxing@@@zxing@@QBEPAVBitMatrix@1@XZ 00650d90 f i AGKWindows:Detector.obj
 0002:0013cdb0       ??0?$vector@V?$Ref@VResultPoint@zxing@@@zxing@@V?$allocator@V?$Ref@VResultPoint@zxing@@@zxing@@@std@@@std@@QAE@I@Z 00650db0 f i AGKWindows:Detector.obj
 0002:0013ce60       ??A?$vector@V?$Ref@VResultPoint@zxing@@@zxing@@V?$allocator@V?$Ref@VResultPoint@zxing@@@zxing@@@std@@@std@@QAEAAV?$Ref@VResultPoint@zxing@@@zxing@@I@Z 00650e60 f i AGKWindows:Detector.obj
 0002:0013cf20       ??1?$Ref@VFinderPattern@qrcode@zxing@@@zxing@@QAE@XZ 00650f20 f i AGKWindows:Detector.obj
 0002:0013cf60       ??C?$Ref@VFinderPattern@qrcode@zxing@@@zxing@@QBEPAVFinderPattern@qrcode@1@XZ 00650f60 f i AGKWindows:Detector.obj
 0002:0013cf80       ??B?$Ref@VFinderPattern@qrcode@zxing@@@zxing@@QBEPAVFinderPattern@qrcode@1@XZ 00650f80 f i AGKWindows:Detector.obj
 0002:0013cfa0       ??1?$vector@V?$Ref@VFinderPattern@qrcode@zxing@@@zxing@@V?$allocator@V?$Ref@VFinderPattern@qrcode@zxing@@@zxing@@@std@@@std@@QAE@XZ 00650fa0 f i AGKWindows:Detector.obj
 0002:0013d020       ??0?$Ref@VDetectorResult@zxing@@@zxing@@QAE@PAVDetectorResult@1@@Z 00651020 f i AGKWindows:Detector.obj
 0002:0013d070       ??0?$Ref@VDetectorResult@zxing@@@zxing@@QAE@ABV01@@Z 00651070 f i AGKWindows:Detector.obj
 0002:0013d0c0       ??0?$Ref@VFinderPatternInfo@qrcode@zxing@@@zxing@@QAE@ABV01@@Z 006510c0 f i AGKWindows:Detector.obj
 0002:0013d110       ??1?$Ref@VFinderPatternInfo@qrcode@zxing@@@zxing@@QAE@XZ 00651110 f i AGKWindows:Detector.obj
 0002:0013d150       ??C?$Ref@VFinderPatternInfo@qrcode@zxing@@@zxing@@QBEPAVFinderPatternInfo@qrcode@1@XZ 00651150 f i AGKWindows:Detector.obj
 0002:0013d170       ??C?$Ref@VResultPoint@zxing@@@zxing@@QBEPAVResultPoint@1@XZ 00651170 f i AGKWindows:Detector.obj
 0002:0013d190       ??9?$Ref@VResultPoint@zxing@@@zxing@@QAE_NPBVResultPoint@1@@Z 00651190 f i AGKWindows:Detector.obj
 0002:0013d1e0       ??0?$Ref@VAlignmentPattern@qrcode@zxing@@@zxing@@QAE@PAVAlignmentPattern@qrcode@1@@Z 006511e0 f i AGKWindows:Detector.obj
 0002:0013d230       ??1?$Ref@VAlignmentPattern@qrcode@zxing@@@zxing@@QAE@XZ 00651230 f i AGKWindows:Detector.obj
 0002:0013d270       ??4?$Ref@VAlignmentPattern@qrcode@zxing@@@zxing@@QAEAAV01@ABV01@@Z 00651270 f i AGKWindows:Detector.obj
 0002:0013d2b0       ??B?$Ref@VAlignmentPattern@qrcode@zxing@@@zxing@@QBEPAVAlignmentPattern@qrcode@1@XZ 006512b0 f i AGKWindows:Detector.obj
 0002:0013d2d0       ??8?$Ref@VAlignmentPattern@qrcode@zxing@@@zxing@@QAE_NPBVAlignmentPattern@qrcode@1@@Z 006512d0 f i AGKWindows:Detector.obj
 0002:0013d300       ??9?$Ref@VAlignmentPattern@qrcode@zxing@@@zxing@@QAE_NPBVAlignmentPattern@qrcode@1@@Z 00651300 f i AGKWindows:Detector.obj
 0002:0013d350       ??0?$basic_ostringstream@DU?$char_traits@D@std@@V?$allocator@D@2@@std@@QAE@H@Z 00651350 f i AGKWindows:Detector.obj
 0002:0013d450       ??1?$basic_ostream@DU?$char_traits@D@std@@@std@@UAE@XZ 00651450 f i AGKWindows:Detector.obj
 0002:0013d480       ??1?$basic_ostringstream@DU?$char_traits@D@std@@V?$allocator@D@2@@std@@UAE@XZ 00651480 f i AGKWindows:Detector.obj
 0002:0013d520       ?str@?$basic_ostringstream@DU?$char_traits@D@std@@V?$allocator@D@2@@std@@QBE?AV?$basic_string@DU?$char_traits@D@std@@V?$allocator@D@2@@2@XZ 00651520 f i AGKWindows:Detector.obj
 0002:0013d580       ??1?$basic_stringbuf@DU?$char_traits@D@std@@V?$allocator@D@2@@std@@UAE@XZ 00651580 f i AGKWindows:Detector.obj
 0002:0013d610       ??1?$basic_streambuf@DU?$char_traits@D@std@@@std@@UAE@XZ 00651610 f i AGKWindows:Detector.obj
 0002:0013d6b0       ?_Lock@?$basic_streambuf@DU?$char_traits@D@std@@@std@@UAEXXZ 006516b0 f i AGKWindows:Detector.obj
 0002:0013d6e0       ?_Unlock@?$basic_streambuf@DU?$char_traits@D@std@@@std@@UAEXXZ 006516e0 f i AGKWindows:Detector.obj
 0002:0013d710       ?overflow@?$basic_streambuf@DU?$char_traits@D@std@@@std@@MAEHH@Z 00651710 f i AGKWindows:Detector.obj
 0002:0013d740       ?pbackfail@?$basic_streambuf@DU?$char_traits@D@std@@@std@@MAEHH@Z 00651740 f i AGKWindows:Detector.obj
 0002:0013d770       ?showmanyc@?$basic_streambuf@DU?$char_traits@D@std@@@std@@MAE_JXZ 00651770 f i AGKWindows:Detector.obj
 0002:0013d790       ?underflow@?$basic_streambuf@DU?$char_traits@D@std@@@std@@MAEHXZ 00651790 f i AGKWindows:Detector.obj
 0002:0013d7c0       ?uflow@?$basic_streambuf@DU?$char_traits@D@std@@@std@@MAEHXZ 006517c0 f i AGKWindows:Detector.obj
 0002:0013d870       ?xsgetn@?$basic_streambuf@DU?$char_traits@D@std@@@std@@MAE_JPAD_J@Z 00651870 f i AGKWindows:Detector.obj
 0002:0013da80       ?to_char_type@?$char_traits@D@std@@SADABH@Z 00651a80 f i AGKWindows:Detector.obj
 0002:0013da90       ?xsputn@?$basic_streambuf@DU?$char_traits@D@std@@@std@@MAE_JPBD_J@Z 00651a90 f i AGKWindows:Detector.obj
 0002:0013dc60       ?seekoff@?$basic_streambuf@DU?$char_traits@D@std@@@std@@MAE?AV?$fpos@H@2@_JHH@Z 00651c60 f i AGKWindows:Detector.obj
 0002:0013dcb0       ?seekpos@?$basic_streambuf@DU?$char_traits@D@std@@@std@@MAE?AV?$fpos@H@2@V32@H@Z 00651cb0 f i AGKWindows:Detector.obj
 0002:0013dd00       ?setbuf@?$basic_streambuf@DU?$char_traits@D@std@@@std@@MAEPAV12@PAD_J@Z 00651d00 f i AGKWindows:Detector.obj
 0002:0013dd20       ?sync@?$basic_streambuf@DU?$char_traits@D@std@@@std@@MAEHXZ 00651d20 f i AGKWindows:Detector.obj
 0002:0013dd40       ?imbue@?$basic_streambuf@DU?$char_traits@D@std@@@std@@MAEXABVlocale@2@@Z 00651d40 f i AGKWindows:Detector.obj
 0002:0013dd60       ?overflow@?$basic_stringbuf@DU?$char_traits@D@std@@V?$allocator@D@2@@std@@MAEHH@Z 00651d60 f i AGKWindows:Detector.obj
 0002:0013e130       ?not_eof@?$char_traits@D@std@@SAHABH@Z 00652130 f i AGKWindows:Detector.obj
 0002:0013e190       ?pbackfail@?$basic_stringbuf@DU?$char_traits@D@std@@V?$allocator@D@2@@std@@MAEHH@Z 00652190 f i AGKWindows:Detector.obj
 0002:0013e2d0       ?eq@?$char_traits@D@std@@SA_NABD0@Z 006522d0 f i AGKWindows:Detector.obj
 0002:0013e2f0       ?underflow@?$basic_stringbuf@DU?$char_traits@D@std@@V?$allocator@D@2@@std@@MAEHXZ 006522f0 f i AGKWindows:Detector.obj
 0002:0013e430       ?seekoff@?$basic_stringbuf@DU?$char_traits@D@std@@V?$allocator@D@2@@std@@MAE?AV?$fpos@H@2@_JHH@Z 00652430 f i AGKWindows:Detector.obj
 0002:0013e7b0       ?seekpos@?$basic_stringbuf@DU?$char_traits@D@std@@V?$allocator@D@2@@std@@MAE?AV?$fpos@H@2@V32@H@Z 006527b0 f i AGKWindows:Detector.obj
 0002:0013ea40       ??_G?$basic_ostream@DU?$char_traits@D@std@@@std@@UAEPAXI@Z 00652a40 f i AGKWindows:Detector.obj
 0002:0013ea40       ??_E?$basic_ostream@DU?$char_traits@D@std@@@std@@UAEPAXI@Z 00652a40 f i AGKWindows:Detector.obj
 0002:0013eaa0       ??_G?$basic_ios@DU?$char_traits@D@std@@@std@@UAEPAXI@Z 00652aa0 f i AGKWindows:Detector.obj
 0002:0013eaa0       ??_E?$basic_ios@DU?$char_traits@D@std@@@std@@UAEPAXI@Z 00652aa0 f i AGKWindows:Detector.obj
 0002:0013eaf0       ??_E?$basic_streambuf@DU?$char_traits@D@std@@@std@@UAEPAXI@Z 00652af0 f i AGKWindows:Detector.obj
 0002:0013eaf0       ??_G?$basic_streambuf@DU?$char_traits@D@std@@@std@@UAEPAXI@Z 00652af0 f i AGKWindows:Detector.obj
 0002:0013eb40       ??_E?$basic_ostringstream@DU?$char_traits@D@std@@V?$allocator@D@2@@std@@UAEPAXI@Z 00652b40 f i AGKWindows:Detector.obj
 0002:0013eb40       ??_G?$basic_ostringstream@DU?$char_traits@D@std@@V?$allocator@D@2@@std@@UAEPAXI@Z 00652b40 f i AGKWindows:Detector.obj
 0002:0013eba0       ??_E?$basic_stringbuf@DU?$char_traits@D@std@@V?$allocator@D@2@@std@@UAEPAXI@Z 00652ba0 f i AGKWindows:Detector.obj
 0002:0013eba0       ??_G?$basic_stringbuf@DU?$char_traits@D@std@@V?$allocator@D@2@@std@@UAEPAXI@Z 00652ba0 f i AGKWindows:Detector.obj
 0002:0013ebf0       ??_D?$basic_ostream@DU?$char_traits@D@std@@@std@@QAEXXZ 00652bf0 f i AGKWindows:Detector.obj
 0002:0013ec30       ??0?$basic_ostream@DU?$char_traits@D@std@@@std@@QAE@PAV?$basic_streambuf@DU?$char_traits@D@std@@@1@_N@Z 00652c30 f i AGKWindows:Detector.obj
 0002:0013ed20       ??0?$basic_ios@DU?$char_traits@D@std@@@std@@IAE@XZ 00652d20 f i AGKWindows:Detector.obj
 0002:0013ed60       ??0ios_base@std@@IAE@XZ    00652d60 f i AGKWindows:Detector.obj
 0002:0013ed90       ?eback@?$basic_streambuf@DU?$char_traits@D@std@@@std@@IBEPADXZ 00652d90 f i AGKWindows:Detector.obj
 0002:0013edb0       ?gptr@?$basic_streambuf@DU?$char_traits@D@std@@@std@@IBEPADXZ 00652db0 f i AGKWindows:Detector.obj
 0002:0013edd0       ?pbase@?$basic_streambuf@DU?$char_traits@D@std@@@std@@IBEPADXZ 00652dd0 f i AGKWindows:Detector.obj
 0002:0013edf0       ?pptr@?$basic_streambuf@DU?$char_traits@D@std@@@std@@IBEPADXZ 00652df0 f i AGKWindows:Detector.obj
 0002:0013ee10       ?egptr@?$basic_streambuf@DU?$char_traits@D@std@@@std@@IBEPADXZ 00652e10 f i AGKWindows:Detector.obj
 0002:0013ee40       ?gbump@?$basic_streambuf@DU?$char_traits@D@std@@@std@@IAEXH@Z 00652e40 f i AGKWindows:Detector.obj
 0002:0013ee90       ?setg@?$basic_streambuf@DU?$char_traits@D@std@@@std@@IAEXPAD00@Z 00652e90 f i AGKWindows:Detector.obj
 0002:0013eee0       ?epptr@?$basic_streambuf@DU?$char_traits@D@std@@@std@@IBEPADXZ 00652ee0 f i AGKWindows:Detector.obj
 0002:0013ef10       ?_Gninc@?$basic_streambuf@DU?$char_traits@D@std@@@std@@IAEPADXZ 00652f10 f i AGKWindows:Detector.obj
 0002:0013ef80       ?_Gnavail@?$basic_streambuf@DU?$char_traits@D@std@@@std@@IBE_JXZ 00652f80 f i AGKWindows:Detector.obj
 0002:0013efd0       ?pbump@?$basic_streambuf@DU?$char_traits@D@std@@@std@@IAEXH@Z 00652fd0 f i AGKWindows:Detector.obj
 0002:0013f020       ?setp@?$basic_streambuf@DU?$char_traits@D@std@@@std@@IAEXPAD0@Z 00653020 f i AGKWindows:Detector.obj
 0002:0013f070       ?setp@?$basic_streambuf@DU?$char_traits@D@std@@@std@@IAEXPAD00@Z 00653070 f i AGKWindows:Detector.obj
 0002:0013f0c0       ?resize@?$vector@V?$Ref@VResultPoint@zxing@@@zxing@@V?$allocator@V?$Ref@VResultPoint@zxing@@@zxing@@@std@@@std@@QAEXI@Z 006530c0 f i AGKWindows:Detector.obj
 0002:0013f2c0       ??0?$allocator@V?$Ref@VResultPoint@zxing@@@zxing@@@std@@QAE@XZ 006532c0 f i AGKWindows:Detector.obj
 0002:0013f2e0       ?_Tidy@?$vector@V?$Ref@VFinderPattern@qrcode@zxing@@@zxing@@V?$allocator@V?$Ref@VFinderPattern@qrcode@zxing@@@zxing@@@std@@@std@@IAEXXZ 006532e0 f i AGKWindows:Detector.obj
 0002:0013f390       ??1?$_Vector_val@V?$Ref@VFinderPattern@qrcode@zxing@@@zxing@@V?$allocator@V?$Ref@VFinderPattern@qrcode@zxing@@@zxing@@@std@@@std@@QAE@XZ 00653390 f i AGKWindows:Detector.obj
 0002:0013f4a0       ?reset@?$Ref@VDetectorResult@zxing@@@zxing@@QAEXPAVDetectorResult@2@@Z 006534a0 f i AGKWindows:Detector.obj
 0002:0013f500       ?reset@?$Ref@VFinderPatternInfo@qrcode@zxing@@@zxing@@QAEXPAVFinderPatternInfo@qrcode@2@@Z 00653500 f i AGKWindows:Detector.obj
 0002:0013f560       ??8?$Ref@VResultPoint@zxing@@@zxing@@QAE_NPBVResultPoint@1@@Z 00653560 f i AGKWindows:Detector.obj
 0002:0013f590       ?reset@?$Ref@VAlignmentPattern@qrcode@zxing@@@zxing@@QAEXPAVAlignmentPattern@qrcode@2@@Z 00653590 f i AGKWindows:Detector.obj
 0002:0013f5f0       ??0?$basic_stringbuf@DU?$char_traits@D@std@@V?$allocator@D@2@@std@@QAE@H@Z 006535f0 f i AGKWindows:Detector.obj
 0002:0013f6b0       ?str@?$basic_stringbuf@DU?$char_traits@D@std@@V?$allocator@D@2@@std@@QBE?AV?$basic_string@DU?$char_traits@D@std@@V?$allocator@D@2@@2@XZ 006536b0 f i AGKWindows:Detector.obj
 0002:0013f960       ?_Tidy@?$basic_stringbuf@DU?$char_traits@D@std@@V?$allocator@D@2@@std@@IAEXXZ 00653960 f i AGKWindows:Detector.obj
 0002:0013fa40       ?put@?$num_put@DV?$ostreambuf_iterator@DU?$char_traits@D@std@@@std@@@std@@QBE?AV?$ostreambuf_iterator@DU?$char_traits@D@std@@@2@V32@AAVios_base@2@DJ@Z 00653a40 f i AGKWindows:Detector.obj
 0002:0013fab0       ??0?$fpos@H@std@@QAE@_J@Z  00653ab0 f i AGKWindows:Detector.obj
 0002:0013fb10       ??B?$fpos@H@std@@QBE_JXZ   00653b10 f i AGKWindows:Detector.obj
 0002:0013fb40       ??1?$_Vector_iterator@V?$_Vector_val@V?$Ref@VResultPoint@zxing@@@zxing@@V?$allocator@V?$Ref@VResultPoint@zxing@@@zxing@@@std@@@std@@@std@@QAE@XZ 00653b40 f i AGKWindows:Detector.obj
 0002:0013fb70       ??0?$basic_string@DU?$char_traits@D@std@@V?$allocator@D@2@@std@@QAE@PBDI@Z 00653b70 f i AGKWindows:Detector.obj
 0002:0013fc30       ?init@?$basic_ios@DU?$char_traits@D@std@@@std@@IAEXPAV?$basic_streambuf@DU?$char_traits@D@std@@@2@_N@Z 00653c30 f i AGKWindows:Detector.obj
 0002:0013fcc0       ?_Init@ios_base@std@@IAEXXZ 00653cc0 f i AGKWindows:Detector.obj
 0002:0013fdd0       ??0locale@std@@QAE@XZ      00653dd0 f i AGKWindows:Detector.obj
 0002:0013fe20       ?clear@ios_base@std@@QAEXH@Z 00653e20 f i AGKWindows:Detector.obj
 0002:0013fe60       ??0?$basic_streambuf@DU?$char_traits@D@std@@@std@@IAE@XZ 00653e60 f i AGKWindows:Detector.obj
 0002:0013ff50       ?begin@?$vector@V?$Ref@VResultPoint@zxing@@@zxing@@V?$allocator@V?$Ref@VResultPoint@zxing@@@zxing@@@std@@@std@@QAE?AV?$_Vector_iterator@V?$_Vector_val@V?$Ref@VResultPoint@zxing@@@zxing@@V?$allocator@V?$Ref@VResultPoint@zxing@@@zxing@@@std@@@std@@@2@XZ 00653f50 f i AGKWindows:Detector.obj
 0002:0013ffb0       ?end@?$vector@V?$Ref@VResultPoint@zxing@@@zxing@@V?$allocator@V?$Ref@VResultPoint@zxing@@@zxing@@@std@@@std@@QAE?AV?$_Vector_iterator@V?$_Vector_val@V?$Ref@VResultPoint@zxing@@@zxing@@V?$allocator@V?$Ref@VResultPoint@zxing@@@zxing@@@std@@@std@@@2@XZ 00653fb0 f i AGKWindows:Detector.obj
 0002:00140010       ?erase@?$vector@V?$Ref@VResultPoint@zxing@@@zxing@@V?$allocator@V?$Ref@VResultPoint@zxing@@@zxing@@@std@@@std@@QAE?AV?$_Vector_iterator@V?$_Vector_val@V?$Ref@VResultPoint@zxing@@@zxing@@V?$allocator@V?$Ref@VResultPoint@zxing@@@zxing@@@std@@@std@@@2@V?$_Vector_const_iterator@V?$_Vector_val@V?$Ref@VResultPoint@zxing@@@zxing@@V?$allocator@V?$Ref@VResultPoint@zxing@@@zxing@@@std@@@std@@@2@0@Z 00654010 f i AGKWindows:Detector.obj
 0002:00140270       ?_Reserve@?$vector@V?$Ref@VResultPoint@zxing@@@zxing@@V?$allocator@V?$Ref@VResultPoint@zxing@@@zxing@@@std@@@std@@IAEXI@Z 00654270 f i AGKWindows:Detector.obj
 0002:00140310       ?_Destroy@?$vector@V?$Ref@VFinderPattern@qrcode@zxing@@@zxing@@V?$allocator@V?$Ref@VFinderPattern@qrcode@zxing@@@zxing@@@std@@@std@@IAEXPAV?$Ref@VFinderPattern@qrcode@zxing@@@zxing@@0@Z 00654310 f i AGKWindows:Detector.obj
 0002:00140360       ?deallocate@?$allocator@V?$Ref@VFinderPattern@qrcode@zxing@@@zxing@@@std@@QAEXPAV?$Ref@VFinderPattern@qrcode@zxing@@@zxing@@I@Z 00654360 f i AGKWindows:Detector.obj
 0002:001403a0       ?_Init@?$basic_stringbuf@DU?$char_traits@D@std@@V?$allocator@D@2@@std@@IAEXPBDIH@Z 006543a0 f i AGKWindows:Detector.obj
 0002:00140510       ?_Getstate@?$basic_stringbuf@DU?$char_traits@D@std@@V?$allocator@D@2@@std@@AAEHH@Z 00654510 f i AGKWindows:Detector.obj
 0002:001405a0       ??H?$_Vector_iterator@V?$_Vector_val@V?$Ref@VResultPoint@zxing@@@zxing@@V?$allocator@V?$Ref@VResultPoint@zxing@@@zxing@@@std@@@std@@@std@@QBE?AV01@H@Z 006545a0 f i AGKWindows:Detector.obj
 0002:001406b0       ??0?$_Vector_iterator@V?$_Vector_val@V?$Ref@VResultPoint@zxing@@@zxing@@V?$allocator@V?$Ref@VResultPoint@zxing@@@zxing@@@std@@@std@@@std@@QAE@ABV01@@Z 006546b0 f i AGKWindows:Detector.obj
 0002:001406f0       ?widen@?$basic_ios@DU?$char_traits@D@std@@@std@@QBEDD@Z 006546f0 f i AGKWindows:Detector.obj
 0002:001407c0       ?widen@?$ctype@D@std@@QBEDD@Z 006547c0 f i AGKWindows:Detector.obj
 0002:00140810       ?_Init@?$basic_streambuf@DU?$char_traits@D@std@@@std@@IAEXXZ 00654810 f i AGKWindows:Detector.obj
 0002:001408b0       ?reserve@?$vector@V?$Ref@VResultPoint@zxing@@@zxing@@V?$allocator@V?$Ref@VResultPoint@zxing@@@zxing@@@std@@@std@@QAEXI@Z 006548b0 f i AGKWindows:Detector.obj
 0002:00140a80       ?capacity@?$vector@V?$Ref@VResultPoint@zxing@@@zxing@@V?$allocator@V?$Ref@VResultPoint@zxing@@@zxing@@@std@@@std@@QBEIXZ 00654a80 f i AGKWindows:Detector.obj
 0002:00140ab0       ?_Make_iter@?$vector@V?$Ref@VResultPoint@zxing@@@zxing@@V?$allocator@V?$Ref@VResultPoint@zxing@@@zxing@@@std@@@std@@QBE?AV?$_Vector_iterator@V?$_Vector_val@V?$Ref@VResultPoint@zxing@@@zxing@@V?$allocator@V?$Ref@VResultPoint@zxing@@@zxing@@@std@@@std@@@2@V?$_Vector_const_iterator@V?$_Vector_val@V?$Ref@VResultPoint@zxing@@@zxing@@V?$allocator@V?$Ref@VResultPoint@zxing@@@zxing@@@std@@@std@@@2@@Z 00654ab0 f i AGKWindows:Detector.obj
 0002:00140b60       ?_Grow_to@?$vector@V?$Ref@VResultPoint@zxing@@@zxing@@V?$allocator@V?$Ref@VResultPoint@zxing@@@zxing@@@std@@@std@@IBEII@Z 00654b60 f i AGKWindows:Detector.obj
 0002:00140c00       ?_Orphan_range@?$vector@V?$Ref@VResultPoint@zxing@@@zxing@@V?$allocator@V?$Ref@VResultPoint@zxing@@@zxing@@@std@@@std@@IBEXPAV?$Ref@VResultPoint@zxing@@@zxing@@0@Z 00654c00 f i AGKWindows:Detector.obj
 0002:00140d50       ??0?$_Vector_iterator@V?$_Vector_val@V?$Ref@VResultPoint@zxing@@@zxing@@V?$allocator@V?$Ref@VResultPoint@zxing@@@zxing@@@std@@@std@@@std@@QAE@PAV?$Ref@VResultPoint@zxing@@@zxing@@PBU_Container_base12@1@@Z 00654d50 f i AGKWindows:Detector.obj
 0002:00140d90       ??Y?$_Vector_iterator@V?$_Vector_val@V?$Ref@VResultPoint@zxing@@@zxing@@V?$allocator@V?$Ref@VResultPoint@zxing@@@zxing@@@std@@@std@@@std@@QAEAAV01@H@Z 00654d90 f i AGKWindows:Detector.obj
 0002:00140dd0       ??Y?$_Vector_const_iterator@V?$_Vector_val@V?$Ref@VResultPoint@zxing@@@zxing@@V?$allocator@V?$Ref@VResultPoint@zxing@@@zxing@@@std@@@std@@@std@@QAEAAV01@H@Z 00654dd0 f i AGKWindows:Detector.obj
 0002:00140ee0       ??$use_facet@V?$ctype@D@std@@@std@@YAABV?$ctype@D@0@ABVlocale@0@@Z 00654ee0 f i AGKWindows:Detector.obj
 0002:00141080       ?_Getcat@?$ctype@D@std@@SAIPAPBVfacet@locale@2@PBV42@@Z 00655080 f i AGKWindows:Detector.obj
 0002:001411e0       ??0?$ctype@D@std@@QAE@ABV_Locinfo@1@I@Z 006551e0 f i AGKWindows:Detector.obj
 0002:00141280       ??0ctype_base@std@@QAE@I@Z 00655280 f i AGKWindows:Detector.obj
 0002:001412d0       ??1ctype_base@std@@UAE@XZ  006552d0 f i AGKWindows:Detector.obj
 0002:00141310       ??_Gctype_base@std@@UAEPAXI@Z 00655310 f i AGKWindows:Detector.obj
 0002:00141310       ??_Ectype_base@std@@UAEPAXI@Z 00655310 f i AGKWindows:Detector.obj
 0002:00141360       ?_Init@?$ctype@D@std@@IAEXABV_Locinfo@2@@Z 00655360 f i AGKWindows:Detector.obj
 0002:001413d0       ?_Getctype@_Locinfo@std@@QBE?AU_Ctypevec@@XZ 006553d0 f i AGKWindows:Detector.obj
 0002:00141470       ?do_tolower@?$ctype@D@std@@MBEDD@Z 00655470 f i AGKWindows:Detector.obj
 0002:001414b0       ?do_tolower@?$ctype@D@std@@MBEPBDPADPBD@Z 006554b0 f i AGKWindows:Detector.obj
 0002:00141540       ?do_toupper@?$ctype@D@std@@MBEDD@Z 00655540 f i AGKWindows:Detector.obj
 0002:00141580       ?do_toupper@?$ctype@D@std@@MBEPBDPADPBD@Z 00655580 f i AGKWindows:Detector.obj
 0002:00141610       ?do_widen@?$ctype@D@std@@MBEDD@Z 00655610 f i AGKWindows:Detector.obj
 0002:00141630       ?do_widen@?$ctype@D@std@@MBEPBDPBD0PAD@Z 00655630 f i AGKWindows:Detector.obj
 0002:001416c0       ?do_narrow@?$ctype@D@std@@MBEDDD@Z 006556c0 f i AGKWindows:Detector.obj
 0002:001416e0       ?do_narrow@?$ctype@D@std@@MBEPBDPBD0DPAD@Z 006556e0 f i AGKWindows:Detector.obj
 0002:00141770       ??_E?$ctype@D@std@@MAEPAXI@Z 00655770 f i AGKWindows:Detector.obj
 0002:00141770       ??_G?$ctype@D@std@@MAEPAXI@Z 00655770 f i AGKWindows:Detector.obj
 0002:001417c0       ??1?$ctype@D@std@@MAE@XZ   006557c0 f i AGKWindows:Detector.obj
 0002:00141850       ?_Tidy@?$ctype@D@std@@IAEXXZ 00655850 f i AGKWindows:Detector.obj
 0002:001418d0       ??$_Debug_range@PBD@std@@YAXPBD0PB_WI@Z 006558d0 f i AGKWindows:Detector.obj
 0002:00141930       ??$_Debug_pointer@D@std@@YAXPADPB_WI@Z 00655930 f i AGKWindows:Detector.obj
 0002:00141960       ??$?0VFinderPattern@qrcode@zxing@@@?$Ref@VResultPoint@zxing@@@zxing@@QAE@ABV?$Ref@VFinderPattern@qrcode@zxing@@@1@@Z 00655960 f i AGKWindows:Detector.obj
 0002:001419b0       ??$?0VAlignmentPattern@qrcode@zxing@@@?$Ref@VResultPoint@zxing@@@zxing@@QAE@ABV?$Ref@VAlignmentPattern@qrcode@zxing@@@1@@Z 006559b0 f i AGKWindows:Detector.obj
 0002:00141a00       ??$max@H@std@@YAABHABH0@Z  00655a00 f i AGKWindows:Detector.obj
 0002:00141a70       ??$min@H@std@@YAABHABH0@Z  00655a70 f i AGKWindows:Detector.obj
 0002:00141ae0       ??$_DebugHeapDelete@Vlocale@std@@@std@@YAXPAVlocale@0@@Z 00655ae0 f i AGKWindows:Detector.obj
 0002:00141b20       ??$_Uninitialized_default_fill_n@PAV?$Ref@VResultPoint@zxing@@@zxing@@IV12@V?$allocator@V?$Ref@VResultPoint@zxing@@@zxing@@@std@@@std@@YAXPAV?$Ref@VResultPoint@zxing@@@zxing@@IPBV12@AAV?$allocator@V?$Ref@VResultPoint@zxing@@@zxing@@@0@@Z 00655b20 f i AGKWindows:Detector.obj
 0002:00141b90       ??$?0V?$Ref@VFinderPattern@qrcode@zxing@@@zxing@@@?$allocator@U_Container_proxy@std@@@std@@QAE@ABV?$allocator@V?$Ref@VFinderPattern@qrcode@zxing@@@zxing@@@1@@Z 00655b90 f i AGKWindows:Detector.obj
 0002:00141bb0       ??$_Move@PAV?$Ref@VResultPoint@zxing@@@zxing@@PAV12@@std@@YAPAV?$Ref@VResultPoint@zxing@@@zxing@@PAV12@00@Z 00655bb0 f i AGKWindows:Detector.obj
 0002:00141c10       ??$_Destroy_range@V?$allocator@V?$Ref@VFinderPattern@qrcode@zxing@@@zxing@@@std@@@std@@YAXPAV?$Ref@VFinderPattern@qrcode@zxing@@@zxing@@0AAV?$allocator@V?$Ref@VFinderPattern@qrcode@zxing@@@zxing@@@0@@Z 00655c10 f i AGKWindows:Detector.obj
 0002:00141c70       ??$_Umove@PAV?$Ref@VResultPoint@zxing@@@zxing@@@?$vector@V?$Ref@VResultPoint@zxing@@@zxing@@V?$allocator@V?$Ref@VResultPoint@zxing@@@zxing@@@std@@@std@@IAEPAV?$Ref@VResultPoint@zxing@@@zxing@@PAV23@00@Z 00655c70 f i AGKWindows:Detector.obj
 0002:00141cc0       ??_Glocale@std@@QAEPAXI@Z  00655cc0 f i AGKWindows:Detector.obj
 0002:00141d10       ??$_Iter_cat@PBD@std@@YA?AUrandom_access_iterator_tag@0@ABQBD@Z 00655d10 f i AGKWindows:Detector.obj
 0002:00141d80       ??$_Debug_range2@PBD@std@@YAXPBD0PB_WIUrandom_access_iterator_tag@0@@Z 00655d80 f i AGKWindows:Detector.obj
 0002:00141df0       ??$_Debug_lt@HH@std@@YA_NABH0PB_WI@Z 00655df0 f i AGKWindows:Detector.obj
 0002:00141e50       ??$_Val_type@PAV?$Ref@VResultPoint@zxing@@@zxing@@@std@@YAPAV?$Ref@VResultPoint@zxing@@@zxing@@PAV12@@Z 00655e50 f i AGKWindows:Detector.obj
 0002:00141e60       ??$_Uninit_def_fill_n@PAV?$Ref@VResultPoint@zxing@@@zxing@@IV12@V?$allocator@V?$Ref@VResultPoint@zxing@@@zxing@@@std@@V12@@std@@YAXPAV?$Ref@VResultPoint@zxing@@@zxing@@IPBV12@AAV?$allocator@V?$Ref@VResultPoint@zxing@@@zxing@@@0@0U_Nonscalar_ptr_iterator_tag@0@@Z 00655e60 f i AGKWindows:Detector.obj
 0002:00141fa0       ??$_Move@PAV?$Ref@VResultPoint@zxing@@@zxing@@PAV12@@std@@YAPAV?$Ref@VResultPoint@zxing@@@zxing@@PAV12@00U_Nonscalar_ptr_iterator_tag@0@@Z 00655fa0 f i AGKWindows:Detector.obj
 0002:00142000       ??$_Ptr_cat@V?$Ref@VFinderPattern@qrcode@zxing@@@zxing@@V12@@std@@YA?AU_Nonscalar_ptr_iterator_tag@0@PAV?$Ref@VFinderPattern@qrcode@zxing@@@zxing@@0@Z 00656000 f i AGKWindows:Detector.obj
 0002:00142060       ??$_Destroy_range@V?$allocator@V?$Ref@VFinderPattern@qrcode@zxing@@@zxing@@@std@@@std@@YAXPAV?$Ref@VFinderPattern@qrcode@zxing@@@zxing@@0AAV?$allocator@V?$Ref@VFinderPattern@qrcode@zxing@@@zxing@@@0@U_Nonscalar_ptr_iterator_tag@0@@Z 00656060 f i AGKWindows:Detector.obj
 0002:001420a0       ??$_Uninitialized_move@PAV?$Ref@VResultPoint@zxing@@@zxing@@PAV12@V?$allocator@V?$Ref@VResultPoint@zxing@@@zxing@@@std@@@std@@YAPAV?$Ref@VResultPoint@zxing@@@zxing@@PAV12@00AAV?$allocator@V?$Ref@VResultPoint@zxing@@@zxing@@@0@@Z 006560a0 f i AGKWindows:Detector.obj
 0002:00142110       ??0?$Ref@VResultPoint@zxing@@@zxing@@QAE@PAVResultPoint@1@@Z 00656110 f i AGKWindows:Detector.obj
 0002:00142160       ??4?$Ref@VResultPoint@zxing@@@zxing@@QAEAAV01@ABV01@@Z 00656160 f i AGKWindows:Detector.obj
 0002:001421a0       ??$_Cons_val@V?$allocator@V?$Ref@VResultPoint@zxing@@@zxing@@@std@@V?$Ref@VResultPoint@zxing@@@zxing@@V34@@std@@YAXAAV?$allocator@V?$Ref@VResultPoint@zxing@@@zxing@@@0@PAV?$Ref@VResultPoint@zxing@@@zxing@@$$QAV23@@Z 006561a0 f i AGKWindows:Detector.obj
 0002:001421d0       ??$move@AAV?$Ref@VResultPoint@zxing@@@zxing@@@std@@YA$$QAV?$Ref@VResultPoint@zxing@@@zxing@@AAV12@@Z 006561d0 f i AGKWindows:Detector.obj
 0002:001421e0       ??$_Dest_val@V?$allocator@V?$Ref@VFinderPattern@qrcode@zxing@@@zxing@@@std@@V?$Ref@VFinderPattern@qrcode@zxing@@@zxing@@@std@@YAXAAV?$allocator@V?$Ref@VFinderPattern@qrcode@zxing@@@zxing@@@0@PAV?$Ref@VFinderPattern@qrcode@zxing@@@zxing@@@Z 006561e0 f i AGKWindows:Detector.obj
 0002:00142200       ??$_Uninit_move@PAV?$Ref@VResultPoint@zxing@@@zxing@@PAV12@V?$allocator@V?$Ref@VResultPoint@zxing@@@zxing@@@std@@V12@@std@@YAPAV?$Ref@VResultPoint@zxing@@@zxing@@PAV12@00AAV?$allocator@V?$Ref@VResultPoint@zxing@@@zxing@@@0@0U_Nonscalar_ptr_iterator_tag@0@@Z 00656200 f i AGKWindows:Detector.obj
 0002:00142350       ?construct@?$allocator@V?$Ref@VResultPoint@zxing@@@zxing@@@std@@QAEXPAV?$Ref@VResultPoint@zxing@@@zxing@@$$QAV34@@Z 00656350 f i AGKWindows:Detector.obj
 0002:00142420       ?destroy@?$allocator@V?$Ref@VFinderPattern@qrcode@zxing@@@zxing@@@std@@QAEXPAV?$Ref@VFinderPattern@qrcode@zxing@@@zxing@@@Z 00656420 f i AGKWindows:Detector.obj
 0002:00142460       ??$forward@V?$Ref@VResultPoint@zxing@@@zxing@@@std@@YA$$QAV?$Ref@VResultPoint@zxing@@@zxing@@AAV12@@Z 00656460 f i AGKWindows:Detector.obj
 0002:00142470       ??$_Debug_range@PAV?$Ref@VResultPoint@zxing@@@zxing@@@std@@YAXPAV?$Ref@VResultPoint@zxing@@@zxing@@0PB_WI@Z 00656470 f i AGKWindows:Detector.obj
 0002:001424d0       ??$_Destroy@V?$Ref@VFinderPattern@qrcode@zxing@@@zxing@@@std@@YAXPAV?$Ref@VFinderPattern@qrcode@zxing@@@zxing@@@Z 006564d0 f i AGKWindows:Detector.obj
 0002:001424f0       ??_G?$Ref@VFinderPattern@qrcode@zxing@@@zxing@@QAEPAXI@Z 006564f0 f i AGKWindows:Detector.obj
 0002:00142540       ??$_Iter_cat@PAV?$Ref@VResultPoint@zxing@@@zxing@@@std@@YA?AUrandom_access_iterator_tag@0@ABQAV?$Ref@VResultPoint@zxing@@@zxing@@@Z 00656540 f i AGKWindows:Detector.obj
 0002:001425b0       ??$_Debug_range2@PAV?$Ref@VResultPoint@zxing@@@zxing@@@std@@YAXPAV?$Ref@VResultPoint@zxing@@@zxing@@0PB_WIUrandom_access_iterator_tag@0@@Z 006565b0 f i AGKWindows:Detector.obj
 0002:00142620       ??0ReedSolomonDecoder@zxing@@QAE@AAVGF256@1@@Z 00656620 f   AGKWindows:ReedSolomonDecoder.obj
 0002:00142640       ??1ReedSolomonDecoder@zxing@@QAE@XZ 00656640 f   AGKWindows:ReedSolomonDecoder.obj
 0002:00142660       ?decode@ReedSolomonDecoder@zxing@@QAEXV?$ArrayRef@H@2@H@Z 00656660 f   AGKWindows:ReedSolomonDecoder.obj
 0002:00142c60       ?runEuclideanAlgorithm@ReedSolomonDecoder@zxing@@AAE?AV?$vector@V?$Ref@VGF256Poly@zxing@@@zxing@@V?$allocator@V?$Ref@VGF256Poly@zxing@@@zxing@@@std@@@std@@V?$Ref@VGF256Poly@zxing@@@2@0H@Z 00656c60 f   AGKWindows:ReedSolomonDecoder.obj
 0002:00143510       ?findErrorLocations@ReedSolomonDecoder@zxing@@AAE?AV?$ArrayRef@H@2@V?$Ref@VGF256Poly@zxing@@@2@@Z 00657510 f   AGKWindows:ReedSolomonDecoder.obj
 0002:00143710       ?findErrorMagnitudes@ReedSolomonDecoder@zxing@@AAE?AV?$ArrayRef@H@2@V?$Ref@VGF256Poly@zxing@@@2@V32@_N@Z 00657710 f   AGKWindows:ReedSolomonDecoder.obj
 0002:00143dd0       ??0ReedSolomonException@zxing@@QAE@ABV01@@Z 00657dd0 f i AGKWindows:ReedSolomonDecoder.obj
 0002:00143e20       ??_EReedSolomonException@zxing@@UAEPAXI@Z 00657e20 f i AGKWindows:ReedSolomonDecoder.obj
 0002:00143e20       ??_GReedSolomonException@zxing@@UAEPAXI@Z 00657e20 f i AGKWindows:ReedSolomonDecoder.obj
 0002:00143e70       ??0?$Ref@VGF256Poly@zxing@@@zxing@@QAE@PAVGF256Poly@1@@Z 00657e70 f i AGKWindows:ReedSolomonDecoder.obj
 0002:00143ec0       ??0?$Ref@VGF256Poly@zxing@@@zxing@@QAE@ABV01@@Z 00657ec0 f i AGKWindows:ReedSolomonDecoder.obj
 0002:00143f10       ??1?$Ref@VGF256Poly@zxing@@@zxing@@QAE@XZ 00657f10 f i AGKWindows:ReedSolomonDecoder.obj
 0002:00143f50       ??4?$Ref@VGF256Poly@zxing@@@zxing@@QAEAAV01@ABV01@@Z 00657f50 f i AGKWindows:ReedSolomonDecoder.obj
 0002:00143f90       ??C?$Ref@VGF256Poly@zxing@@@zxing@@QBEPAVGF256Poly@1@XZ 00657f90 f i AGKWindows:ReedSolomonDecoder.obj
 0002:00143fb0       ??0?$ArrayRef@H@zxing@@QAE@PAV?$Array@H@1@@Z 00657fb0 f i AGKWindows:ReedSolomonDecoder.obj
 0002:00144050       ?size@?$ArrayRef@H@zxing@@QBEIXZ 00658050 f i AGKWindows:ReedSolomonDecoder.obj
 0002:00144080       ??C?$ArrayRef@H@zxing@@QAEPAV?$Array@H@1@XZ 00658080 f i AGKWindows:ReedSolomonDecoder.obj
 0002:001440a0       ?size@?$Array@H@zxing@@QBEIXZ 006580a0 f i AGKWindows:ReedSolomonDecoder.obj
 0002:001440d0       ??0?$vector@V?$Ref@VGF256Poly@zxing@@@zxing@@V?$allocator@V?$Ref@VGF256Poly@zxing@@@zxing@@@std@@@std@@QAE@I@Z 006580d0 f i AGKWindows:ReedSolomonDecoder.obj
 0002:00144180       ??0?$vector@V?$Ref@VGF256Poly@zxing@@@zxing@@V?$allocator@V?$Ref@VGF256Poly@zxing@@@zxing@@@std@@@std@@QAE@$$QAV01@@Z 00658180 f i AGKWindows:ReedSolomonDecoder.obj
 0002:00144240       ??1?$vector@V?$Ref@VGF256Poly@zxing@@@zxing@@V?$allocator@V?$Ref@VGF256Poly@zxing@@@zxing@@@std@@@std@@QAE@XZ 00658240 f i AGKWindows:ReedSolomonDecoder.obj
 0002:001442c0       ??A?$vector@V?$Ref@VGF256Poly@zxing@@@zxing@@V?$allocator@V?$Ref@VGF256Poly@zxing@@@zxing@@@std@@@std@@QAEAAV?$Ref@VGF256Poly@zxing@@@zxing@@I@Z 006582c0 f i AGKWindows:ReedSolomonDecoder.obj
 0002:00144380       ?reset@?$Ref@VGF256Poly@zxing@@@zxing@@QAEXPAVGF256Poly@2@@Z 00658380 f i AGKWindows:ReedSolomonDecoder.obj
 0002:001443e0       ?_Assign_rv@?$vector@V?$Ref@VGF256Poly@zxing@@@zxing@@V?$allocator@V?$Ref@VGF256Poly@zxing@@@zxing@@@std@@@std@@QAEX$$QAV12@@Z 006583e0 f i AGKWindows:ReedSolomonDecoder.obj
 0002:001445f0       ?_Swap_all@_Container_base12@std@@QAEXAAU12@@Z 006585f0 f i AGKWindows:ReedSolomonDecoder.obj
 0002:001446d0       ?resize@?$vector@V?$Ref@VGF256Poly@zxing@@@zxing@@V?$allocator@V?$Ref@VGF256Poly@zxing@@@zxing@@@std@@@std@@QAEXI@Z 006586d0 f i AGKWindows:ReedSolomonDecoder.obj
 0002:001448d0       ?size@?$vector@V?$Ref@VGF256Poly@zxing@@@zxing@@V?$allocator@V?$Ref@VGF256Poly@zxing@@@zxing@@@std@@@std@@QBEIXZ 006588d0 f i AGKWindows:ReedSolomonDecoder.obj
 0002:00144900       ?_Tidy@?$vector@V?$Ref@VGF256Poly@zxing@@@zxing@@V?$allocator@V?$Ref@VGF256Poly@zxing@@@zxing@@@std@@@std@@IAEXXZ 00658900 f i AGKWindows:ReedSolomonDecoder.obj
 0002:001449b0       ??0?$_Vector_val@V?$Ref@VGF256Poly@zxing@@@zxing@@V?$allocator@V?$Ref@VGF256Poly@zxing@@@zxing@@@std@@@std@@QAE@V?$allocator@V?$Ref@VGF256Poly@zxing@@@zxing@@@1@@Z 006589b0 f i AGKWindows:ReedSolomonDecoder.obj
 0002:00144b10       ??1?$_Vector_val@V?$Ref@VGF256Poly@zxing@@@zxing@@V?$allocator@V?$Ref@VGF256Poly@zxing@@@zxing@@@std@@@std@@QAE@XZ 00658b10 f i AGKWindows:ReedSolomonDecoder.obj
 0002:00144c20       ??0?$allocator@V?$Ref@VGF256Poly@zxing@@@zxing@@@std@@QAE@XZ 00658c20 f i AGKWindows:ReedSolomonDecoder.obj
 0002:00144c40       ??0?$allocator@V?$Ref@VGF256Poly@zxing@@@zxing@@@std@@QAE@ABV01@@Z 00658c40 f i AGKWindows:ReedSolomonDecoder.obj
 0002:00144c60       ??1?$_Vector_iterator@V?$_Vector_val@V?$Ref@VGF256Poly@zxing@@@zxing@@V?$allocator@V?$Ref@VGF256Poly@zxing@@@zxing@@@std@@@std@@@std@@QAE@XZ 00658c60 f i AGKWindows:ReedSolomonDecoder.obj
 0002:00144c90       ??0?$_Vector_const_iterator@V?$_Vector_val@V?$Ref@VGF256Poly@zxing@@@zxing@@V?$allocator@V?$Ref@VGF256Poly@zxing@@@zxing@@@std@@@std@@@std@@QAE@ABV01@@Z 00658c90 f i AGKWindows:ReedSolomonDecoder.obj
 0002:00144ce0       ??1?$_Vector_const_iterator@V?$_Vector_val@V?$Ref@VGF256Poly@zxing@@@zxing@@V?$allocator@V?$Ref@VGF256Poly@zxing@@@zxing@@@std@@@std@@@std@@QAE@XZ 00658ce0 f i AGKWindows:ReedSolomonDecoder.obj
 0002:00144d10       ??0?$_Iterator012@Urandom_access_iterator_tag@std@@V?$Ref@VGF256Poly@zxing@@@zxing@@HPBV34@ABV34@U_Iterator_base12@2@@std@@QAE@ABU01@@Z 00658d10 f i AGKWindows:ReedSolomonDecoder.obj
 0002:00144d50       ??1?$_Iterator012@Urandom_access_iterator_tag@std@@V?$Ref@VGF256Poly@zxing@@@zxing@@HPBV34@ABV34@U_Iterator_base12@2@@std@@QAE@XZ 00658d50 f i AGKWindows:ReedSolomonDecoder.obj
 0002:00144d80       ?push_back@?$vector@V?$Ref@VGF256Poly@zxing@@@zxing@@V?$allocator@V?$Ref@VGF256Poly@zxing@@@zxing@@@std@@@std@@QAEX$$QAV?$Ref@VGF256Poly@zxing@@@zxing@@@Z 00658d80 f i AGKWindows:ReedSolomonDecoder.obj
 0002:00144f00       ?begin@?$vector@V?$Ref@VGF256Poly@zxing@@@zxing@@V?$allocator@V?$Ref@VGF256Poly@zxing@@@zxing@@@std@@@std@@QAE?AV?$_Vector_iterator@V?$_Vector_val@V?$Ref@VGF256Poly@zxing@@@zxing@@V?$allocator@V?$Ref@VGF256Poly@zxing@@@zxing@@@std@@@std@@@2@XZ 00658f00 f i AGKWindows:ReedSolomonDecoder.obj
 0002:00144f60       ?end@?$vector@V?$Ref@VGF256Poly@zxing@@@zxing@@V?$allocator@V?$Ref@VGF256Poly@zxing@@@zxing@@@std@@@std@@QAE?AV?$_Vector_iterator@V?$_Vector_val@V?$Ref@VGF256Poly@zxing@@@zxing@@V?$allocator@V?$Ref@VGF256Poly@zxing@@@zxing@@@std@@@std@@@2@XZ 00658f60 f i AGKWindows:ReedSolomonDecoder.obj
 0002:00144fc0       ?get_allocator@?$vector@V?$Ref@VGF256Poly@zxing@@@zxing@@V?$allocator@V?$Ref@VGF256Poly@zxing@@@zxing@@@std@@@std@@QBE?AV?$allocator@V?$Ref@VGF256Poly@zxing@@@zxing@@@2@XZ 00658fc0 f i AGKWindows:ReedSolomonDecoder.obj
 0002:00145000       ?erase@?$vector@V?$Ref@VGF256Poly@zxing@@@zxing@@V?$allocator@V?$Ref@VGF256Poly@zxing@@@zxing@@@std@@@std@@QAE?AV?$_Vector_iterator@V?$_Vector_val@V?$Ref@VGF256Poly@zxing@@@zxing@@V?$allocator@V?$Ref@VGF256Poly@zxing@@@zxing@@@std@@@std@@@2@V?$_Vector_const_iterator@V?$_Vector_val@V?$Ref@VGF256Poly@zxing@@@zxing@@V?$allocator@V?$Ref@VGF256Poly@zxing@@@zxing@@@std@@@std@@@2@0@Z 00659000 f i AGKWindows:ReedSolomonDecoder.obj
 0002:00145260       ?clear@?$vector@V?$Ref@VGF256Poly@zxing@@@zxing@@V?$allocator@V?$Ref@VGF256Poly@zxing@@@zxing@@@std@@@std@@QAEXXZ 00659260 f i AGKWindows:ReedSolomonDecoder.obj
 0002:00145390       ?_Destroy@?$vector@V?$Ref@VGF256Poly@zxing@@@zxing@@V?$allocator@V?$Ref@VGF256Poly@zxing@@@zxing@@@std@@@std@@IAEXPAV?$Ref@VGF256Poly@zxing@@@zxing@@0@Z 00659390 f i AGKWindows:ReedSolomonDecoder.obj
 0002:001453e0       ?_Reserve@?$vector@V?$Ref@VGF256Poly@zxing@@@zxing@@V?$allocator@V?$Ref@VGF256Poly@zxing@@@zxing@@@std@@@std@@IAEXI@Z 006593e0 f i AGKWindows:ReedSolomonDecoder.obj
 0002:00145480       ?deallocate@?$allocator@V?$Ref@VGF256Poly@zxing@@@zxing@@@std@@QAEXPAV?$Ref@VGF256Poly@zxing@@@zxing@@I@Z 00659480 f i AGKWindows:ReedSolomonDecoder.obj
 0002:001454c0       ??D?$_Vector_iterator@V?$_Vector_val@V?$Ref@VGF256Poly@zxing@@@zxing@@V?$allocator@V?$Ref@VGF256Poly@zxing@@@zxing@@@std@@@std@@@std@@QBEAAV?$Ref@VGF256Poly@zxing@@@zxing@@XZ 006594c0 f i AGKWindows:ReedSolomonDecoder.obj
 0002:001454f0       ??E?$_Vector_iterator@V?$_Vector_val@V?$Ref@VGF256Poly@zxing@@@zxing@@V?$allocator@V?$Ref@VGF256Poly@zxing@@@zxing@@@std@@@std@@@std@@QAEAAV01@XZ 006594f0 f i AGKWindows:ReedSolomonDecoder.obj
 0002:00145520       ??H?$_Vector_iterator@V?$_Vector_val@V?$Ref@VGF256Poly@zxing@@@zxing@@V?$allocator@V?$Ref@VGF256Poly@zxing@@@zxing@@@std@@@std@@@std@@QBE?AV01@H@Z 00659520 f i AGKWindows:ReedSolomonDecoder.obj
 0002:00145630       ??9?$_Vector_const_iterator@V?$_Vector_val@V?$Ref@VGF256Poly@zxing@@@zxing@@V?$allocator@V?$Ref@VGF256Poly@zxing@@@zxing@@@std@@@std@@@std@@QBE_NABV01@@Z 00659630 f i AGKWindows:ReedSolomonDecoder.obj
 0002:00145680       ??0?$_Vector_iterator@V?$_Vector_val@V?$Ref@VGF256Poly@zxing@@@zxing@@V?$allocator@V?$Ref@VGF256Poly@zxing@@@zxing@@@std@@@std@@@std@@QAE@ABV01@@Z 00659680 f i AGKWindows:ReedSolomonDecoder.obj
 0002:001456c0       ?reserve@?$vector@V?$Ref@VGF256Poly@zxing@@@zxing@@V?$allocator@V?$Ref@VGF256Poly@zxing@@@zxing@@@std@@@std@@QAEXI@Z 006596c0 f i AGKWindows:ReedSolomonDecoder.obj
 0002:00145890       ?capacity@?$vector@V?$Ref@VGF256Poly@zxing@@@zxing@@V?$allocator@V?$Ref@VGF256Poly@zxing@@@zxing@@@std@@@std@@QBEIXZ 00659890 f i AGKWindows:ReedSolomonDecoder.obj
 0002:001458c0       ?_Make_iter@?$vector@V?$Ref@VGF256Poly@zxing@@@zxing@@V?$allocator@V?$Ref@VGF256Poly@zxing@@@zxing@@@std@@@std@@QBE?AV?$_Vector_iterator@V?$_Vector_val@V?$Ref@VGF256Poly@zxing@@@zxing@@V?$allocator@V?$Ref@VGF256Poly@zxing@@@zxing@@@std@@@std@@@2@V?$_Vector_const_iterator@V?$_Vector_val@V?$Ref@VGF256Poly@zxing@@@zxing@@V?$allocator@V?$Ref@VGF256Poly@zxing@@@zxing@@@std@@@std@@@2@@Z 006598c0 f i AGKWindows:ReedSolomonDecoder.obj
 0002:00145970       ?max_size@?$vector@V?$Ref@VGF256Poly@zxing@@@zxing@@V?$allocator@V?$Ref@VGF256Poly@zxing@@@zxing@@@std@@@std@@QBEIXZ 00659970 f i AGKWindows:ReedSolomonDecoder.obj
 0002:001459a0       ?_Grow_to@?$vector@V?$Ref@VGF256Poly@zxing@@@zxing@@V?$allocator@V?$Ref@VGF256Poly@zxing@@@zxing@@@std@@@std@@IBEII@Z 006599a0 f i AGKWindows:ReedSolomonDecoder.obj
 0002:00145a40       ?_Inside@?$vector@V?$Ref@VGF256Poly@zxing@@@zxing@@V?$allocator@V?$Ref@VGF256Poly@zxing@@@zxing@@@std@@@std@@IBE_NPBV?$Ref@VGF256Poly@zxing@@@zxing@@@Z 00659a40 f i AGKWindows:ReedSolomonDecoder.obj
 0002:00145aa0       ?_Xlen@?$vector@V?$Ref@VGF256Poly@zxing@@@zxing@@V?$allocator@V?$Ref@VGF256Poly@zxing@@@zxing@@@std@@@std@@IBEXXZ 00659aa0 f i AGKWindows:ReedSolomonDecoder.obj
 0002:00145ad0       ?_Orphan_range@?$vector@V?$Ref@VGF256Poly@zxing@@@zxing@@V?$allocator@V?$Ref@VGF256Poly@zxing@@@zxing@@@std@@@std@@IBEXPAV?$Ref@VGF256Poly@zxing@@@zxing@@0@Z 00659ad0 f i AGKWindows:ReedSolomonDecoder.obj
 0002:00145c20       ??0?$_Vector_iterator@V?$_Vector_val@V?$Ref@VGF256Poly@zxing@@@zxing@@V?$allocator@V?$Ref@VGF256Poly@zxing@@@zxing@@@std@@@std@@@std@@QAE@PAV?$Ref@VGF256Poly@zxing@@@zxing@@PBU_Container_base12@1@@Z 00659c20 f i AGKWindows:ReedSolomonDecoder.obj
 0002:00145c60       ??Y?$_Vector_iterator@V?$_Vector_val@V?$Ref@VGF256Poly@zxing@@@zxing@@V?$allocator@V?$Ref@VGF256Poly@zxing@@@zxing@@@std@@@std@@@std@@QAEAAV01@H@Z 00659c60 f i AGKWindows:ReedSolomonDecoder.obj
 0002:00145ca0       ??D?$_Vector_const_iterator@V?$_Vector_val@V?$Ref@VGF256Poly@zxing@@@zxing@@V?$allocator@V?$Ref@VGF256Poly@zxing@@@zxing@@@std@@@std@@@std@@QBEABV?$Ref@VGF256Poly@zxing@@@zxing@@XZ 00659ca0 f i AGKWindows:ReedSolomonDecoder.obj
 0002:00145d90       ??E?$_Vector_const_iterator@V?$_Vector_val@V?$Ref@VGF256Poly@zxing@@@zxing@@V?$allocator@V?$Ref@VGF256Poly@zxing@@@zxing@@@std@@@std@@@std@@QAEAAV01@XZ 00659d90 f i AGKWindows:ReedSolomonDecoder.obj
 0002:00145e70       ??8?$_Vector_const_iterator@V?$_Vector_val@V?$Ref@VGF256Poly@zxing@@@zxing@@V?$allocator@V?$Ref@VGF256Poly@zxing@@@zxing@@@std@@@std@@@std@@QBE_NABV01@@Z 00659e70 f i AGKWindows:ReedSolomonDecoder.obj
 0002:00145ec0       ??M?$_Vector_const_iterator@V?$_Vector_val@V?$Ref@VGF256Poly@zxing@@@zxing@@V?$allocator@V?$Ref@VGF256Poly@zxing@@@zxing@@@std@@@std@@@std@@QBE_NABV01@@Z 00659ec0 f i AGKWindows:ReedSolomonDecoder.obj
 0002:00145f10       ?allocate@?$allocator@V?$Ref@VGF256Poly@zxing@@@zxing@@@std@@QAEPAV?$Ref@VGF256Poly@zxing@@@zxing@@I@Z 00659f10 f i AGKWindows:ReedSolomonDecoder.obj
 0002:00145f50       ?max_size@?$allocator@V?$Ref@VGF256Poly@zxing@@@zxing@@@std@@QBEIXZ 00659f50 f i AGKWindows:ReedSolomonDecoder.obj
 0002:00145fb0       ??0?$_Vector_const_iterator@V?$_Vector_val@V?$Ref@VGF256Poly@zxing@@@zxing@@V?$allocator@V?$Ref@VGF256Poly@zxing@@@zxing@@@std@@@std@@@std@@QAE@PAV?$Ref@VGF256Poly@zxing@@@zxing@@PBU_Container_base12@1@@Z 00659fb0 f i AGKWindows:ReedSolomonDecoder.obj
 0002:00146050       ??Y?$_Vector_const_iterator@V?$_Vector_val@V?$Ref@VGF256Poly@zxing@@@zxing@@V?$allocator@V?$Ref@VGF256Poly@zxing@@@zxing@@@std@@@std@@@std@@QAEAAV01@H@Z 0065a050 f i AGKWindows:ReedSolomonDecoder.obj
 0002:00146160       ?_Compat@?$_Vector_const_iterator@V?$_Vector_val@V?$Ref@VGF256Poly@zxing@@@zxing@@V?$allocator@V?$Ref@VGF256Poly@zxing@@@zxing@@@std@@@std@@@std@@QBEXABV12@@Z 0065a160 f i AGKWindows:ReedSolomonDecoder.obj
 0002:00146230       ??0?$_Iterator012@Urandom_access_iterator_tag@std@@V?$Ref@VGF256Poly@zxing@@@zxing@@HPBV34@ABV34@U_Iterator_base12@2@@std@@QAE@XZ 0065a230 f i AGKWindows:ReedSolomonDecoder.obj
 0002:00146260       ??$forward@V?$vector@V?$Ref@VGF256Poly@zxing@@@zxing@@V?$allocator@V?$Ref@VGF256Poly@zxing@@@zxing@@@std@@@std@@@std@@YA$$QAV?$vector@V?$Ref@VGF256Poly@zxing@@@zxing@@V?$allocator@V?$Ref@VGF256Poly@zxing@@@zxing@@@std@@@0@AAV10@@Z 0065a260 f i AGKWindows:ReedSolomonDecoder.obj
 0002:00146270       ??$?9V?$Ref@VGF256Poly@zxing@@@zxing@@V01@@std@@YA_NABV?$allocator@V?$Ref@VGF256Poly@zxing@@@zxing@@@0@0@Z 0065a270 f i AGKWindows:ReedSolomonDecoder.obj
 0002:001462a0       ??$forward@V?$Ref@VGF256Poly@zxing@@@zxing@@@std@@YA$$QAV?$Ref@VGF256Poly@zxing@@@zxing@@AAV12@@Z 0065a2a0 f i AGKWindows:ReedSolomonDecoder.obj
 0002:001462b0       ??$_Uninitialized_default_fill_n@PAV?$Ref@VGF256Poly@zxing@@@zxing@@IV12@V?$allocator@V?$Ref@VGF256Poly@zxing@@@zxing@@@std@@@std@@YAXPAV?$Ref@VGF256Poly@zxing@@@zxing@@IPBV12@AAV?$allocator@V?$Ref@VGF256Poly@zxing@@@zxing@@@0@@Z 0065a2b0 f i AGKWindows:ReedSolomonDecoder.obj
 0002:00146320       ??$?0V?$Ref@VGF256Poly@zxing@@@zxing@@@?$allocator@U_Container_proxy@std@@@std@@QAE@ABV?$allocator@V?$Ref@VGF256Poly@zxing@@@zxing@@@1@@Z 0065a320 f i AGKWindows:ReedSolomonDecoder.obj
 0002:00146340       ??$addressof@V?$Ref@VGF256Poly@zxing@@@zxing@@@std@@YAPAV?$Ref@VGF256Poly@zxing@@@zxing@@AAV12@@Z 0065a340 f i AGKWindows:ReedSolomonDecoder.obj
 0002:00146350       ??$_Cons_val@V?$allocator@V?$Ref@VGF256Poly@zxing@@@zxing@@@std@@V?$Ref@VGF256Poly@zxing@@@zxing@@V34@@std@@YAXAAV?$allocator@V?$Ref@VGF256Poly@zxing@@@zxing@@@0@PAV?$Ref@VGF256Poly@zxing@@@zxing@@$$QAV23@@Z 0065a350 f i AGKWindows:ReedSolomonDecoder.obj
 0002:00146380       ??$_Move@PAV?$Ref@VGF256Poly@zxing@@@zxing@@PAV12@@std@@YAPAV?$Ref@VGF256Poly@zxing@@@zxing@@PAV12@00@Z 0065a380 f i AGKWindows:ReedSolomonDecoder.obj
 0002:001463e0       ??$_Destroy_range@V?$allocator@V?$Ref@VGF256Poly@zxing@@@zxing@@@std@@@std@@YAXPAV?$Ref@VGF256Poly@zxing@@@zxing@@0AAV?$allocator@V?$Ref@VGF256Poly@zxing@@@zxing@@@0@@Z 0065a3e0 f i AGKWindows:ReedSolomonDecoder.obj
 0002:00146440       ??$_Umove@PAV?$Ref@VGF256Poly@zxing@@@zxing@@@?$vector@V?$Ref@VGF256Poly@zxing@@@zxing@@V?$allocator@V?$Ref@VGF256Poly@zxing@@@zxing@@@std@@@std@@IAEPAV?$Ref@VGF256Poly@zxing@@@zxing@@PAV23@00@Z 0065a440 f i AGKWindows:ReedSolomonDecoder.obj
 0002:00146490       ??$_Allocate@V?$Ref@VGF256Poly@zxing@@@zxing@@@std@@YAPAV?$Ref@VGF256Poly@zxing@@@zxing@@IPAV12@@Z 0065a490 f i AGKWindows:ReedSolomonDecoder.obj
 0002:00146530       ?construct@?$allocator@V?$Ref@VGF256Poly@zxing@@@zxing@@@std@@QAEXPAV?$Ref@VGF256Poly@zxing@@@zxing@@$$QAV34@@Z 0065a530 f i AGKWindows:ReedSolomonDecoder.obj
 0002:00146600       ??$?8V?$Ref@VGF256Poly@zxing@@@zxing@@V01@@std@@YA_NABV?$allocator@V?$Ref@VGF256Poly@zxing@@@zxing@@@0@0@Z 0065a600 f i AGKWindows:ReedSolomonDecoder.obj
 0002:00146610       ??$_Val_type@PAV?$Ref@VGF256Poly@zxing@@@zxing@@@std@@YAPAV?$Ref@VGF256Poly@zxing@@@zxing@@PAV12@@Z 0065a610 f i AGKWindows:ReedSolomonDecoder.obj
